	.file	"lib_mem.c"
	.text
	.globl	mem_benchmark_0
	.type	mem_benchmark_0, @function
mem_benchmark_0:
.LFB72:
	.cfi_startproc
	endbr64
	movq	%rsi, %rcx
	cmpl	$0, mem_benchmark_rerun(%rip)
	je	.L2
	movq	sp0.152(%rip), %rdx
	movq	addr_save.153(%rip), %rax
	cmpq	%rax, (%rsi)
	je	.L6
.L2:
	movq	16(%rcx), %rdx
.L6:
	leaq	-1(%rdi), %rax
	testq	%rdi, %rdi
	je	.L5
.L4:
	movq	(%rdx), %rdx
	movq	(%rdx), %rdx
	movq	(%rdx), %rdx
	movq	(%rdx), %rdx
	movq	(%rdx), %rdx
	movq	(%rdx), %rdx
	movq	(%rdx), %rdx
	movq	(%rdx), %rdx
	movq	(%rdx), %rdx
	movq	(%rdx), %rdx
	movq	(%rdx), %rdx
	movq	(%rdx), %rdx
	movq	(%rdx), %rdx
	movq	(%rdx), %rdx
	movq	(%rdx), %rdx
	movq	(%rdx), %rdx
	movq	(%rdx), %rdx
	movq	(%rdx), %rdx
	movq	(%rdx), %rdx
	movq	(%rdx), %rdx
	movq	(%rdx), %rdx
	movq	(%rdx), %rdx
	movq	(%rdx), %rdx
	movq	(%rdx), %rdx
	movq	(%rdx), %rdx
	movq	(%rdx), %rdx
	movq	(%rdx), %rdx
	movq	(%rdx), %rdx
	movq	(%rdx), %rdx
	movq	(%rdx), %rdx
	movq	(%rdx), %rdx
	movq	(%rdx), %rdx
	movq	(%rdx), %rdx
	movq	(%rdx), %rdx
	movq	(%rdx), %rdx
	movq	(%rdx), %rdx
	movq	(%rdx), %rdx
	movq	(%rdx), %rdx
	movq	(%rdx), %rdx
	movq	(%rdx), %rdx
	movq	(%rdx), %rdx
	movq	(%rdx), %rdx
	movq	(%rdx), %rdx
	movq	(%rdx), %rdx
	movq	(%rdx), %rdx
	movq	(%rdx), %rdx
	movq	(%rdx), %rdx
	movq	(%rdx), %rdx
	movq	(%rdx), %rdx
	movq	(%rdx), %rdx
	movq	(%rdx), %rdx
	movq	(%rdx), %rdx
	movq	(%rdx), %rdx
	movq	(%rdx), %rdx
	movq	(%rdx), %rdx
	movq	(%rdx), %rdx
	movq	(%rdx), %rdx
	movq	(%rdx), %rdx
	movq	(%rdx), %rdx
	movq	(%rdx), %rdx
	movq	(%rdx), %rdx
	movq	(%rdx), %rdx
	movq	(%rdx), %rdx
	movq	(%rdx), %rdx
	movq	(%rdx), %rdx
	movq	(%rdx), %rdx
	movq	(%rdx), %rdx
	movq	(%rdx), %rdx
	movq	(%rdx), %rdx
	movq	(%rdx), %rdx
	movq	(%rdx), %rdx
	movq	(%rdx), %rdx
	movq	(%rdx), %rdx
	movq	(%rdx), %rdx
	movq	(%rdx), %rdx
	movq	(%rdx), %rdx
	movq	(%rdx), %rdx
	movq	(%rdx), %rdx
	movq	(%rdx), %rdx
	movq	(%rdx), %rdx
	movq	(%rdx), %rdx
	movq	(%rdx), %rdx
	movq	(%rdx), %rdx
	movq	(%rdx), %rdx
	movq	(%rdx), %rdx
	movq	(%rdx), %rdx
	movq	(%rdx), %rdx
	movq	(%rdx), %rdx
	movq	(%rdx), %rdx
	movq	(%rdx), %rdx
	movq	(%rdx), %rdx
	movq	(%rdx), %rdx
	movq	(%rdx), %rdx
	movq	(%rdx), %rdx
	movq	(%rdx), %rdx
	movq	(%rdx), %rdx
	movq	(%rdx), %rdx
	movq	(%rdx), %rdx
	movq	(%rdx), %rdx
	movq	(%rdx), %rdx
	subq	$1, %rax
	cmpq	$-1, %rax
	jne	.L4
.L5:
	movq	%rdx, sp0.152(%rip)
	movq	(%rcx), %rax
	movq	%rax, addr_save.153(%rip)
	movl	$1, mem_benchmark_rerun(%rip)
	ret
	.cfi_endproc
.LFE72:
	.size	mem_benchmark_0, .-mem_benchmark_0
	.globl	mem_benchmark_1
	.type	mem_benchmark_1, @function
mem_benchmark_1:
.LFB73:
	.cfi_startproc
	endbr64
	cmpl	$0, mem_benchmark_rerun(%rip)
	je	.L10
	movq	addr_save.151(%rip), %rax
	movq	sp0.150(%rip), %rdx
	cmpq	%rax, (%rsi)
	je	.L12
	movq	16(%rsi), %rdx
	movq	addr_save.151(%rip), %rax
	cmpq	%rax, (%rsi)
	jne	.L16
.L12:
	movq	sp1.149(%rip), %rcx
	jmp	.L15
.L10:
	movq	16(%rsi), %rdx
.L16:
	movq	24(%rsi), %rcx
.L15:
	leaq	-1(%rdi), %rax
	testq	%rdi, %rdi
	je	.L14
.L13:
	movq	(%rdx), %rdx
	movq	(%rcx), %rcx
	movq	(%rdx), %rdx
	movq	(%rcx), %rcx
	movq	(%rdx), %rdx
	movq	(%rcx), %rcx
	movq	(%rdx), %rdx
	movq	(%rcx), %rcx
	movq	(%rdx), %rdx
	movq	(%rcx), %rcx
	movq	(%rdx), %rdx
	movq	(%rcx), %rcx
	movq	(%rdx), %rdx
	movq	(%rcx), %rcx
	movq	(%rdx), %rdx
	movq	(%rcx), %rcx
	movq	(%rdx), %rdx
	movq	(%rcx), %rcx
	movq	(%rdx), %rdx
	movq	(%rcx), %rcx
	movq	(%rdx), %rdx
	movq	(%rcx), %rcx
	movq	(%rdx), %rdx
	movq	(%rcx), %rcx
	movq	(%rdx), %rdx
	movq	(%rcx), %rcx
	movq	(%rdx), %rdx
	movq	(%rcx), %rcx
	movq	(%rdx), %rdx
	movq	(%rcx), %rcx
	movq	(%rdx), %rdx
	movq	(%rcx), %rcx
	movq	(%rdx), %rdx
	movq	(%rcx), %rcx
	movq	(%rdx), %rdx
	movq	(%rcx), %rcx
	movq	(%rdx), %rdx
	movq	(%rcx), %rcx
	movq	(%rdx), %rdx
	movq	(%rcx), %rcx
	movq	(%rdx), %rdx
	movq	(%rcx), %rcx
	movq	(%rdx), %rdx
	movq	(%rcx), %rcx
	movq	(%rdx), %rdx
	movq	(%rcx), %rcx
	movq	(%rdx), %rdx
	movq	(%rcx), %rcx
	movq	(%rdx), %rdx
	movq	(%rcx), %rcx
	movq	(%rdx), %rdx
	movq	(%rcx), %rcx
	movq	(%rdx), %rdx
	movq	(%rcx), %rcx
	movq	(%rdx), %rdx
	movq	(%rcx), %rcx
	movq	(%rdx), %rdx
	movq	(%rcx), %rcx
	movq	(%rdx), %rdx
	movq	(%rcx), %rcx
	movq	(%rdx), %rdx
	movq	(%rcx), %rcx
	movq	(%rdx), %rdx
	movq	(%rcx), %rcx
	movq	(%rdx), %rdx
	movq	(%rcx), %rcx
	movq	(%rdx), %rdx
	movq	(%rcx), %rcx
	movq	(%rdx), %rdx
	movq	(%rcx), %rcx
	movq	(%rdx), %rdx
	movq	(%rcx), %rcx
	movq	(%rdx), %rdx
	movq	(%rcx), %rcx
	movq	(%rdx), %rdx
	movq	(%rcx), %rcx
	movq	(%rdx), %rdx
	movq	(%rcx), %rcx
	movq	(%rdx), %rdx
	movq	(%rcx), %rcx
	movq	(%rdx), %rdx
	movq	(%rcx), %rcx
	movq	(%rdx), %rdx
	movq	(%rcx), %rcx
	movq	(%rdx), %rdx
	movq	(%rcx), %rcx
	movq	(%rdx), %rdx
	movq	(%rcx), %rcx
	movq	(%rdx), %rdx
	movq	(%rcx), %rcx
	movq	(%rdx), %rdx
	movq	(%rcx), %rcx
	movq	(%rdx), %rdx
	movq	(%rcx), %rcx
	movq	(%rdx), %rdx
	movq	(%rcx), %rcx
	movq	(%rdx), %rdx
	movq	(%rcx), %rcx
	movq	(%rdx), %rdx
	movq	(%rcx), %rcx
	movq	(%rdx), %rdx
	movq	(%rcx), %rcx
	movq	(%rdx), %rdx
	movq	(%rcx), %rcx
	movq	(%rdx), %rdx
	movq	(%rcx), %rcx
	movq	(%rdx), %rdx
	movq	(%rcx), %rcx
	movq	(%rdx), %rdx
	movq	(%rcx), %rcx
	movq	(%rdx), %rdx
	movq	(%rcx), %rcx
	movq	(%rdx), %rdx
	movq	(%rcx), %rcx
	movq	(%rdx), %rdx
	movq	(%rcx), %rcx
	movq	(%rdx), %rdx
	movq	(%rcx), %rcx
	movq	(%rdx), %rdx
	movq	(%rcx), %rcx
	movq	(%rdx), %rdx
	movq	(%rcx), %rcx
	movq	(%rdx), %rdx
	movq	(%rcx), %rcx
	movq	(%rdx), %rdx
	movq	(%rcx), %rcx
	movq	(%rdx), %rdx
	movq	(%rcx), %rcx
	movq	(%rdx), %rdx
	movq	(%rcx), %rcx
	movq	(%rdx), %rdx
	movq	(%rcx), %rcx
	movq	(%rdx), %rdx
	movq	(%rcx), %rcx
	movq	(%rdx), %rdx
	movq	(%rcx), %rcx
	movq	(%rdx), %rdx
	movq	(%rcx), %rcx
	movq	(%rdx), %rdx
	movq	(%rcx), %rcx
	movq	(%rdx), %rdx
	movq	(%rcx), %rcx
	movq	(%rdx), %rdx
	movq	(%rcx), %rcx
	movq	(%rdx), %rdx
	movq	(%rcx), %rcx
	movq	(%rdx), %rdx
	movq	(%rcx), %rcx
	movq	(%rdx), %rdx
	movq	(%rcx), %rcx
	movq	(%rdx), %rdx
	movq	(%rcx), %rcx
	movq	(%rdx), %rdx
	movq	(%rcx), %rcx
	movq	(%rdx), %rdx
	movq	(%rcx), %rcx
	movq	(%rdx), %rdx
	movq	(%rcx), %rcx
	movq	(%rdx), %rdx
	movq	(%rcx), %rcx
	movq	(%rdx), %rdx
	movq	(%rcx), %rcx
	movq	(%rdx), %rdx
	movq	(%rcx), %rcx
	movq	(%rdx), %rdx
	movq	(%rcx), %rcx
	movq	(%rdx), %rdx
	movq	(%rcx), %rcx
	movq	(%rdx), %rdx
	movq	(%rcx), %rcx
	movq	(%rdx), %rdx
	movq	(%rcx), %rcx
	movq	(%rdx), %rdx
	movq	(%rcx), %rcx
	movq	(%rdx), %rdx
	movq	(%rcx), %rcx
	movq	(%rdx), %rdx
	movq	(%rcx), %rcx
	movq	(%rdx), %rdx
	movq	(%rcx), %rcx
	movq	(%rdx), %rdx
	movq	(%rcx), %rcx
	movq	(%rdx), %rdx
	movq	(%rcx), %rcx
	movq	(%rdx), %rdx
	movq	(%rcx), %rcx
	movq	(%rdx), %rdx
	movq	(%rcx), %rcx
	movq	(%rdx), %rdx
	movq	(%rcx), %rcx
	movq	(%rdx), %rdx
	movq	(%rcx), %rcx
	movq	(%rdx), %rdx
	movq	(%rcx), %rcx
	movq	(%rdx), %rdx
	movq	(%rcx), %rcx
	movq	(%rdx), %rdx
	movq	(%rcx), %rcx
	movq	(%rdx), %rdx
	movq	(%rcx), %rcx
	subq	$1, %rax
	cmpq	$-1, %rax
	jne	.L13
.L14:
	movq	%rdx, sp0.150(%rip)
	movq	%rcx, sp1.149(%rip)
	movq	(%rsi), %rax
	movq	%rax, addr_save.151(%rip)
	movl	$1, mem_benchmark_rerun(%rip)
	ret
	.cfi_endproc
.LFE73:
	.size	mem_benchmark_1, .-mem_benchmark_1
	.globl	mem_benchmark_2
	.type	mem_benchmark_2, @function
mem_benchmark_2:
.LFB74:
	.cfi_startproc
	endbr64
	movq	%rsi, %r8
	movl	mem_benchmark_rerun(%rip), %eax
	testl	%eax, %eax
	je	.L21
	movq	addr_save.148(%rip), %rdx
	cmpq	%rdx, (%rsi)
	je	.L35
	movq	16(%rsi), %rdx
	movq	addr_save.148(%rip), %rcx
	cmpq	%rcx, (%rsi)
	je	.L23
	movq	24(%r8), %rcx
	testl	%eax, %eax
	je	.L24
	movq	addr_save.148(%rip), %rax
	cmpq	%rax, (%r8)
	jne	.L24
	jmp	.L26
.L35:
	movq	sp0.147(%rip), %rdx
.L23:
	movq	sp1.146(%rip), %rcx
.L26:
	movq	sp2.145(%rip), %rsi
	jmp	.L29
.L21:
	movq	16(%rsi), %rdx
	movq	24(%rsi), %rcx
.L24:
	movq	32(%r8), %rsi
.L29:
	leaq	-1(%rdi), %rax
	testq	%rdi, %rdi
	je	.L28
.L27:
	movq	(%rdx), %rdx
	movq	(%rcx), %rcx
	movq	(%rsi), %rsi
	movq	(%rdx), %rdx
	movq	(%rcx), %rcx
	movq	(%rsi), %rsi
	movq	(%rdx), %rdx
	movq	(%rcx), %rcx
	movq	(%rsi), %rsi
	movq	(%rdx), %rdx
	movq	(%rcx), %rcx
	movq	(%rsi), %rsi
	movq	(%rdx), %rdx
	movq	(%rcx), %rcx
	movq	(%rsi), %rsi
	movq	(%rdx), %rdx
	movq	(%rcx), %rcx
	movq	(%rsi), %rsi
	movq	(%rdx), %rdx
	movq	(%rcx), %rcx
	movq	(%rsi), %rsi
	movq	(%rdx), %rdx
	movq	(%rcx), %rcx
	movq	(%rsi), %rsi
	movq	(%rdx), %rdx
	movq	(%rcx), %rcx
	movq	(%rsi), %rsi
	movq	(%rdx), %rdx
	movq	(%rcx), %rcx
	movq	(%rsi), %rsi
	movq	(%rdx), %rdx
	movq	(%rcx), %rcx
	movq	(%rsi), %rsi
	movq	(%rdx), %rdx
	movq	(%rcx), %rcx
	movq	(%rsi), %rsi
	movq	(%rdx), %rdx
	movq	(%rcx), %rcx
	movq	(%rsi), %rsi
	movq	(%rdx), %rdx
	movq	(%rcx), %rcx
	movq	(%rsi), %rsi
	movq	(%rdx), %rdx
	movq	(%rcx), %rcx
	movq	(%rsi), %rsi
	movq	(%rdx), %rdx
	movq	(%rcx), %rcx
	movq	(%rsi), %rsi
	movq	(%rdx), %rdx
	movq	(%rcx), %rcx
	movq	(%rsi), %rsi
	movq	(%rdx), %rdx
	movq	(%rcx), %rcx
	movq	(%rsi), %rsi
	movq	(%rdx), %rdx
	movq	(%rcx), %rcx
	movq	(%rsi), %rsi
	movq	(%rdx), %rdx
	movq	(%rcx), %rcx
	movq	(%rsi), %rsi
	movq	(%rdx), %rdx
	movq	(%rcx), %rcx
	movq	(%rsi), %rsi
	movq	(%rdx), %rdx
	movq	(%rcx), %rcx
	movq	(%rsi), %rsi
	movq	(%rdx), %rdx
	movq	(%rcx), %rcx
	movq	(%rsi), %rsi
	movq	(%rdx), %rdx
	movq	(%rcx), %rcx
	movq	(%rsi), %rsi
	movq	(%rdx), %rdx
	movq	(%rcx), %rcx
	movq	(%rsi), %rsi
	movq	(%rdx), %rdx
	movq	(%rcx), %rcx
	movq	(%rsi), %rsi
	movq	(%rdx), %rdx
	movq	(%rcx), %rcx
	movq	(%rsi), %rsi
	movq	(%rdx), %rdx
	movq	(%rcx), %rcx
	movq	(%rsi), %rsi
	movq	(%rdx), %rdx
	movq	(%rcx), %rcx
	movq	(%rsi), %rsi
	movq	(%rdx), %rdx
	movq	(%rcx), %rcx
	movq	(%rsi), %rsi
	movq	(%rdx), %rdx
	movq	(%rcx), %rcx
	movq	(%rsi), %rsi
	movq	(%rdx), %rdx
	movq	(%rcx), %rcx
	movq	(%rsi), %rsi
	movq	(%rdx), %rdx
	movq	(%rcx), %rcx
	movq	(%rsi), %rsi
	movq	(%rdx), %rdx
	movq	(%rcx), %rcx
	movq	(%rsi), %rsi
	movq	(%rdx), %rdx
	movq	(%rcx), %rcx
	movq	(%rsi), %rsi
	movq	(%rdx), %rdx
	movq	(%rcx), %rcx
	movq	(%rsi), %rsi
	movq	(%rdx), %rdx
	movq	(%rcx), %rcx
	movq	(%rsi), %rsi
	movq	(%rdx), %rdx
	movq	(%rcx), %rcx
	movq	(%rsi), %rsi
	movq	(%rdx), %rdx
	movq	(%rcx), %rcx
	movq	(%rsi), %rsi
	movq	(%rdx), %rdx
	movq	(%rcx), %rcx
	movq	(%rsi), %rsi
	movq	(%rdx), %rdx
	movq	(%rcx), %rcx
	movq	(%rsi), %rsi
	movq	(%rdx), %rdx
	movq	(%rcx), %rcx
	movq	(%rsi), %rsi
	movq	(%rdx), %rdx
	movq	(%rcx), %rcx
	movq	(%rsi), %rsi
	movq	(%rdx), %rdx
	movq	(%rcx), %rcx
	movq	(%rsi), %rsi
	movq	(%rdx), %rdx
	movq	(%rcx), %rcx
	movq	(%rsi), %rsi
	movq	(%rdx), %rdx
	movq	(%rcx), %rcx
	movq	(%rsi), %rsi
	movq	(%rdx), %rdx
	movq	(%rcx), %rcx
	movq	(%rsi), %rsi
	movq	(%rdx), %rdx
	movq	(%rcx), %rcx
	movq	(%rsi), %rsi
	movq	(%rdx), %rdx
	movq	(%rcx), %rcx
	movq	(%rsi), %rsi
	movq	(%rdx), %rdx
	movq	(%rcx), %rcx
	movq	(%rsi), %rsi
	movq	(%rdx), %rdx
	movq	(%rcx), %rcx
	movq	(%rsi), %rsi
	movq	(%rdx), %rdx
	movq	(%rcx), %rcx
	movq	(%rsi), %rsi
	movq	(%rdx), %rdx
	movq	(%rcx), %rcx
	movq	(%rsi), %rsi
	movq	(%rdx), %rdx
	movq	(%rcx), %rcx
	movq	(%rsi), %rsi
	movq	(%rdx), %rdx
	movq	(%rcx), %rcx
	movq	(%rsi), %rsi
	movq	(%rdx), %rdx
	movq	(%rcx), %rcx
	movq	(%rsi), %rsi
	movq	(%rdx), %rdx
	movq	(%rcx), %rcx
	movq	(%rsi), %rsi
	movq	(%rdx), %rdx
	movq	(%rcx), %rcx
	movq	(%rsi), %rsi
	movq	(%rdx), %rdx
	movq	(%rcx), %rcx
	movq	(%rsi), %rsi
	movq	(%rdx), %rdx
	movq	(%rcx), %rcx
	movq	(%rsi), %rsi
	movq	(%rdx), %rdx
	movq	(%rcx), %rcx
	movq	(%rsi), %rsi
	movq	(%rdx), %rdx
	movq	(%rcx), %rcx
	movq	(%rsi), %rsi
	movq	(%rdx), %rdx
	movq	(%rcx), %rcx
	movq	(%rsi), %rsi
	movq	(%rdx), %rdx
	movq	(%rcx), %rcx
	movq	(%rsi), %rsi
	movq	(%rdx), %rdx
	movq	(%rcx), %rcx
	movq	(%rsi), %rsi
	movq	(%rdx), %rdx
	movq	(%rcx), %rcx
	movq	(%rsi), %rsi
	movq	(%rdx), %rdx
	movq	(%rcx), %rcx
	movq	(%rsi), %rsi
	movq	(%rdx), %rdx
	movq	(%rcx), %rcx
	movq	(%rsi), %rsi
	movq	(%rdx), %rdx
	movq	(%rcx), %rcx
	movq	(%rsi), %rsi
	movq	(%rdx), %rdx
	movq	(%rcx), %rcx
	movq	(%rsi), %rsi
	movq	(%rdx), %rdx
	movq	(%rcx), %rcx
	movq	(%rsi), %rsi
	movq	(%rdx), %rdx
	movq	(%rcx), %rcx
	movq	(%rsi), %rsi
	movq	(%rdx), %rdx
	movq	(%rcx), %rcx
	movq	(%rsi), %rsi
	movq	(%rdx), %rdx
	movq	(%rcx), %rcx
	movq	(%rsi), %rsi
	movq	(%rdx), %rdx
	movq	(%rcx), %rcx
	movq	(%rsi), %rsi
	movq	(%rdx), %rdx
	movq	(%rcx), %rcx
	movq	(%rsi), %rsi
	movq	(%rdx), %rdx
	movq	(%rcx), %rcx
	movq	(%rsi), %rsi
	movq	(%rdx), %rdx
	movq	(%rcx), %rcx
	movq	(%rsi), %rsi
	movq	(%rdx), %rdx
	movq	(%rcx), %rcx
	movq	(%rsi), %rsi
	movq	(%rdx), %rdx
	movq	(%rcx), %rcx
	movq	(%rsi), %rsi
	movq	(%rdx), %rdx
	movq	(%rcx), %rcx
	movq	(%rsi), %rsi
	movq	(%rdx), %rdx
	movq	(%rcx), %rcx
	movq	(%rsi), %rsi
	movq	(%rdx), %rdx
	movq	(%rcx), %rcx
	movq	(%rsi), %rsi
	movq	(%rdx), %rdx
	movq	(%rcx), %rcx
	movq	(%rsi), %rsi
	movq	(%rdx), %rdx
	movq	(%rcx), %rcx
	movq	(%rsi), %rsi
	movq	(%rdx), %rdx
	movq	(%rcx), %rcx
	movq	(%rsi), %rsi
	movq	(%rdx), %rdx
	movq	(%rcx), %rcx
	movq	(%rsi), %rsi
	movq	(%rdx), %rdx
	movq	(%rcx), %rcx
	movq	(%rsi), %rsi
	movq	(%rdx), %rdx
	movq	(%rcx), %rcx
	movq	(%rsi), %rsi
	movq	(%rdx), %rdx
	movq	(%rcx), %rcx
	movq	(%rsi), %rsi
	movq	(%rdx), %rdx
	movq	(%rcx), %rcx
	movq	(%rsi), %rsi
	movq	(%rdx), %rdx
	movq	(%rcx), %rcx
	movq	(%rsi), %rsi
	movq	(%rdx), %rdx
	movq	(%rcx), %rcx
	movq	(%rsi), %rsi
	movq	(%rdx), %rdx
	movq	(%rcx), %rcx
	movq	(%rsi), %rsi
	movq	(%rdx), %rdx
	movq	(%rcx), %rcx
	movq	(%rsi), %rsi
	movq	(%rdx), %rdx
	movq	(%rcx), %rcx
	movq	(%rsi), %rsi
	movq	(%rdx), %rdx
	movq	(%rcx), %rcx
	movq	(%rsi), %rsi
	movq	(%rdx), %rdx
	movq	(%rcx), %rcx
	movq	(%rsi), %rsi
	movq	(%rdx), %rdx
	movq	(%rcx), %rcx
	movq	(%rsi), %rsi
	movq	(%rdx), %rdx
	movq	(%rcx), %rcx
	movq	(%rsi), %rsi
	subq	$1, %rax
	cmpq	$-1, %rax
	jne	.L27
.L28:
	movq	%rdx, sp0.147(%rip)
	movq	%rcx, sp1.146(%rip)
	movq	%rsi, sp2.145(%rip)
	movq	(%r8), %rax
	movq	%rax, addr_save.148(%rip)
	movl	$1, mem_benchmark_rerun(%rip)
	ret
	.cfi_endproc
.LFE74:
	.size	mem_benchmark_2, .-mem_benchmark_2
	.globl	mem_benchmark_3
	.type	mem_benchmark_3, @function
mem_benchmark_3:
.LFB75:
	.cfi_startproc
	endbr64
	movq	%rsi, %r9
	movl	mem_benchmark_rerun(%rip), %eax
	testl	%eax, %eax
	je	.L37
	movq	addr_save.144(%rip), %rdx
	cmpq	%rdx, (%rsi)
	je	.L55
	movq	16(%rsi), %rdx
	movq	addr_save.144(%rip), %rcx
	cmpq	%rcx, (%rsi)
	je	.L39
	movq	24(%r9), %rcx
	testl	%eax, %eax
	je	.L40
	movq	addr_save.144(%rip), %rsi
	cmpq	%rsi, (%r9)
	je	.L42
	movq	32(%r9), %rsi
	testl	%eax, %eax
	je	.L43
	movq	addr_save.144(%rip), %rax
	cmpq	%rax, (%r9)
	jne	.L43
	jmp	.L45
.L55:
	movq	sp0.143(%rip), %rdx
.L39:
	movq	sp1.142(%rip), %rcx
.L42:
	movq	sp2.141(%rip), %rsi
.L45:
	movq	sp3.140(%rip), %r8
	jmp	.L48
.L37:
	movq	16(%rsi), %rdx
	movq	24(%rsi), %rcx
.L40:
	movq	32(%r9), %rsi
.L43:
	movq	40(%r9), %r8
.L48:
	leaq	-1(%rdi), %rax
	testq	%rdi, %rdi
	je	.L47
.L46:
	movq	(%rdx), %rdx
	movq	(%rcx), %rcx
	movq	(%rsi), %rsi
	movq	(%r8), %rdi
	movq	(%rdx), %rdx
	movq	(%rcx), %rcx
	movq	(%rsi), %rsi
	movq	(%rdi), %rdi
	movq	(%rdx), %rdx
	movq	(%rcx), %rcx
	movq	(%rsi), %rsi
	movq	(%rdi), %rdi
	movq	(%rdx), %rdx
	movq	(%rcx), %rcx
	movq	(%rsi), %rsi
	movq	(%rdi), %rdi
	movq	(%rdx), %rdx
	movq	(%rcx), %rcx
	movq	(%rsi), %rsi
	movq	(%rdi), %rdi
	movq	(%rdx), %rdx
	movq	(%rcx), %rcx
	movq	(%rsi), %rsi
	movq	(%rdi), %rdi
	movq	(%rdx), %rdx
	movq	(%rcx), %rcx
	movq	(%rsi), %rsi
	movq	(%rdi), %rdi
	movq	(%rdx), %rdx
	movq	(%rcx), %rcx
	movq	(%rsi), %rsi
	movq	(%rdi), %rdi
	movq	(%rdx), %rdx
	movq	(%rcx), %rcx
	movq	(%rsi), %rsi
	movq	(%rdi), %rdi
	movq	(%rdx), %rdx
	movq	(%rcx), %rcx
	movq	(%rsi), %rsi
	movq	(%rdi), %rdi
	movq	(%rdx), %rdx
	movq	(%rcx), %rcx
	movq	(%rsi), %rsi
	movq	(%rdi), %rdi
	movq	(%rdx), %rdx
	movq	(%rcx), %rcx
	movq	(%rsi), %rsi
	movq	(%rdi), %rdi
	movq	(%rdx), %rdx
	movq	(%rcx), %rcx
	movq	(%rsi), %rsi
	movq	(%rdi), %rdi
	movq	(%rdx), %rdx
	movq	(%rcx), %rcx
	movq	(%rsi), %rsi
	movq	(%rdi), %rdi
	movq	(%rdx), %rdx
	movq	(%rcx), %rcx
	movq	(%rsi), %rsi
	movq	(%rdi), %rdi
	movq	(%rdx), %rdx
	movq	(%rcx), %rcx
	movq	(%rsi), %rsi
	movq	(%rdi), %rdi
	movq	(%rdx), %rdx
	movq	(%rcx), %rcx
	movq	(%rsi), %rsi
	movq	(%rdi), %rdi
	movq	(%rdx), %rdx
	movq	(%rcx), %rcx
	movq	(%rsi), %rsi
	movq	(%rdi), %rdi
	movq	(%rdx), %rdx
	movq	(%rcx), %rcx
	movq	(%rsi), %rsi
	movq	(%rdi), %rdi
	movq	(%rdx), %rdx
	movq	(%rcx), %rcx
	movq	(%rsi), %rsi
	movq	(%rdi), %rdi
	movq	(%rdx), %rdx
	movq	(%rcx), %rcx
	movq	(%rsi), %rsi
	movq	(%rdi), %rdi
	movq	(%rdx), %rdx
	movq	(%rcx), %rcx
	movq	(%rsi), %rsi
	movq	(%rdi), %rdi
	movq	(%rdx), %rdx
	movq	(%rcx), %rcx
	movq	(%rsi), %rsi
	movq	(%rdi), %rdi
	movq	(%rdx), %rdx
	movq	(%rcx), %rcx
	movq	(%rsi), %rsi
	movq	(%rdi), %rdi
	movq	(%rdx), %rdx
	movq	(%rcx), %rcx
	movq	(%rsi), %rsi
	movq	(%rdi), %rdi
	movq	(%rdx), %rdx
	movq	(%rcx), %rcx
	movq	(%rsi), %rsi
	movq	(%rdi), %rdi
	movq	(%rdx), %rdx
	movq	(%rcx), %rcx
	movq	(%rsi), %rsi
	movq	(%rdi), %rdi
	movq	(%rdx), %rdx
	movq	(%rcx), %rcx
	movq	(%rsi), %rsi
	movq	(%rdi), %rdi
	movq	(%rdx), %rdx
	movq	(%rcx), %rcx
	movq	(%rsi), %rsi
	movq	(%rdi), %rdi
	movq	(%rdx), %rdx
	movq	(%rcx), %rcx
	movq	(%rsi), %rsi
	movq	(%rdi), %rdi
	movq	(%rdx), %rdx
	movq	(%rcx), %rcx
	movq	(%rsi), %rsi
	movq	(%rdi), %rdi
	movq	(%rdx), %rdx
	movq	(%rcx), %rcx
	movq	(%rsi), %rsi
	movq	(%rdi), %rdi
	movq	(%rdx), %rdx
	movq	(%rcx), %rcx
	movq	(%rsi), %rsi
	movq	(%rdi), %rdi
	movq	(%rdx), %rdx
	movq	(%rcx), %rcx
	movq	(%rsi), %rsi
	movq	(%rdi), %rdi
	movq	(%rdx), %rdx
	movq	(%rcx), %rcx
	movq	(%rsi), %rsi
	movq	(%rdi), %rdi
	movq	(%rdx), %rdx
	movq	(%rcx), %rcx
	movq	(%rsi), %rsi
	movq	(%rdi), %rdi
	movq	(%rdx), %rdx
	movq	(%rcx), %rcx
	movq	(%rsi), %rsi
	movq	(%rdi), %rdi
	movq	(%rdx), %rdx
	movq	(%rcx), %rcx
	movq	(%rsi), %rsi
	movq	(%rdi), %rdi
	movq	(%rdx), %rdx
	movq	(%rcx), %rcx
	movq	(%rsi), %rsi
	movq	(%rdi), %rdi
	movq	(%rdx), %rdx
	movq	(%rcx), %rcx
	movq	(%rsi), %rsi
	movq	(%rdi), %rdi
	movq	(%rdx), %rdx
	movq	(%rcx), %rcx
	movq	(%rsi), %rsi
	movq	(%rdi), %rdi
	movq	(%rdx), %rdx
	movq	(%rcx), %rcx
	movq	(%rsi), %rsi
	movq	(%rdi), %rdi
	movq	(%rdx), %rdx
	movq	(%rcx), %rcx
	movq	(%rsi), %rsi
	movq	(%rdi), %rdi
	movq	(%rdx), %rdx
	movq	(%rcx), %rcx
	movq	(%rsi), %rsi
	movq	(%rdi), %rdi
	movq	(%rdx), %rdx
	movq	(%rcx), %rcx
	movq	(%rsi), %rsi
	movq	(%rdi), %rdi
	movq	(%rdx), %rdx
	movq	(%rcx), %rcx
	movq	(%rsi), %rsi
	movq	(%rdi), %rdi
	movq	(%rdx), %rdx
	movq	(%rcx), %rcx
	movq	(%rsi), %rsi
	movq	(%rdi), %rdi
	movq	(%rdx), %rdx
	movq	(%rcx), %rcx
	movq	(%rsi), %rsi
	movq	(%rdi), %rdi
	movq	(%rdx), %rdx
	movq	(%rcx), %rcx
	movq	(%rsi), %rsi
	movq	(%rdi), %rdi
	movq	(%rdx), %rdx
	movq	(%rcx), %rcx
	movq	(%rsi), %rsi
	movq	(%rdi), %rdi
	movq	(%rdx), %rdx
	movq	(%rcx), %rcx
	movq	(%rsi), %rsi
	movq	(%rdi), %rdi
	movq	(%rdx), %rdx
	movq	(%rcx), %rcx
	movq	(%rsi), %rsi
	movq	(%rdi), %rdi
	movq	(%rdx), %rdx
	movq	(%rcx), %rcx
	movq	(%rsi), %rsi
	movq	(%rdi), %rdi
	movq	(%rdx), %rdx
	movq	(%rcx), %rcx
	movq	(%rsi), %rsi
	movq	(%rdi), %rdi
	movq	(%rdx), %rdx
	movq	(%rcx), %rcx
	movq	(%rsi), %rsi
	movq	(%rdi), %rdi
	movq	(%rdx), %rdx
	movq	(%rcx), %rcx
	movq	(%rsi), %rsi
	movq	(%rdi), %rdi
	movq	(%rdx), %rdx
	movq	(%rcx), %rcx
	movq	(%rsi), %rsi
	movq	(%rdi), %rdi
	movq	(%rdx), %rdx
	movq	(%rcx), %rcx
	movq	(%rsi), %rsi
	movq	(%rdi), %rdi
	movq	(%rdx), %rdx
	movq	(%rcx), %rcx
	movq	(%rsi), %rsi
	movq	(%rdi), %rdi
	movq	(%rdx), %rdx
	movq	(%rcx), %rcx
	movq	(%rsi), %rsi
	movq	(%rdi), %rdi
	movq	(%rdx), %rdx
	movq	(%rcx), %rcx
	movq	(%rsi), %rsi
	movq	(%rdi), %rdi
	movq	(%rdx), %rdx
	movq	(%rcx), %rcx
	movq	(%rsi), %rsi
	movq	(%rdi), %rdi
	movq	(%rdx), %rdx
	movq	(%rcx), %rcx
	movq	(%rsi), %rsi
	movq	(%rdi), %rdi
	movq	(%rdx), %rdx
	movq	(%rcx), %rcx
	movq	(%rsi), %rsi
	movq	(%rdi), %rdi
	movq	(%rdx), %rdx
	movq	(%rcx), %rcx
	movq	(%rsi), %rsi
	movq	(%rdi), %rdi
	movq	(%rdx), %rdx
	movq	(%rcx), %rcx
	movq	(%rsi), %rsi
	movq	(%rdi), %rdi
	movq	(%rdx), %rdx
	movq	(%rcx), %rcx
	movq	(%rsi), %rsi
	movq	(%rdi), %rdi
	movq	(%rdx), %rdx
	movq	(%rcx), %rcx
	movq	(%rsi), %rsi
	movq	(%rdi), %rdi
	movq	(%rdx), %rdx
	movq	(%rcx), %rcx
	movq	(%rsi), %rsi
	movq	(%rdi), %rdi
	movq	(%rdx), %rdx
	movq	(%rcx), %rcx
	movq	(%rsi), %rsi
	movq	(%rdi), %rdi
	movq	(%rdx), %rdx
	movq	(%rcx), %rcx
	movq	(%rsi), %rsi
	movq	(%rdi), %rdi
	movq	(%rdx), %rdx
	movq	(%rcx), %rcx
	movq	(%rsi), %rsi
	movq	(%rdi), %rdi
	movq	(%rdx), %rdx
	movq	(%rcx), %rcx
	movq	(%rsi), %rsi
	movq	(%rdi), %rdi
	movq	(%rdx), %rdx
	movq	(%rcx), %rcx
	movq	(%rsi), %rsi
	movq	(%rdi), %rdi
	movq	(%rdx), %rdx
	movq	(%rcx), %rcx
	movq	(%rsi), %rsi
	movq	(%rdi), %rdi
	movq	(%rdx), %rdx
	movq	(%rcx), %rcx
	movq	(%rsi), %rsi
	movq	(%rdi), %rdi
	movq	(%rdx), %rdx
	movq	(%rcx), %rcx
	movq	(%rsi), %rsi
	movq	(%rdi), %rdi
	movq	(%rdx), %rdx
	movq	(%rcx), %rcx
	movq	(%rsi), %rsi
	movq	(%rdi), %rdi
	movq	(%rdx), %rdx
	movq	(%rcx), %rcx
	movq	(%rsi), %rsi
	movq	(%rdi), %rdi
	movq	(%rdx), %rdx
	movq	(%rcx), %rcx
	movq	(%rsi), %rsi
	movq	(%rdi), %rdi
	movq	(%rdx), %rdx
	movq	(%rcx), %rcx
	movq	(%rsi), %rsi
	movq	(%rdi), %rdi
	movq	(%rdx), %rdx
	movq	(%rcx), %rcx
	movq	(%rsi), %rsi
	movq	(%rdi), %rdi
	movq	(%rdx), %rdx
	movq	(%rcx), %rcx
	movq	(%rsi), %rsi
	movq	(%rdi), %rdi
	movq	(%rdx), %rdx
	movq	(%rcx), %rcx
	movq	(%rsi), %rsi
	movq	(%rdi), %rdi
	movq	(%rdx), %rdx
	movq	(%rcx), %rcx
	movq	(%rsi), %rsi
	movq	(%rdi), %rdi
	movq	(%rdx), %rdx
	movq	(%rcx), %rcx
	movq	(%rsi), %rsi
	movq	(%rdi), %rdi
	movq	(%rdx), %rdx
	movq	(%rcx), %rcx
	movq	(%rsi), %rsi
	movq	(%rdi), %rdi
	movq	(%rdx), %rdx
	movq	(%rcx), %rcx
	movq	(%rsi), %rsi
	movq	(%rdi), %rdi
	movq	(%rdx), %rdx
	movq	(%rcx), %rcx
	movq	(%rsi), %rsi
	movq	(%rdi), %rdi
	movq	(%rdx), %rdx
	movq	(%rcx), %rcx
	movq	(%rsi), %rsi
	movq	(%rdi), %rdi
	movq	(%rdx), %rdx
	movq	(%rcx), %rcx
	movq	(%rsi), %rsi
	movq	(%rdi), %rdi
	movq	(%rdx), %rdx
	movq	(%rcx), %rcx
	movq	(%rsi), %rsi
	movq	(%rdi), %rdi
	movq	(%rdx), %rdx
	movq	(%rcx), %rcx
	movq	(%rsi), %rsi
	movq	(%rdi), %rdi
	movq	(%rdx), %rdx
	movq	(%rcx), %rcx
	movq	(%rsi), %rsi
	movq	(%rdi), %rdi
	movq	(%rdx), %rdx
	movq	(%rcx), %rcx
	movq	(%rsi), %rsi
	movq	(%rdi), %rdi
	movq	(%rdx), %rdx
	movq	(%rcx), %rcx
	movq	(%rsi), %rsi
	movq	(%rdi), %rdi
	movq	(%rdx), %rdx
	movq	(%rcx), %rcx
	movq	(%rsi), %rsi
	movq	(%rdi), %rdi
	movq	(%rdx), %rdx
	movq	(%rcx), %rcx
	movq	(%rsi), %rsi
	movq	(%rdi), %rdi
	movq	(%rdx), %rdx
	movq	(%rcx), %rcx
	movq	(%rsi), %rsi
	movq	(%rdi), %rdi
	movq	(%rdx), %rdx
	movq	(%rcx), %rcx
	movq	(%rsi), %rsi
	movq	(%rdi), %r8
	subq	$1, %rax
	cmpq	$-1, %rax
	jne	.L46
.L47:
	movq	%rdx, sp0.143(%rip)
	movq	%rcx, sp1.142(%rip)
	movq	%rsi, sp2.141(%rip)
	movq	%r8, sp3.140(%rip)
	movq	(%r9), %rax
	movq	%rax, addr_save.144(%rip)
	movl	$1, mem_benchmark_rerun(%rip)
	ret
	.cfi_endproc
.LFE75:
	.size	mem_benchmark_3, .-mem_benchmark_3
	.globl	mem_benchmark_4
	.type	mem_benchmark_4, @function
mem_benchmark_4:
.LFB76:
	.cfi_startproc
	endbr64
	movq	%rsi, %r10
	movl	mem_benchmark_rerun(%rip), %eax
	testl	%eax, %eax
	je	.L57
	movq	addr_save.139(%rip), %rdx
	cmpq	%rdx, (%rsi)
	je	.L79
	movq	16(%rsi), %rdx
	movq	addr_save.139(%rip), %rcx
	cmpq	%rcx, (%rsi)
	je	.L59
	movq	24(%r10), %rcx
	testl	%eax, %eax
	je	.L60
	movq	addr_save.139(%rip), %rsi
	cmpq	%rsi, (%r10)
	je	.L62
	movq	32(%r10), %rsi
	testl	%eax, %eax
	je	.L63
	movq	addr_save.139(%rip), %r11
	cmpq	%r11, (%r10)
	je	.L65
	movq	40(%r10), %r8
	testl	%eax, %eax
	je	.L66
	movq	addr_save.139(%rip), %rax
	cmpq	%rax, (%r10)
	jne	.L66
	jmp	.L68
.L79:
	movq	sp0.138(%rip), %rdx
.L59:
	movq	sp1.137(%rip), %rcx
.L62:
	movq	sp2.136(%rip), %rsi
.L65:
	movq	sp3.135(%rip), %r8
.L68:
	movq	sp4.134(%rip), %r9
	jmp	.L71
.L57:
	movq	16(%rsi), %rdx
	movq	24(%rsi), %rcx
.L60:
	movq	32(%r10), %rsi
.L63:
	movq	40(%r10), %r8
.L66:
	movq	48(%r10), %r9
.L71:
	leaq	-1(%rdi), %rax
	testq	%rdi, %rdi
	je	.L70
.L69:
	movq	(%rdx), %rdx
	movq	(%rcx), %rcx
	movq	(%rsi), %rsi
	movq	(%r8), %r8
	movq	(%r9), %rdi
	movq	(%rdx), %rdx
	movq	(%rcx), %rcx
	movq	(%rsi), %rsi
	movq	(%r8), %r8
	movq	(%rdi), %rdi
	movq	(%rdx), %rdx
	movq	(%rcx), %rcx
	movq	(%rsi), %rsi
	movq	(%r8), %r8
	movq	(%rdi), %rdi
	movq	(%rdx), %rdx
	movq	(%rcx), %rcx
	movq	(%rsi), %rsi
	movq	(%r8), %r8
	movq	(%rdi), %rdi
	movq	(%rdx), %rdx
	movq	(%rcx), %rcx
	movq	(%rsi), %rsi
	movq	(%r8), %r8
	movq	(%rdi), %rdi
	movq	(%rdx), %rdx
	movq	(%rcx), %rcx
	movq	(%rsi), %rsi
	movq	(%r8), %r8
	movq	(%rdi), %rdi
	movq	(%rdx), %rdx
	movq	(%rcx), %rcx
	movq	(%rsi), %rsi
	movq	(%r8), %r8
	movq	(%rdi), %rdi
	movq	(%rdx), %rdx
	movq	(%rcx), %rcx
	movq	(%rsi), %rsi
	movq	(%r8), %r8
	movq	(%rdi), %rdi
	movq	(%rdx), %rdx
	movq	(%rcx), %rcx
	movq	(%rsi), %rsi
	movq	(%r8), %r8
	movq	(%rdi), %rdi
	movq	(%rdx), %rdx
	movq	(%rcx), %rcx
	movq	(%rsi), %rsi
	movq	(%r8), %r8
	movq	(%rdi), %rdi
	movq	(%rdx), %rdx
	movq	(%rcx), %rcx
	movq	(%rsi), %rsi
	movq	(%r8), %r8
	movq	(%rdi), %rdi
	movq	(%rdx), %rdx
	movq	(%rcx), %rcx
	movq	(%rsi), %rsi
	movq	(%r8), %r8
	movq	(%rdi), %rdi
	movq	(%rdx), %rdx
	movq	(%rcx), %rcx
	movq	(%rsi), %rsi
	movq	(%r8), %r8
	movq	(%rdi), %rdi
	movq	(%rdx), %rdx
	movq	(%rcx), %rcx
	movq	(%rsi), %rsi
	movq	(%r8), %r8
	movq	(%rdi), %rdi
	movq	(%rdx), %rdx
	movq	(%rcx), %rcx
	movq	(%rsi), %rsi
	movq	(%r8), %r8
	movq	(%rdi), %rdi
	movq	(%rdx), %rdx
	movq	(%rcx), %rcx
	movq	(%rsi), %rsi
	movq	(%r8), %r8
	movq	(%rdi), %rdi
	movq	(%rdx), %rdx
	movq	(%rcx), %rcx
	movq	(%rsi), %rsi
	movq	(%r8), %r8
	movq	(%rdi), %rdi
	movq	(%rdx), %rdx
	movq	(%rcx), %rcx
	movq	(%rsi), %rsi
	movq	(%r8), %r8
	movq	(%rdi), %rdi
	movq	(%rdx), %rdx
	movq	(%rcx), %rcx
	movq	(%rsi), %rsi
	movq	(%r8), %r8
	movq	(%rdi), %rdi
	movq	(%rdx), %rdx
	movq	(%rcx), %rcx
	movq	(%rsi), %rsi
	movq	(%r8), %r8
	movq	(%rdi), %rdi
	movq	(%rdx), %rdx
	movq	(%rcx), %rcx
	movq	(%rsi), %rsi
	movq	(%r8), %r8
	movq	(%rdi), %rdi
	movq	(%rdx), %rdx
	movq	(%rcx), %rcx
	movq	(%rsi), %rsi
	movq	(%r8), %r8
	movq	(%rdi), %rdi
	movq	(%rdx), %rdx
	movq	(%rcx), %rcx
	movq	(%rsi), %rsi
	movq	(%r8), %r8
	movq	(%rdi), %rdi
	movq	(%rdx), %rdx
	movq	(%rcx), %rcx
	movq	(%rsi), %rsi
	movq	(%r8), %r8
	movq	(%rdi), %rdi
	movq	(%rdx), %rdx
	movq	(%rcx), %rcx
	movq	(%rsi), %rsi
	movq	(%r8), %r8
	movq	(%rdi), %rdi
	movq	(%rdx), %rdx
	movq	(%rcx), %rcx
	movq	(%rsi), %rsi
	movq	(%r8), %r8
	movq	(%rdi), %rdi
	movq	(%rdx), %rdx
	movq	(%rcx), %rcx
	movq	(%rsi), %rsi
	movq	(%r8), %r8
	movq	(%rdi), %rdi
	movq	(%rdx), %rdx
	movq	(%rcx), %rcx
	movq	(%rsi), %rsi
	movq	(%r8), %r8
	movq	(%rdi), %rdi
	movq	(%rdx), %rdx
	movq	(%rcx), %rcx
	movq	(%rsi), %rsi
	movq	(%r8), %r8
	movq	(%rdi), %rdi
	movq	(%rdx), %rdx
	movq	(%rcx), %rcx
	movq	(%rsi), %rsi
	movq	(%r8), %r8
	movq	(%rdi), %rdi
	movq	(%rdx), %rdx
	movq	(%rcx), %rcx
	movq	(%rsi), %rsi
	movq	(%r8), %r8
	movq	(%rdi), %rdi
	movq	(%rdx), %rdx
	movq	(%rcx), %rcx
	movq	(%rsi), %rsi
	movq	(%r8), %r8
	movq	(%rdi), %rdi
	movq	(%rdx), %rdx
	movq	(%rcx), %rcx
	movq	(%rsi), %rsi
	movq	(%r8), %r8
	movq	(%rdi), %rdi
	movq	(%rdx), %rdx
	movq	(%rcx), %rcx
	movq	(%rsi), %rsi
	movq	(%r8), %r8
	movq	(%rdi), %rdi
	movq	(%rdx), %rdx
	movq	(%rcx), %rcx
	movq	(%rsi), %rsi
	movq	(%r8), %r8
	movq	(%rdi), %rdi
	movq	(%rdx), %rdx
	movq	(%rcx), %rcx
	movq	(%rsi), %rsi
	movq	(%r8), %r8
	movq	(%rdi), %rdi
	movq	(%rdx), %rdx
	movq	(%rcx), %rcx
	movq	(%rsi), %rsi
	movq	(%r8), %r8
	movq	(%rdi), %rdi
	movq	(%rdx), %rdx
	movq	(%rcx), %rcx
	movq	(%rsi), %rsi
	movq	(%r8), %r8
	movq	(%rdi), %rdi
	movq	(%rdx), %rdx
	movq	(%rcx), %rcx
	movq	(%rsi), %rsi
	movq	(%r8), %r8
	movq	(%rdi), %rdi
	movq	(%rdx), %rdx
	movq	(%rcx), %rcx
	movq	(%rsi), %rsi
	movq	(%r8), %r8
	movq	(%rdi), %rdi
	movq	(%rdx), %rdx
	movq	(%rcx), %rcx
	movq	(%rsi), %rsi
	movq	(%r8), %r8
	movq	(%rdi), %rdi
	movq	(%rdx), %rdx
	movq	(%rcx), %rcx
	movq	(%rsi), %rsi
	movq	(%r8), %r8
	movq	(%rdi), %rdi
	movq	(%rdx), %rdx
	movq	(%rcx), %rcx
	movq	(%rsi), %rsi
	movq	(%r8), %r8
	movq	(%rdi), %rdi
	movq	(%rdx), %rdx
	movq	(%rcx), %rcx
	movq	(%rsi), %rsi
	movq	(%r8), %r8
	movq	(%rdi), %rdi
	movq	(%rdx), %rdx
	movq	(%rcx), %rcx
	movq	(%rsi), %rsi
	movq	(%r8), %r8
	movq	(%rdi), %rdi
	movq	(%rdx), %rdx
	movq	(%rcx), %rcx
	movq	(%rsi), %rsi
	movq	(%r8), %r8
	movq	(%rdi), %rdi
	movq	(%rdx), %rdx
	movq	(%rcx), %rcx
	movq	(%rsi), %rsi
	movq	(%r8), %r8
	movq	(%rdi), %rdi
	movq	(%rdx), %rdx
	movq	(%rcx), %rcx
	movq	(%rsi), %rsi
	movq	(%r8), %r8
	movq	(%rdi), %rdi
	movq	(%rdx), %rdx
	movq	(%rcx), %rcx
	movq	(%rsi), %rsi
	movq	(%r8), %r8
	movq	(%rdi), %rdi
	movq	(%rdx), %rdx
	movq	(%rcx), %rcx
	movq	(%rsi), %rsi
	movq	(%r8), %r8
	movq	(%rdi), %rdi
	movq	(%rdx), %rdx
	movq	(%rcx), %rcx
	movq	(%rsi), %rsi
	movq	(%r8), %r8
	movq	(%rdi), %rdi
	movq	(%rdx), %rdx
	movq	(%rcx), %rcx
	movq	(%rsi), %rsi
	movq	(%r8), %r8
	movq	(%rdi), %rdi
	movq	(%rdx), %rdx
	movq	(%rcx), %rcx
	movq	(%rsi), %rsi
	movq	(%r8), %r8
	movq	(%rdi), %rdi
	movq	(%rdx), %rdx
	movq	(%rcx), %rcx
	movq	(%rsi), %rsi
	movq	(%r8), %r8
	movq	(%rdi), %rdi
	movq	(%rdx), %rdx
	movq	(%rcx), %rcx
	movq	(%rsi), %rsi
	movq	(%r8), %r8
	movq	(%rdi), %rdi
	movq	(%rdx), %rdx
	movq	(%rcx), %rcx
	movq	(%rsi), %rsi
	movq	(%r8), %r8
	movq	(%rdi), %rdi
	movq	(%rdx), %rdx
	movq	(%rcx), %rcx
	movq	(%rsi), %rsi
	movq	(%r8), %r8
	movq	(%rdi), %rdi
	movq	(%rdx), %rdx
	movq	(%rcx), %rcx
	movq	(%rsi), %rsi
	movq	(%r8), %r8
	movq	(%rdi), %rdi
	movq	(%rdx), %rdx
	movq	(%rcx), %rcx
	movq	(%rsi), %rsi
	movq	(%r8), %r8
	movq	(%rdi), %rdi
	movq	(%rdx), %rdx
	movq	(%rcx), %rcx
	movq	(%rsi), %rsi
	movq	(%r8), %r8
	movq	(%rdi), %rdi
	movq	(%rdx), %rdx
	movq	(%rcx), %rcx
	movq	(%rsi), %rsi
	movq	(%r8), %r8
	movq	(%rdi), %rdi
	movq	(%rdx), %rdx
	movq	(%rcx), %rcx
	movq	(%rsi), %rsi
	movq	(%r8), %r8
	movq	(%rdi), %rdi
	movq	(%rdx), %rdx
	movq	(%rcx), %rcx
	movq	(%rsi), %rsi
	movq	(%r8), %r8
	movq	(%rdi), %rdi
	movq	(%rdx), %rdx
	movq	(%rcx), %rcx
	movq	(%rsi), %rsi
	movq	(%r8), %r8
	movq	(%rdi), %rdi
	movq	(%rdx), %rdx
	movq	(%rcx), %rcx
	movq	(%rsi), %rsi
	movq	(%r8), %r8
	movq	(%rdi), %rdi
	movq	(%rdx), %rdx
	movq	(%rcx), %rcx
	movq	(%rsi), %rsi
	movq	(%r8), %r8
	movq	(%rdi), %rdi
	movq	(%rdx), %rdx
	movq	(%rcx), %rcx
	movq	(%rsi), %rsi
	movq	(%r8), %r8
	movq	(%rdi), %rdi
	movq	(%rdx), %rdx
	movq	(%rcx), %rcx
	movq	(%rsi), %rsi
	movq	(%r8), %r8
	movq	(%rdi), %rdi
	movq	(%rdx), %rdx
	movq	(%rcx), %rcx
	movq	(%rsi), %rsi
	movq	(%r8), %r8
	movq	(%rdi), %rdi
	movq	(%rdx), %rdx
	movq	(%rcx), %rcx
	movq	(%rsi), %rsi
	movq	(%r8), %r8
	movq	(%rdi), %rdi
	movq	(%rdx), %rdx
	movq	(%rcx), %rcx
	movq	(%rsi), %rsi
	movq	(%r8), %r8
	movq	(%rdi), %rdi
	movq	(%rdx), %rdx
	movq	(%rcx), %rcx
	movq	(%rsi), %rsi
	movq	(%r8), %r8
	movq	(%rdi), %rdi
	movq	(%rdx), %rdx
	movq	(%rcx), %rcx
	movq	(%rsi), %rsi
	movq	(%r8), %r8
	movq	(%rdi), %rdi
	movq	(%rdx), %rdx
	movq	(%rcx), %rcx
	movq	(%rsi), %rsi
	movq	(%r8), %r8
	movq	(%rdi), %rdi
	movq	(%rdx), %rdx
	movq	(%rcx), %rcx
	movq	(%rsi), %rsi
	movq	(%r8), %r8
	movq	(%rdi), %rdi
	movq	(%rdx), %rdx
	movq	(%rcx), %rcx
	movq	(%rsi), %rsi
	movq	(%r8), %r8
	movq	(%rdi), %rdi
	movq	(%rdx), %rdx
	movq	(%rcx), %rcx
	movq	(%rsi), %rsi
	movq	(%r8), %r8
	movq	(%rdi), %rdi
	movq	(%rdx), %rdx
	movq	(%rcx), %rcx
	movq	(%rsi), %rsi
	movq	(%r8), %r8
	movq	(%rdi), %rdi
	movq	(%rdx), %rdx
	movq	(%rcx), %rcx
	movq	(%rsi), %rsi
	movq	(%r8), %r8
	movq	(%rdi), %rdi
	movq	(%rdx), %rdx
	movq	(%rcx), %rcx
	movq	(%rsi), %rsi
	movq	(%r8), %r8
	movq	(%rdi), %rdi
	movq	(%rdx), %rdx
	movq	(%rcx), %rcx
	movq	(%rsi), %rsi
	movq	(%r8), %r8
	movq	(%rdi), %rdi
	movq	(%rdx), %rdx
	movq	(%rcx), %rcx
	movq	(%rsi), %rsi
	movq	(%r8), %r8
	movq	(%rdi), %rdi
	movq	(%rdx), %rdx
	movq	(%rcx), %rcx
	movq	(%rsi), %rsi
	movq	(%r8), %r8
	movq	(%rdi), %rdi
	movq	(%rdx), %rdx
	movq	(%rcx), %rcx
	movq	(%rsi), %rsi
	movq	(%r8), %r8
	movq	(%rdi), %rdi
	movq	(%rdx), %rdx
	movq	(%rcx), %rcx
	movq	(%rsi), %rsi
	movq	(%r8), %r8
	movq	(%rdi), %rdi
	movq	(%rdx), %rdx
	movq	(%rcx), %rcx
	movq	(%rsi), %rsi
	movq	(%r8), %r8
	movq	(%rdi), %rdi
	movq	(%rdx), %rdx
	movq	(%rcx), %rcx
	movq	(%rsi), %rsi
	movq	(%r8), %r8
	movq	(%rdi), %rdi
	movq	(%rdx), %rdx
	movq	(%rcx), %rcx
	movq	(%rsi), %rsi
	movq	(%r8), %r8
	movq	(%rdi), %rdi
	movq	(%rdx), %rdx
	movq	(%rcx), %rcx
	movq	(%rsi), %rsi
	movq	(%r8), %r8
	movq	(%rdi), %rdi
	movq	(%rdx), %rdx
	movq	(%rcx), %rcx
	movq	(%rsi), %rsi
	movq	(%r8), %r8
	movq	(%rdi), %rdi
	movq	(%rdx), %rdx
	movq	(%rcx), %rcx
	movq	(%rsi), %rsi
	movq	(%r8), %r8
	movq	(%rdi), %rdi
	movq	(%rdx), %rdx
	movq	(%rcx), %rcx
	movq	(%rsi), %rsi
	movq	(%r8), %r8
	movq	(%rdi), %rdi
	movq	(%rdx), %rdx
	movq	(%rcx), %rcx
	movq	(%rsi), %rsi
	movq	(%r8), %r8
	movq	(%rdi), %rdi
	movq	(%rdx), %rdx
	movq	(%rcx), %rcx
	movq	(%rsi), %rsi
	movq	(%r8), %r8
	movq	(%rdi), %rdi
	movq	(%rdx), %rdx
	movq	(%rcx), %rcx
	movq	(%rsi), %rsi
	movq	(%r8), %r8
	movq	(%rdi), %rdi
	movq	(%rdx), %rdx
	movq	(%rcx), %rcx
	movq	(%rsi), %rsi
	movq	(%r8), %r8
	movq	(%rdi), %rdi
	movq	(%rdx), %rdx
	movq	(%rcx), %rcx
	movq	(%rsi), %rsi
	movq	(%r8), %r8
	movq	(%rdi), %rdi
	movq	(%rdx), %rdx
	movq	(%rcx), %rcx
	movq	(%rsi), %rsi
	movq	(%r8), %r8
	movq	(%rdi), %rdi
	movq	(%rdx), %rdx
	movq	(%rcx), %rcx
	movq	(%rsi), %rsi
	movq	(%r8), %r8
	movq	(%rdi), %rdi
	movq	(%rdx), %rdx
	movq	(%rcx), %rcx
	movq	(%rsi), %rsi
	movq	(%r8), %r8
	movq	(%rdi), %r9
	subq	$1, %rax
	cmpq	$-1, %rax
	jne	.L69
.L70:
	movq	%rdx, sp0.138(%rip)
	movq	%rcx, sp1.137(%rip)
	movq	%rsi, sp2.136(%rip)
	movq	%r8, sp3.135(%rip)
	movq	%r9, sp4.134(%rip)
	movq	(%r10), %rax
	movq	%rax, addr_save.139(%rip)
	movl	$1, mem_benchmark_rerun(%rip)
	ret
	.cfi_endproc
.LFE76:
	.size	mem_benchmark_4, .-mem_benchmark_4
	.globl	mem_benchmark_5
	.type	mem_benchmark_5, @function
mem_benchmark_5:
.LFB77:
	.cfi_startproc
	endbr64
	movq	%rsi, %r11
	movl	mem_benchmark_rerun(%rip), %eax
	testl	%eax, %eax
	je	.L81
	movq	addr_save.133(%rip), %rdx
	cmpq	%rdx, (%rsi)
	je	.L106
	movq	16(%rsi), %rdx
	movq	addr_save.133(%rip), %rcx
	cmpq	%rcx, (%rsi)
	je	.L83
	movq	24(%r11), %rcx
	testl	%eax, %eax
	je	.L84
	movq	addr_save.133(%rip), %rsi
	cmpq	%rsi, (%r11)
	je	.L86
	movq	32(%r11), %rsi
	testl	%eax, %eax
	je	.L87
	movq	addr_save.133(%rip), %r10
	cmpq	%r10, (%r11)
	je	.L98
	movq	40(%r11), %r8
	movq	addr_save.133(%rip), %r10
	cmpq	%r10, (%r11)
	je	.L89
	movq	48(%r11), %r9
	testl	%eax, %eax
	je	.L90
	movq	addr_save.133(%rip), %rax
	cmpq	%rax, (%r11)
	jne	.L90
	jmp	.L92
.L106:
	movq	sp0.132(%rip), %rdx
.L83:
	movq	sp1.131(%rip), %rcx
.L86:
	movq	sp2.130(%rip), %rsi
.L98:
	movq	sp3.129(%rip), %r8
.L89:
	movq	sp4.128(%rip), %r9
.L92:
	movq	sp5.127(%rip), %r10
	jmp	.L95
.L81:
	movq	16(%rsi), %rdx
	movq	24(%rsi), %rcx
.L84:
	movq	32(%r11), %rsi
.L87:
	movq	40(%r11), %r8
	movq	48(%r11), %r9
.L90:
	movq	56(%r11), %r10
.L95:
	leaq	-1(%rdi), %rax
	testq	%rdi, %rdi
	je	.L94
.L93:
	movq	(%rdx), %rdx
	movq	(%rcx), %rcx
	movq	(%rsi), %rsi
	movq	(%r8), %r8
	movq	(%r9), %r9
	movq	(%r10), %rdi
	movq	(%rdx), %rdx
	movq	(%rcx), %rcx
	movq	(%rsi), %rsi
	movq	(%r8), %r8
	movq	(%r9), %r9
	movq	(%rdi), %rdi
	movq	(%rdx), %rdx
	movq	(%rcx), %rcx
	movq	(%rsi), %rsi
	movq	(%r8), %r8
	movq	(%r9), %r9
	movq	(%rdi), %rdi
	movq	(%rdx), %rdx
	movq	(%rcx), %rcx
	movq	(%rsi), %rsi
	movq	(%r8), %r8
	movq	(%r9), %r9
	movq	(%rdi), %rdi
	movq	(%rdx), %rdx
	movq	(%rcx), %rcx
	movq	(%rsi), %rsi
	movq	(%r8), %r8
	movq	(%r9), %r9
	movq	(%rdi), %rdi
	movq	(%rdx), %rdx
	movq	(%rcx), %rcx
	movq	(%rsi), %rsi
	movq	(%r8), %r8
	movq	(%r9), %r9
	movq	(%rdi), %rdi
	movq	(%rdx), %rdx
	movq	(%rcx), %rcx
	movq	(%rsi), %rsi
	movq	(%r8), %r8
	movq	(%r9), %r9
	movq	(%rdi), %rdi
	movq	(%rdx), %rdx
	movq	(%rcx), %rcx
	movq	(%rsi), %rsi
	movq	(%r8), %r8
	movq	(%r9), %r9
	movq	(%rdi), %rdi
	movq	(%rdx), %rdx
	movq	(%rcx), %rcx
	movq	(%rsi), %rsi
	movq	(%r8), %r8
	movq	(%r9), %r9
	movq	(%rdi), %rdi
	movq	(%rdx), %rdx
	movq	(%rcx), %rcx
	movq	(%rsi), %rsi
	movq	(%r8), %r8
	movq	(%r9), %r9
	movq	(%rdi), %rdi
	movq	(%rdx), %rdx
	movq	(%rcx), %rcx
	movq	(%rsi), %rsi
	movq	(%r8), %r8
	movq	(%r9), %r9
	movq	(%rdi), %rdi
	movq	(%rdx), %rdx
	movq	(%rcx), %rcx
	movq	(%rsi), %rsi
	movq	(%r8), %r8
	movq	(%r9), %r9
	movq	(%rdi), %rdi
	movq	(%rdx), %rdx
	movq	(%rcx), %rcx
	movq	(%rsi), %rsi
	movq	(%r8), %r8
	movq	(%r9), %r9
	movq	(%rdi), %rdi
	movq	(%rdx), %rdx
	movq	(%rcx), %rcx
	movq	(%rsi), %rsi
	movq	(%r8), %r8
	movq	(%r9), %r9
	movq	(%rdi), %rdi
	movq	(%rdx), %rdx
	movq	(%rcx), %rcx
	movq	(%rsi), %rsi
	movq	(%r8), %r8
	movq	(%r9), %r9
	movq	(%rdi), %rdi
	movq	(%rdx), %rdx
	movq	(%rcx), %rcx
	movq	(%rsi), %rsi
	movq	(%r8), %r8
	movq	(%r9), %r9
	movq	(%rdi), %rdi
	movq	(%rdx), %rdx
	movq	(%rcx), %rcx
	movq	(%rsi), %rsi
	movq	(%r8), %r8
	movq	(%r9), %r9
	movq	(%rdi), %rdi
	movq	(%rdx), %rdx
	movq	(%rcx), %rcx
	movq	(%rsi), %rsi
	movq	(%r8), %r8
	movq	(%r9), %r9
	movq	(%rdi), %rdi
	movq	(%rdx), %rdx
	movq	(%rcx), %rcx
	movq	(%rsi), %rsi
	movq	(%r8), %r8
	movq	(%r9), %r9
	movq	(%rdi), %rdi
	movq	(%rdx), %rdx
	movq	(%rcx), %rcx
	movq	(%rsi), %rsi
	movq	(%r8), %r8
	movq	(%r9), %r9
	movq	(%rdi), %rdi
	movq	(%rdx), %rdx
	movq	(%rcx), %rcx
	movq	(%rsi), %rsi
	movq	(%r8), %r8
	movq	(%r9), %r9
	movq	(%rdi), %rdi
	movq	(%rdx), %rdx
	movq	(%rcx), %rcx
	movq	(%rsi), %rsi
	movq	(%r8), %r8
	movq	(%r9), %r9
	movq	(%rdi), %rdi
	movq	(%rdx), %rdx
	movq	(%rcx), %rcx
	movq	(%rsi), %rsi
	movq	(%r8), %r8
	movq	(%r9), %r9
	movq	(%rdi), %rdi
	movq	(%rdx), %rdx
	movq	(%rcx), %rcx
	movq	(%rsi), %rsi
	movq	(%r8), %r8
	movq	(%r9), %r9
	movq	(%rdi), %rdi
	movq	(%rdx), %rdx
	movq	(%rcx), %rcx
	movq	(%rsi), %rsi
	movq	(%r8), %r8
	movq	(%r9), %r9
	movq	(%rdi), %rdi
	movq	(%rdx), %rdx
	movq	(%rcx), %rcx
	movq	(%rsi), %rsi
	movq	(%r8), %r8
	movq	(%r9), %r9
	movq	(%rdi), %rdi
	movq	(%rdx), %rdx
	movq	(%rcx), %rcx
	movq	(%rsi), %rsi
	movq	(%r8), %r8
	movq	(%r9), %r9
	movq	(%rdi), %rdi
	movq	(%rdx), %rdx
	movq	(%rcx), %rcx
	movq	(%rsi), %rsi
	movq	(%r8), %r8
	movq	(%r9), %r9
	movq	(%rdi), %rdi
	movq	(%rdx), %rdx
	movq	(%rcx), %rcx
	movq	(%rsi), %rsi
	movq	(%r8), %r8
	movq	(%r9), %r9
	movq	(%rdi), %rdi
	movq	(%rdx), %rdx
	movq	(%rcx), %rcx
	movq	(%rsi), %rsi
	movq	(%r8), %r8
	movq	(%r9), %r9
	movq	(%rdi), %rdi
	movq	(%rdx), %rdx
	movq	(%rcx), %rcx
	movq	(%rsi), %rsi
	movq	(%r8), %r8
	movq	(%r9), %r9
	movq	(%rdi), %rdi
	movq	(%rdx), %rdx
	movq	(%rcx), %rcx
	movq	(%rsi), %rsi
	movq	(%r8), %r8
	movq	(%r9), %r9
	movq	(%rdi), %rdi
	movq	(%rdx), %rdx
	movq	(%rcx), %rcx
	movq	(%rsi), %rsi
	movq	(%r8), %r8
	movq	(%r9), %r9
	movq	(%rdi), %rdi
	movq	(%rdx), %rdx
	movq	(%rcx), %rcx
	movq	(%rsi), %rsi
	movq	(%r8), %r8
	movq	(%r9), %r9
	movq	(%rdi), %rdi
	movq	(%rdx), %rdx
	movq	(%rcx), %rcx
	movq	(%rsi), %rsi
	movq	(%r8), %r8
	movq	(%r9), %r9
	movq	(%rdi), %rdi
	movq	(%rdx), %rdx
	movq	(%rcx), %rcx
	movq	(%rsi), %rsi
	movq	(%r8), %r8
	movq	(%r9), %r9
	movq	(%rdi), %rdi
	movq	(%rdx), %rdx
	movq	(%rcx), %rcx
	movq	(%rsi), %rsi
	movq	(%r8), %r8
	movq	(%r9), %r9
	movq	(%rdi), %rdi
	movq	(%rdx), %rdx
	movq	(%rcx), %rcx
	movq	(%rsi), %rsi
	movq	(%r8), %r8
	movq	(%r9), %r9
	movq	(%rdi), %rdi
	movq	(%rdx), %rdx
	movq	(%rcx), %rcx
	movq	(%rsi), %rsi
	movq	(%r8), %r8
	movq	(%r9), %r9
	movq	(%rdi), %rdi
	movq	(%rdx), %rdx
	movq	(%rcx), %rcx
	movq	(%rsi), %rsi
	movq	(%r8), %r8
	movq	(%r9), %r9
	movq	(%rdi), %rdi
	movq	(%rdx), %rdx
	movq	(%rcx), %rcx
	movq	(%rsi), %rsi
	movq	(%r8), %r8
	movq	(%r9), %r9
	movq	(%rdi), %rdi
	movq	(%rdx), %rdx
	movq	(%rcx), %rcx
	movq	(%rsi), %rsi
	movq	(%r8), %r8
	movq	(%r9), %r9
	movq	(%rdi), %rdi
	movq	(%rdx), %rdx
	movq	(%rcx), %rcx
	movq	(%rsi), %rsi
	movq	(%r8), %r8
	movq	(%r9), %r9
	movq	(%rdi), %rdi
	movq	(%rdx), %rdx
	movq	(%rcx), %rcx
	movq	(%rsi), %rsi
	movq	(%r8), %r8
	movq	(%r9), %r9
	movq	(%rdi), %rdi
	movq	(%rdx), %rdx
	movq	(%rcx), %rcx
	movq	(%rsi), %rsi
	movq	(%r8), %r8
	movq	(%r9), %r9
	movq	(%rdi), %rdi
	movq	(%rdx), %rdx
	movq	(%rcx), %rcx
	movq	(%rsi), %rsi
	movq	(%r8), %r8
	movq	(%r9), %r9
	movq	(%rdi), %rdi
	movq	(%rdx), %rdx
	movq	(%rcx), %rcx
	movq	(%rsi), %rsi
	movq	(%r8), %r8
	movq	(%r9), %r9
	movq	(%rdi), %rdi
	movq	(%rdx), %rdx
	movq	(%rcx), %rcx
	movq	(%rsi), %rsi
	movq	(%r8), %r8
	movq	(%r9), %r9
	movq	(%rdi), %rdi
	movq	(%rdx), %rdx
	movq	(%rcx), %rcx
	movq	(%rsi), %rsi
	movq	(%r8), %r8
	movq	(%r9), %r9
	movq	(%rdi), %rdi
	movq	(%rdx), %rdx
	movq	(%rcx), %rcx
	movq	(%rsi), %rsi
	movq	(%r8), %r8
	movq	(%r9), %r9
	movq	(%rdi), %rdi
	movq	(%rdx), %rdx
	movq	(%rcx), %rcx
	movq	(%rsi), %rsi
	movq	(%r8), %r8
	movq	(%r9), %r9
	movq	(%rdi), %rdi
	movq	(%rdx), %rdx
	movq	(%rcx), %rcx
	movq	(%rsi), %rsi
	movq	(%r8), %r8
	movq	(%r9), %r9
	movq	(%rdi), %rdi
	movq	(%rdx), %rdx
	movq	(%rcx), %rcx
	movq	(%rsi), %rsi
	movq	(%r8), %r8
	movq	(%r9), %r9
	movq	(%rdi), %rdi
	movq	(%rdx), %rdx
	movq	(%rcx), %rcx
	movq	(%rsi), %rsi
	movq	(%r8), %r8
	movq	(%r9), %r9
	movq	(%rdi), %rdi
	movq	(%rdx), %rdx
	movq	(%rcx), %rcx
	movq	(%rsi), %rsi
	movq	(%r8), %r8
	movq	(%r9), %r9
	movq	(%rdi), %rdi
	movq	(%rdx), %rdx
	movq	(%rcx), %rcx
	movq	(%rsi), %rsi
	movq	(%r8), %r8
	movq	(%r9), %r9
	movq	(%rdi), %rdi
	movq	(%rdx), %rdx
	movq	(%rcx), %rcx
	movq	(%rsi), %rsi
	movq	(%r8), %r8
	movq	(%r9), %r9
	movq	(%rdi), %rdi
	movq	(%rdx), %rdx
	movq	(%rcx), %rcx
	movq	(%rsi), %rsi
	movq	(%r8), %r8
	movq	(%r9), %r9
	movq	(%rdi), %rdi
	movq	(%rdx), %rdx
	movq	(%rcx), %rcx
	movq	(%rsi), %rsi
	movq	(%r8), %r8
	movq	(%r9), %r9
	movq	(%rdi), %rdi
	movq	(%rdx), %rdx
	movq	(%rcx), %rcx
	movq	(%rsi), %rsi
	movq	(%r8), %r8
	movq	(%r9), %r9
	movq	(%rdi), %rdi
	movq	(%rdx), %rdx
	movq	(%rcx), %rcx
	movq	(%rsi), %rsi
	movq	(%r8), %r8
	movq	(%r9), %r9
	movq	(%rdi), %rdi
	movq	(%rdx), %rdx
	movq	(%rcx), %rcx
	movq	(%rsi), %rsi
	movq	(%r8), %r8
	movq	(%r9), %r9
	movq	(%rdi), %rdi
	movq	(%rdx), %rdx
	movq	(%rcx), %rcx
	movq	(%rsi), %rsi
	movq	(%r8), %r8
	movq	(%r9), %r9
	movq	(%rdi), %rdi
	movq	(%rdx), %rdx
	movq	(%rcx), %rcx
	movq	(%rsi), %rsi
	movq	(%r8), %r8
	movq	(%r9), %r9
	movq	(%rdi), %rdi
	movq	(%rdx), %rdx
	movq	(%rcx), %rcx
	movq	(%rsi), %rsi
	movq	(%r8), %r8
	movq	(%r9), %r9
	movq	(%rdi), %rdi
	movq	(%rdx), %rdx
	movq	(%rcx), %rcx
	movq	(%rsi), %rsi
	movq	(%r8), %r8
	movq	(%r9), %r9
	movq	(%rdi), %rdi
	movq	(%rdx), %rdx
	movq	(%rcx), %rcx
	movq	(%rsi), %rsi
	movq	(%r8), %r8
	movq	(%r9), %r9
	movq	(%rdi), %rdi
	movq	(%rdx), %rdx
	movq	(%rcx), %rcx
	movq	(%rsi), %rsi
	movq	(%r8), %r8
	movq	(%r9), %r9
	movq	(%rdi), %rdi
	movq	(%rdx), %rdx
	movq	(%rcx), %rcx
	movq	(%rsi), %rsi
	movq	(%r8), %r8
	movq	(%r9), %r9
	movq	(%rdi), %rdi
	movq	(%rdx), %rdx
	movq	(%rcx), %rcx
	movq	(%rsi), %rsi
	movq	(%r8), %r8
	movq	(%r9), %r9
	movq	(%rdi), %rdi
	movq	(%rdx), %rdx
	movq	(%rcx), %rcx
	movq	(%rsi), %rsi
	movq	(%r8), %r8
	movq	(%r9), %r9
	movq	(%rdi), %rdi
	movq	(%rdx), %rdx
	movq	(%rcx), %rcx
	movq	(%rsi), %rsi
	movq	(%r8), %r8
	movq	(%r9), %r9
	movq	(%rdi), %rdi
	movq	(%rdx), %rdx
	movq	(%rcx), %rcx
	movq	(%rsi), %rsi
	movq	(%r8), %r8
	movq	(%r9), %r9
	movq	(%rdi), %rdi
	movq	(%rdx), %rdx
	movq	(%rcx), %rcx
	movq	(%rsi), %rsi
	movq	(%r8), %r8
	movq	(%r9), %r9
	movq	(%rdi), %rdi
	movq	(%rdx), %rdx
	movq	(%rcx), %rcx
	movq	(%rsi), %rsi
	movq	(%r8), %r8
	movq	(%r9), %r9
	movq	(%rdi), %rdi
	movq	(%rdx), %rdx
	movq	(%rcx), %rcx
	movq	(%rsi), %rsi
	movq	(%r8), %r8
	movq	(%r9), %r9
	movq	(%rdi), %rdi
	movq	(%rdx), %rdx
	movq	(%rcx), %rcx
	movq	(%rsi), %rsi
	movq	(%r8), %r8
	movq	(%r9), %r9
	movq	(%rdi), %rdi
	movq	(%rdx), %rdx
	movq	(%rcx), %rcx
	movq	(%rsi), %rsi
	movq	(%r8), %r8
	movq	(%r9), %r9
	movq	(%rdi), %rdi
	movq	(%rdx), %rdx
	movq	(%rcx), %rcx
	movq	(%rsi), %rsi
	movq	(%r8), %r8
	movq	(%r9), %r9
	movq	(%rdi), %rdi
	movq	(%rdx), %rdx
	movq	(%rcx), %rcx
	movq	(%rsi), %rsi
	movq	(%r8), %r8
	movq	(%r9), %r9
	movq	(%rdi), %rdi
	movq	(%rdx), %rdx
	movq	(%rcx), %rcx
	movq	(%rsi), %rsi
	movq	(%r8), %r8
	movq	(%r9), %r9
	movq	(%rdi), %rdi
	movq	(%rdx), %rdx
	movq	(%rcx), %rcx
	movq	(%rsi), %rsi
	movq	(%r8), %r8
	movq	(%r9), %r9
	movq	(%rdi), %rdi
	movq	(%rdx), %rdx
	movq	(%rcx), %rcx
	movq	(%rsi), %rsi
	movq	(%r8), %r8
	movq	(%r9), %r9
	movq	(%rdi), %rdi
	movq	(%rdx), %rdx
	movq	(%rcx), %rcx
	movq	(%rsi), %rsi
	movq	(%r8), %r8
	movq	(%r9), %r9
	movq	(%rdi), %rdi
	movq	(%rdx), %rdx
	movq	(%rcx), %rcx
	movq	(%rsi), %rsi
	movq	(%r8), %r8
	movq	(%r9), %r9
	movq	(%rdi), %rdi
	movq	(%rdx), %rdx
	movq	(%rcx), %rcx
	movq	(%rsi), %rsi
	movq	(%r8), %r8
	movq	(%r9), %r9
	movq	(%rdi), %rdi
	movq	(%rdx), %rdx
	movq	(%rcx), %rcx
	movq	(%rsi), %rsi
	movq	(%r8), %r8
	movq	(%r9), %r9
	movq	(%rdi), %rdi
	movq	(%rdx), %rdx
	movq	(%rcx), %rcx
	movq	(%rsi), %rsi
	movq	(%r8), %r8
	movq	(%r9), %r9
	movq	(%rdi), %rdi
	movq	(%rdx), %rdx
	movq	(%rcx), %rcx
	movq	(%rsi), %rsi
	movq	(%r8), %r8
	movq	(%r9), %r9
	movq	(%rdi), %rdi
	movq	(%rdx), %rdx
	movq	(%rcx), %rcx
	movq	(%rsi), %rsi
	movq	(%r8), %r8
	movq	(%r9), %r9
	movq	(%rdi), %rdi
	movq	(%rdx), %rdx
	movq	(%rcx), %rcx
	movq	(%rsi), %rsi
	movq	(%r8), %r8
	movq	(%r9), %r9
	movq	(%rdi), %rdi
	movq	(%rdx), %rdx
	movq	(%rcx), %rcx
	movq	(%rsi), %rsi
	movq	(%r8), %r8
	movq	(%r9), %r9
	movq	(%rdi), %rdi
	movq	(%rdx), %rdx
	movq	(%rcx), %rcx
	movq	(%rsi), %rsi
	movq	(%r8), %r8
	movq	(%r9), %r9
	movq	(%rdi), %rdi
	movq	(%rdx), %rdx
	movq	(%rcx), %rcx
	movq	(%rsi), %rsi
	movq	(%r8), %r8
	movq	(%r9), %r9
	movq	(%rdi), %rdi
	movq	(%rdx), %rdx
	movq	(%rcx), %rcx
	movq	(%rsi), %rsi
	movq	(%r8), %r8
	movq	(%r9), %r9
	movq	(%rdi), %rdi
	movq	(%rdx), %rdx
	movq	(%rcx), %rcx
	movq	(%rsi), %rsi
	movq	(%r8), %r8
	movq	(%r9), %r9
	movq	(%rdi), %rdi
	movq	(%rdx), %rdx
	movq	(%rcx), %rcx
	movq	(%rsi), %rsi
	movq	(%r8), %r8
	movq	(%r9), %r9
	movq	(%rdi), %rdi
	movq	(%rdx), %rdx
	movq	(%rcx), %rcx
	movq	(%rsi), %rsi
	movq	(%r8), %r8
	movq	(%r9), %r9
	movq	(%rdi), %rdi
	movq	(%rdx), %rdx
	movq	(%rcx), %rcx
	movq	(%rsi), %rsi
	movq	(%r8), %r8
	movq	(%r9), %r9
	movq	(%rdi), %rdi
	movq	(%rdx), %rdx
	movq	(%rcx), %rcx
	movq	(%rsi), %rsi
	movq	(%r8), %r8
	movq	(%r9), %r9
	movq	(%rdi), %r10
	subq	$1, %rax
	cmpq	$-1, %rax
	jne	.L93
.L94:
	movq	%rdx, sp0.132(%rip)
	movq	%rcx, sp1.131(%rip)
	movq	%rsi, sp2.130(%rip)
	movq	%r8, sp3.129(%rip)
	movq	%r9, sp4.128(%rip)
	movq	%r10, sp5.127(%rip)
	movq	(%r11), %rax
	movq	%rax, addr_save.133(%rip)
	movl	$1, mem_benchmark_rerun(%rip)
	ret
	.cfi_endproc
.LFE77:
	.size	mem_benchmark_5, .-mem_benchmark_5
	.globl	mem_benchmark_6
	.type	mem_benchmark_6, @function
mem_benchmark_6:
.LFB78:
	.cfi_startproc
	endbr64
	pushq	%rbx
	.cfi_def_cfa_offset 16
	.cfi_offset 3, -16
	movq	%rsi, %rbx
	movl	mem_benchmark_rerun(%rip), %eax
	testl	%eax, %eax
	je	.L108
	movq	addr_save.126(%rip), %rdx
	cmpq	%rdx, (%rsi)
	je	.L138
	movq	16(%rsi), %rdx
	movq	addr_save.126(%rip), %rcx
	cmpq	%rcx, (%rsi)
	je	.L110
	movq	24(%rbx), %rcx
	testl	%eax, %eax
	je	.L111
	movq	addr_save.126(%rip), %rsi
	cmpq	%rsi, (%rbx)
	je	.L113
	movq	32(%rbx), %rsi
	testl	%eax, %eax
	je	.L114
	movq	addr_save.126(%rip), %r11
	cmpq	%r11, (%rbx)
	je	.L116
	movq	40(%rbx), %r8
	testl	%eax, %eax
	je	.L117
	movq	addr_save.126(%rip), %r11
	cmpq	%r11, (%rbx)
	je	.L128
	movq	48(%rbx), %r9
	movq	addr_save.126(%rip), %r11
	cmpq	%r11, (%rbx)
	je	.L119
	movq	56(%rbx), %r10
	testl	%eax, %eax
	je	.L120
	movq	addr_save.126(%rip), %rax
	cmpq	%rax, (%rbx)
	jne	.L120
	jmp	.L122
.L138:
	movq	sp0.125(%rip), %rdx
.L110:
	movq	sp1.124(%rip), %rcx
.L113:
	movq	sp2.123(%rip), %rsi
.L116:
	movq	sp3.122(%rip), %r8
.L128:
	movq	sp4.121(%rip), %r9
.L119:
	movq	sp5.120(%rip), %r10
.L122:
	movq	sp6.119(%rip), %r11
	jmp	.L125
.L108:
	movq	16(%rsi), %rdx
	movq	24(%rsi), %rcx
.L111:
	movq	32(%rbx), %rsi
.L114:
	movq	40(%rbx), %r8
.L117:
	movq	48(%rbx), %r9
	movq	56(%rbx), %r10
.L120:
	movq	64(%rbx), %r11
.L125:
	leaq	-1(%rdi), %rax
	testq	%rdi, %rdi
	je	.L124
.L123:
	movq	(%rdx), %rdx
	movq	(%rcx), %rcx
	movq	(%rsi), %rsi
	movq	(%r8), %r8
	movq	(%r9), %r9
	movq	(%r10), %r10
	movq	(%r11), %rdi
	movq	(%rdx), %rdx
	movq	(%rcx), %rcx
	movq	(%rsi), %rsi
	movq	(%r8), %r8
	movq	(%r9), %r9
	movq	(%r10), %r10
	movq	(%rdi), %rdi
	movq	(%rdx), %rdx
	movq	(%rcx), %rcx
	movq	(%rsi), %rsi
	movq	(%r8), %r8
	movq	(%r9), %r9
	movq	(%r10), %r10
	movq	(%rdi), %rdi
	movq	(%rdx), %rdx
	movq	(%rcx), %rcx
	movq	(%rsi), %rsi
	movq	(%r8), %r8
	movq	(%r9), %r9
	movq	(%r10), %r10
	movq	(%rdi), %rdi
	movq	(%rdx), %rdx
	movq	(%rcx), %rcx
	movq	(%rsi), %rsi
	movq	(%r8), %r8
	movq	(%r9), %r9
	movq	(%r10), %r10
	movq	(%rdi), %rdi
	movq	(%rdx), %rdx
	movq	(%rcx), %rcx
	movq	(%rsi), %rsi
	movq	(%r8), %r8
	movq	(%r9), %r9
	movq	(%r10), %r10
	movq	(%rdi), %rdi
	movq	(%rdx), %rdx
	movq	(%rcx), %rcx
	movq	(%rsi), %rsi
	movq	(%r8), %r8
	movq	(%r9), %r9
	movq	(%r10), %r10
	movq	(%rdi), %rdi
	movq	(%rdx), %rdx
	movq	(%rcx), %rcx
	movq	(%rsi), %rsi
	movq	(%r8), %r8
	movq	(%r9), %r9
	movq	(%r10), %r10
	movq	(%rdi), %rdi
	movq	(%rdx), %rdx
	movq	(%rcx), %rcx
	movq	(%rsi), %rsi
	movq	(%r8), %r8
	movq	(%r9), %r9
	movq	(%r10), %r10
	movq	(%rdi), %rdi
	movq	(%rdx), %rdx
	movq	(%rcx), %rcx
	movq	(%rsi), %rsi
	movq	(%r8), %r8
	movq	(%r9), %r9
	movq	(%r10), %r10
	movq	(%rdi), %rdi
	movq	(%rdx), %rdx
	movq	(%rcx), %rcx
	movq	(%rsi), %rsi
	movq	(%r8), %r8
	movq	(%r9), %r9
	movq	(%r10), %r10
	movq	(%rdi), %rdi
	movq	(%rdx), %rdx
	movq	(%rcx), %rcx
	movq	(%rsi), %rsi
	movq	(%r8), %r8
	movq	(%r9), %r9
	movq	(%r10), %r10
	movq	(%rdi), %rdi
	movq	(%rdx), %rdx
	movq	(%rcx), %rcx
	movq	(%rsi), %rsi
	movq	(%r8), %r8
	movq	(%r9), %r9
	movq	(%r10), %r10
	movq	(%rdi), %rdi
	movq	(%rdx), %rdx
	movq	(%rcx), %rcx
	movq	(%rsi), %rsi
	movq	(%r8), %r8
	movq	(%r9), %r9
	movq	(%r10), %r10
	movq	(%rdi), %rdi
	movq	(%rdx), %rdx
	movq	(%rcx), %rcx
	movq	(%rsi), %rsi
	movq	(%r8), %r8
	movq	(%r9), %r9
	movq	(%r10), %r10
	movq	(%rdi), %rdi
	movq	(%rdx), %rdx
	movq	(%rcx), %rcx
	movq	(%rsi), %rsi
	movq	(%r8), %r8
	movq	(%r9), %r9
	movq	(%r10), %r10
	movq	(%rdi), %rdi
	movq	(%rdx), %rdx
	movq	(%rcx), %rcx
	movq	(%rsi), %rsi
	movq	(%r8), %r8
	movq	(%r9), %r9
	movq	(%r10), %r10
	movq	(%rdi), %rdi
	movq	(%rdx), %rdx
	movq	(%rcx), %rcx
	movq	(%rsi), %rsi
	movq	(%r8), %r8
	movq	(%r9), %r9
	movq	(%r10), %r10
	movq	(%rdi), %rdi
	movq	(%rdx), %rdx
	movq	(%rcx), %rcx
	movq	(%rsi), %rsi
	movq	(%r8), %r8
	movq	(%r9), %r9
	movq	(%r10), %r10
	movq	(%rdi), %rdi
	movq	(%rdx), %rdx
	movq	(%rcx), %rcx
	movq	(%rsi), %rsi
	movq	(%r8), %r8
	movq	(%r9), %r9
	movq	(%r10), %r10
	movq	(%rdi), %rdi
	movq	(%rdx), %rdx
	movq	(%rcx), %rcx
	movq	(%rsi), %rsi
	movq	(%r8), %r8
	movq	(%r9), %r9
	movq	(%r10), %r10
	movq	(%rdi), %rdi
	movq	(%rdx), %rdx
	movq	(%rcx), %rcx
	movq	(%rsi), %rsi
	movq	(%r8), %r8
	movq	(%r9), %r9
	movq	(%r10), %r10
	movq	(%rdi), %rdi
	movq	(%rdx), %rdx
	movq	(%rcx), %rcx
	movq	(%rsi), %rsi
	movq	(%r8), %r8
	movq	(%r9), %r9
	movq	(%r10), %r10
	movq	(%rdi), %rdi
	movq	(%rdx), %rdx
	movq	(%rcx), %rcx
	movq	(%rsi), %rsi
	movq	(%r8), %r8
	movq	(%r9), %r9
	movq	(%r10), %r10
	movq	(%rdi), %rdi
	movq	(%rdx), %rdx
	movq	(%rcx), %rcx
	movq	(%rsi), %rsi
	movq	(%r8), %r8
	movq	(%r9), %r9
	movq	(%r10), %r10
	movq	(%rdi), %rdi
	movq	(%rdx), %rdx
	movq	(%rcx), %rcx
	movq	(%rsi), %rsi
	movq	(%r8), %r8
	movq	(%r9), %r9
	movq	(%r10), %r10
	movq	(%rdi), %rdi
	movq	(%rdx), %rdx
	movq	(%rcx), %rcx
	movq	(%rsi), %rsi
	movq	(%r8), %r8
	movq	(%r9), %r9
	movq	(%r10), %r10
	movq	(%rdi), %rdi
	movq	(%rdx), %rdx
	movq	(%rcx), %rcx
	movq	(%rsi), %rsi
	movq	(%r8), %r8
	movq	(%r9), %r9
	movq	(%r10), %r10
	movq	(%rdi), %rdi
	movq	(%rdx), %rdx
	movq	(%rcx), %rcx
	movq	(%rsi), %rsi
	movq	(%r8), %r8
	movq	(%r9), %r9
	movq	(%r10), %r10
	movq	(%rdi), %rdi
	movq	(%rdx), %rdx
	movq	(%rcx), %rcx
	movq	(%rsi), %rsi
	movq	(%r8), %r8
	movq	(%r9), %r9
	movq	(%r10), %r10
	movq	(%rdi), %rdi
	movq	(%rdx), %rdx
	movq	(%rcx), %rcx
	movq	(%rsi), %rsi
	movq	(%r8), %r8
	movq	(%r9), %r9
	movq	(%r10), %r10
	movq	(%rdi), %rdi
	movq	(%rdx), %rdx
	movq	(%rcx), %rcx
	movq	(%rsi), %rsi
	movq	(%r8), %r8
	movq	(%r9), %r9
	movq	(%r10), %r10
	movq	(%rdi), %rdi
	movq	(%rdx), %rdx
	movq	(%rcx), %rcx
	movq	(%rsi), %rsi
	movq	(%r8), %r8
	movq	(%r9), %r9
	movq	(%r10), %r10
	movq	(%rdi), %rdi
	movq	(%rdx), %rdx
	movq	(%rcx), %rcx
	movq	(%rsi), %rsi
	movq	(%r8), %r8
	movq	(%r9), %r9
	movq	(%r10), %r10
	movq	(%rdi), %rdi
	movq	(%rdx), %rdx
	movq	(%rcx), %rcx
	movq	(%rsi), %rsi
	movq	(%r8), %r8
	movq	(%r9), %r9
	movq	(%r10), %r10
	movq	(%rdi), %rdi
	movq	(%rdx), %rdx
	movq	(%rcx), %rcx
	movq	(%rsi), %rsi
	movq	(%r8), %r8
	movq	(%r9), %r9
	movq	(%r10), %r10
	movq	(%rdi), %rdi
	movq	(%rdx), %rdx
	movq	(%rcx), %rcx
	movq	(%rsi), %rsi
	movq	(%r8), %r8
	movq	(%r9), %r9
	movq	(%r10), %r10
	movq	(%rdi), %rdi
	movq	(%rdx), %rdx
	movq	(%rcx), %rcx
	movq	(%rsi), %rsi
	movq	(%r8), %r8
	movq	(%r9), %r9
	movq	(%r10), %r10
	movq	(%rdi), %rdi
	movq	(%rdx), %rdx
	movq	(%rcx), %rcx
	movq	(%rsi), %rsi
	movq	(%r8), %r8
	movq	(%r9), %r9
	movq	(%r10), %r10
	movq	(%rdi), %rdi
	movq	(%rdx), %rdx
	movq	(%rcx), %rcx
	movq	(%rsi), %rsi
	movq	(%r8), %r8
	movq	(%r9), %r9
	movq	(%r10), %r10
	movq	(%rdi), %rdi
	movq	(%rdx), %rdx
	movq	(%rcx), %rcx
	movq	(%rsi), %rsi
	movq	(%r8), %r8
	movq	(%r9), %r9
	movq	(%r10), %r10
	movq	(%rdi), %rdi
	movq	(%rdx), %rdx
	movq	(%rcx), %rcx
	movq	(%rsi), %rsi
	movq	(%r8), %r8
	movq	(%r9), %r9
	movq	(%r10), %r10
	movq	(%rdi), %rdi
	movq	(%rdx), %rdx
	movq	(%rcx), %rcx
	movq	(%rsi), %rsi
	movq	(%r8), %r8
	movq	(%r9), %r9
	movq	(%r10), %r10
	movq	(%rdi), %rdi
	movq	(%rdx), %rdx
	movq	(%rcx), %rcx
	movq	(%rsi), %rsi
	movq	(%r8), %r8
	movq	(%r9), %r9
	movq	(%r10), %r10
	movq	(%rdi), %rdi
	movq	(%rdx), %rdx
	movq	(%rcx), %rcx
	movq	(%rsi), %rsi
	movq	(%r8), %r8
	movq	(%r9), %r9
	movq	(%r10), %r10
	movq	(%rdi), %rdi
	movq	(%rdx), %rdx
	movq	(%rcx), %rcx
	movq	(%rsi), %rsi
	movq	(%r8), %r8
	movq	(%r9), %r9
	movq	(%r10), %r10
	movq	(%rdi), %rdi
	movq	(%rdx), %rdx
	movq	(%rcx), %rcx
	movq	(%rsi), %rsi
	movq	(%r8), %r8
	movq	(%r9), %r9
	movq	(%r10), %r10
	movq	(%rdi), %rdi
	movq	(%rdx), %rdx
	movq	(%rcx), %rcx
	movq	(%rsi), %rsi
	movq	(%r8), %r8
	movq	(%r9), %r9
	movq	(%r10), %r10
	movq	(%rdi), %rdi
	movq	(%rdx), %rdx
	movq	(%rcx), %rcx
	movq	(%rsi), %rsi
	movq	(%r8), %r8
	movq	(%r9), %r9
	movq	(%r10), %r10
	movq	(%rdi), %rdi
	movq	(%rdx), %rdx
	movq	(%rcx), %rcx
	movq	(%rsi), %rsi
	movq	(%r8), %r8
	movq	(%r9), %r9
	movq	(%r10), %r10
	movq	(%rdi), %rdi
	movq	(%rdx), %rdx
	movq	(%rcx), %rcx
	movq	(%rsi), %rsi
	movq	(%r8), %r8
	movq	(%r9), %r9
	movq	(%r10), %r10
	movq	(%rdi), %rdi
	movq	(%rdx), %rdx
	movq	(%rcx), %rcx
	movq	(%rsi), %rsi
	movq	(%r8), %r8
	movq	(%r9), %r9
	movq	(%r10), %r10
	movq	(%rdi), %rdi
	movq	(%rdx), %rdx
	movq	(%rcx), %rcx
	movq	(%rsi), %rsi
	movq	(%r8), %r8
	movq	(%r9), %r9
	movq	(%r10), %r10
	movq	(%rdi), %rdi
	movq	(%rdx), %rdx
	movq	(%rcx), %rcx
	movq	(%rsi), %rsi
	movq	(%r8), %r8
	movq	(%r9), %r9
	movq	(%r10), %r10
	movq	(%rdi), %rdi
	movq	(%rdx), %rdx
	movq	(%rcx), %rcx
	movq	(%rsi), %rsi
	movq	(%r8), %r8
	movq	(%r9), %r9
	movq	(%r10), %r10
	movq	(%rdi), %rdi
	movq	(%rdx), %rdx
	movq	(%rcx), %rcx
	movq	(%rsi), %rsi
	movq	(%r8), %r8
	movq	(%r9), %r9
	movq	(%r10), %r10
	movq	(%rdi), %rdi
	movq	(%rdx), %rdx
	movq	(%rcx), %rcx
	movq	(%rsi), %rsi
	movq	(%r8), %r8
	movq	(%r9), %r9
	movq	(%r10), %r10
	movq	(%rdi), %rdi
	movq	(%rdx), %rdx
	movq	(%rcx), %rcx
	movq	(%rsi), %rsi
	movq	(%r8), %r8
	movq	(%r9), %r9
	movq	(%r10), %r10
	movq	(%rdi), %rdi
	movq	(%rdx), %rdx
	movq	(%rcx), %rcx
	movq	(%rsi), %rsi
	movq	(%r8), %r8
	movq	(%r9), %r9
	movq	(%r10), %r10
	movq	(%rdi), %rdi
	movq	(%rdx), %rdx
	movq	(%rcx), %rcx
	movq	(%rsi), %rsi
	movq	(%r8), %r8
	movq	(%r9), %r9
	movq	(%r10), %r10
	movq	(%rdi), %rdi
	movq	(%rdx), %rdx
	movq	(%rcx), %rcx
	movq	(%rsi), %rsi
	movq	(%r8), %r8
	movq	(%r9), %r9
	movq	(%r10), %r10
	movq	(%rdi), %rdi
	movq	(%rdx), %rdx
	movq	(%rcx), %rcx
	movq	(%rsi), %rsi
	movq	(%r8), %r8
	movq	(%r9), %r9
	movq	(%r10), %r10
	movq	(%rdi), %rdi
	movq	(%rdx), %rdx
	movq	(%rcx), %rcx
	movq	(%rsi), %rsi
	movq	(%r8), %r8
	movq	(%r9), %r9
	movq	(%r10), %r10
	movq	(%rdi), %rdi
	movq	(%rdx), %rdx
	movq	(%rcx), %rcx
	movq	(%rsi), %rsi
	movq	(%r8), %r8
	movq	(%r9), %r9
	movq	(%r10), %r10
	movq	(%rdi), %rdi
	movq	(%rdx), %rdx
	movq	(%rcx), %rcx
	movq	(%rsi), %rsi
	movq	(%r8), %r8
	movq	(%r9), %r9
	movq	(%r10), %r10
	movq	(%rdi), %rdi
	movq	(%rdx), %rdx
	movq	(%rcx), %rcx
	movq	(%rsi), %rsi
	movq	(%r8), %r8
	movq	(%r9), %r9
	movq	(%r10), %r10
	movq	(%rdi), %rdi
	movq	(%rdx), %rdx
	movq	(%rcx), %rcx
	movq	(%rsi), %rsi
	movq	(%r8), %r8
	movq	(%r9), %r9
	movq	(%r10), %r10
	movq	(%rdi), %rdi
	movq	(%rdx), %rdx
	movq	(%rcx), %rcx
	movq	(%rsi), %rsi
	movq	(%r8), %r8
	movq	(%r9), %r9
	movq	(%r10), %r10
	movq	(%rdi), %rdi
	movq	(%rdx), %rdx
	movq	(%rcx), %rcx
	movq	(%rsi), %rsi
	movq	(%r8), %r8
	movq	(%r9), %r9
	movq	(%r10), %r10
	movq	(%rdi), %rdi
	movq	(%rdx), %rdx
	movq	(%rcx), %rcx
	movq	(%rsi), %rsi
	movq	(%r8), %r8
	movq	(%r9), %r9
	movq	(%r10), %r10
	movq	(%rdi), %rdi
	movq	(%rdx), %rdx
	movq	(%rcx), %rcx
	movq	(%rsi), %rsi
	movq	(%r8), %r8
	movq	(%r9), %r9
	movq	(%r10), %r10
	movq	(%rdi), %rdi
	movq	(%rdx), %rdx
	movq	(%rcx), %rcx
	movq	(%rsi), %rsi
	movq	(%r8), %r8
	movq	(%r9), %r9
	movq	(%r10), %r10
	movq	(%rdi), %rdi
	movq	(%rdx), %rdx
	movq	(%rcx), %rcx
	movq	(%rsi), %rsi
	movq	(%r8), %r8
	movq	(%r9), %r9
	movq	(%r10), %r10
	movq	(%rdi), %rdi
	movq	(%rdx), %rdx
	movq	(%rcx), %rcx
	movq	(%rsi), %rsi
	movq	(%r8), %r8
	movq	(%r9), %r9
	movq	(%r10), %r10
	movq	(%rdi), %rdi
	movq	(%rdx), %rdx
	movq	(%rcx), %rcx
	movq	(%rsi), %rsi
	movq	(%r8), %r8
	movq	(%r9), %r9
	movq	(%r10), %r10
	movq	(%rdi), %rdi
	movq	(%rdx), %rdx
	movq	(%rcx), %rcx
	movq	(%rsi), %rsi
	movq	(%r8), %r8
	movq	(%r9), %r9
	movq	(%r10), %r10
	movq	(%rdi), %rdi
	movq	(%rdx), %rdx
	movq	(%rcx), %rcx
	movq	(%rsi), %rsi
	movq	(%r8), %r8
	movq	(%r9), %r9
	movq	(%r10), %r10
	movq	(%rdi), %rdi
	movq	(%rdx), %rdx
	movq	(%rcx), %rcx
	movq	(%rsi), %rsi
	movq	(%r8), %r8
	movq	(%r9), %r9
	movq	(%r10), %r10
	movq	(%rdi), %rdi
	movq	(%rdx), %rdx
	movq	(%rcx), %rcx
	movq	(%rsi), %rsi
	movq	(%r8), %r8
	movq	(%r9), %r9
	movq	(%r10), %r10
	movq	(%rdi), %rdi
	movq	(%rdx), %rdx
	movq	(%rcx), %rcx
	movq	(%rsi), %rsi
	movq	(%r8), %r8
	movq	(%r9), %r9
	movq	(%r10), %r10
	movq	(%rdi), %rdi
	movq	(%rdx), %rdx
	movq	(%rcx), %rcx
	movq	(%rsi), %rsi
	movq	(%r8), %r8
	movq	(%r9), %r9
	movq	(%r10), %r10
	movq	(%rdi), %rdi
	movq	(%rdx), %rdx
	movq	(%rcx), %rcx
	movq	(%rsi), %rsi
	movq	(%r8), %r8
	movq	(%r9), %r9
	movq	(%r10), %r10
	movq	(%rdi), %rdi
	movq	(%rdx), %rdx
	movq	(%rcx), %rcx
	movq	(%rsi), %rsi
	movq	(%r8), %r8
	movq	(%r9), %r9
	movq	(%r10), %r10
	movq	(%rdi), %rdi
	movq	(%rdx), %rdx
	movq	(%rcx), %rcx
	movq	(%rsi), %rsi
	movq	(%r8), %r8
	movq	(%r9), %r9
	movq	(%r10), %r10
	movq	(%rdi), %rdi
	movq	(%rdx), %rdx
	movq	(%rcx), %rcx
	movq	(%rsi), %rsi
	movq	(%r8), %r8
	movq	(%r9), %r9
	movq	(%r10), %r10
	movq	(%rdi), %rdi
	movq	(%rdx), %rdx
	movq	(%rcx), %rcx
	movq	(%rsi), %rsi
	movq	(%r8), %r8
	movq	(%r9), %r9
	movq	(%r10), %r10
	movq	(%rdi), %rdi
	movq	(%rdx), %rdx
	movq	(%rcx), %rcx
	movq	(%rsi), %rsi
	movq	(%r8), %r8
	movq	(%r9), %r9
	movq	(%r10), %r10
	movq	(%rdi), %rdi
	movq	(%rdx), %rdx
	movq	(%rcx), %rcx
	movq	(%rsi), %rsi
	movq	(%r8), %r8
	movq	(%r9), %r9
	movq	(%r10), %r10
	movq	(%rdi), %rdi
	movq	(%rdx), %rdx
	movq	(%rcx), %rcx
	movq	(%rsi), %rsi
	movq	(%r8), %r8
	movq	(%r9), %r9
	movq	(%r10), %r10
	movq	(%rdi), %rdi
	movq	(%rdx), %rdx
	movq	(%rcx), %rcx
	movq	(%rsi), %rsi
	movq	(%r8), %r8
	movq	(%r9), %r9
	movq	(%r10), %r10
	movq	(%rdi), %rdi
	movq	(%rdx), %rdx
	movq	(%rcx), %rcx
	movq	(%rsi), %rsi
	movq	(%r8), %r8
	movq	(%r9), %r9
	movq	(%r10), %r10
	movq	(%rdi), %rdi
	movq	(%rdx), %rdx
	movq	(%rcx), %rcx
	movq	(%rsi), %rsi
	movq	(%r8), %r8
	movq	(%r9), %r9
	movq	(%r10), %r10
	movq	(%rdi), %rdi
	movq	(%rdx), %rdx
	movq	(%rcx), %rcx
	movq	(%rsi), %rsi
	movq	(%r8), %r8
	movq	(%r9), %r9
	movq	(%r10), %r10
	movq	(%rdi), %rdi
	movq	(%rdx), %rdx
	movq	(%rcx), %rcx
	movq	(%rsi), %rsi
	movq	(%r8), %r8
	movq	(%r9), %r9
	movq	(%r10), %r10
	movq	(%rdi), %rdi
	movq	(%rdx), %rdx
	movq	(%rcx), %rcx
	movq	(%rsi), %rsi
	movq	(%r8), %r8
	movq	(%r9), %r9
	movq	(%r10), %r10
	movq	(%rdi), %rdi
	movq	(%rdx), %rdx
	movq	(%rcx), %rcx
	movq	(%rsi), %rsi
	movq	(%r8), %r8
	movq	(%r9), %r9
	movq	(%r10), %r10
	movq	(%rdi), %rdi
	movq	(%rdx), %rdx
	movq	(%rcx), %rcx
	movq	(%rsi), %rsi
	movq	(%r8), %r8
	movq	(%r9), %r9
	movq	(%r10), %r10
	movq	(%rdi), %rdi
	movq	(%rdx), %rdx
	movq	(%rcx), %rcx
	movq	(%rsi), %rsi
	movq	(%r8), %r8
	movq	(%r9), %r9
	movq	(%r10), %r10
	movq	(%rdi), %rdi
	movq	(%rdx), %rdx
	movq	(%rcx), %rcx
	movq	(%rsi), %rsi
	movq	(%r8), %r8
	movq	(%r9), %r9
	movq	(%r10), %r10
	movq	(%rdi), %rdi
	movq	(%rdx), %rdx
	movq	(%rcx), %rcx
	movq	(%rsi), %rsi
	movq	(%r8), %r8
	movq	(%r9), %r9
	movq	(%r10), %r10
	movq	(%rdi), %r11
	subq	$1, %rax
	cmpq	$-1, %rax
	jne	.L123
.L124:
	movq	%rdx, sp0.125(%rip)
	movq	%rcx, sp1.124(%rip)
	movq	%rsi, sp2.123(%rip)
	movq	%r8, sp3.122(%rip)
	movq	%r9, sp4.121(%rip)
	movq	%r10, sp5.120(%rip)
	movq	%r11, sp6.119(%rip)
	movq	(%rbx), %rax
	movq	%rax, addr_save.126(%rip)
	movl	$1, mem_benchmark_rerun(%rip)
	popq	%rbx
	.cfi_def_cfa_offset 8
	ret
	.cfi_endproc
.LFE78:
	.size	mem_benchmark_6, .-mem_benchmark_6
	.globl	mem_benchmark_7
	.type	mem_benchmark_7, @function
mem_benchmark_7:
.LFB79:
	.cfi_startproc
	endbr64
	pushq	%r12
	.cfi_def_cfa_offset 16
	.cfi_offset 12, -16
	pushq	%rbp
	.cfi_def_cfa_offset 24
	.cfi_offset 6, -24
	pushq	%rbx
	.cfi_def_cfa_offset 32
	.cfi_offset 3, -32
	movq	%rsi, %r12
	movl	mem_benchmark_rerun(%rip), %eax
	testl	%eax, %eax
	je	.L140
	movq	addr_save.118(%rip), %rbx
	movq	sp0.117(%rip), %rdx
	cmpq	%rbx, (%rsi)
	je	.L142
	movq	16(%rsi), %rdx
	movq	addr_save.118(%rip), %rbx
	cmpq	%rbx, (%rsi)
	je	.L142
	movq	24(%r12), %rcx
	testl	%eax, %eax
	je	.L143
	movq	addr_save.118(%rip), %rbx
	cmpq	%rbx, (%r12)
	je	.L145
	movq	32(%r12), %rsi
	testl	%eax, %eax
	je	.L146
	movq	addr_save.118(%rip), %rbx
	cmpq	%rbx, (%r12)
	je	.L148
	movq	40(%r12), %r8
	testl	%eax, %eax
	je	.L149
	movq	addr_save.118(%rip), %rbx
	cmpq	%rbx, (%r12)
	je	.L163
	movq	48(%r12), %r9
	movq	addr_save.118(%rip), %rbx
	cmpq	%rbx, (%r12)
	je	.L151
	movq	56(%r12), %r10
	testl	%eax, %eax
	je	.L152
	movq	addr_save.118(%rip), %rax
	cmpq	%rax, (%r12)
	je	.L160
	movq	64(%r12), %r11
	movq	addr_save.118(%rip), %rax
	cmpq	%rax, (%r12)
	jne	.L158
	jmp	.L154
.L142:
	movq	sp1.116(%rip), %rcx
.L145:
	movq	sp2.115(%rip), %rsi
.L148:
	movq	sp3.114(%rip), %r8
.L163:
	movq	sp4.113(%rip), %r9
.L151:
	movq	sp5.112(%rip), %r10
.L160:
	movq	sp6.111(%rip), %r11
.L154:
	movq	sp7.110(%rip), %rbx
	jmp	.L157
.L140:
	movq	16(%rsi), %rdx
	movq	24(%rsi), %rcx
.L143:
	movq	32(%r12), %rsi
.L146:
	movq	40(%r12), %r8
.L149:
	movq	48(%r12), %r9
	movq	56(%r12), %r10
.L152:
	movq	64(%r12), %r11
.L158:
	movq	72(%r12), %rbx
.L157:
	leaq	-1(%rdi), %rax
	testq	%rdi, %rdi
	je	.L156
.L155:
	movq	(%rdx), %rdx
	movq	(%rcx), %rcx
	movq	(%rsi), %rsi
	movq	(%r8), %r8
	movq	(%r9), %r9
	movq	(%r10), %r10
	movq	(%r11), %rdi
	movq	(%rbx), %r11
	movq	(%rdx), %rdx
	movq	(%rcx), %rcx
	movq	(%rsi), %rsi
	movq	(%r8), %r8
	movq	(%r9), %r9
	movq	(%r10), %r10
	movq	(%rdi), %rbx
	movq	(%r11), %rdi
	movq	(%rdx), %rdx
	movq	(%rcx), %rcx
	movq	(%rsi), %rsi
	movq	(%r8), %r8
	movq	(%r9), %r9
	movq	(%r10), %r11
	movq	(%rbx), %r10
	movq	(%rdi), %rdi
	movq	(%rdx), %rdx
	movq	(%rcx), %rcx
	movq	(%rsi), %rsi
	movq	(%r8), %r8
	movq	(%r9), %rbx
	movq	(%r11), %r9
	movq	(%r10), %r10
	movq	(%rdi), %rdi
	movq	(%rdx), %rdx
	movq	(%rcx), %rcx
	movq	(%rsi), %rsi
	movq	(%r8), %r11
	movq	(%rbx), %r8
	movq	(%r9), %r9
	movq	(%r10), %r10
	movq	(%rdi), %rdi
	movq	(%rdx), %rdx
	movq	(%rcx), %rcx
	movq	(%rsi), %rbx
	movq	(%r11), %rsi
	movq	(%r8), %r8
	movq	(%r9), %r9
	movq	(%r10), %r10
	movq	(%rdi), %rdi
	movq	(%rdx), %rdx
	movq	(%rcx), %r11
	movq	(%rbx), %rcx
	movq	(%rsi), %rsi
	movq	(%r8), %r8
	movq	(%r9), %r9
	movq	(%r10), %r10
	movq	(%rdi), %rdi
	movq	(%rdx), %rbx
	movq	(%r11), %rdx
	movq	(%rcx), %rcx
	movq	(%rsi), %rsi
	movq	(%r8), %r8
	movq	(%r9), %r9
	movq	(%r10), %r10
	movq	(%rdi), %r11
	movq	(%rbx), %rdi
	movq	(%rdx), %rdx
	movq	(%rcx), %rcx
	movq	(%rsi), %rsi
	movq	(%r8), %r8
	movq	(%r9), %r9
	movq	(%r10), %rbx
	movq	(%r11), %r10
	movq	(%rdi), %rdi
	movq	(%rdx), %rdx
	movq	(%rcx), %rcx
	movq	(%rsi), %rsi
	movq	(%r8), %r8
	movq	(%r9), %r11
	movq	(%rbx), %r9
	movq	(%r10), %r10
	movq	(%rdi), %rdi
	movq	(%rdx), %rdx
	movq	(%rcx), %rcx
	movq	(%rsi), %rsi
	movq	(%r8), %rbx
	movq	(%r11), %r8
	movq	(%r9), %r9
	movq	(%r10), %r10
	movq	(%rdi), %rdi
	movq	(%rdx), %rdx
	movq	(%rcx), %rcx
	movq	(%rsi), %r11
	movq	(%rbx), %rsi
	movq	(%r8), %r8
	movq	(%r9), %r9
	movq	(%r10), %r10
	movq	(%rdi), %rdi
	movq	(%rdx), %rdx
	movq	(%rcx), %rbx
	movq	(%r11), %rcx
	movq	(%rsi), %rsi
	movq	(%r8), %r8
	movq	(%r9), %r9
	movq	(%r10), %r10
	movq	(%rdi), %rdi
	movq	(%rdx), %r11
	movq	(%rbx), %rdx
	movq	(%rcx), %rcx
	movq	(%rsi), %rsi
	movq	(%r8), %r8
	movq	(%r9), %r9
	movq	(%r10), %r10
	movq	(%rdi), %rbx
	movq	(%r11), %rdi
	movq	(%rdx), %rdx
	movq	(%rcx), %rcx
	movq	(%rsi), %rsi
	movq	(%r8), %r8
	movq	(%r9), %r9
	movq	(%r10), %r11
	movq	(%rbx), %r10
	movq	(%rdi), %rdi
	movq	(%rdx), %rdx
	movq	(%rcx), %rcx
	movq	(%rsi), %rsi
	movq	(%r8), %r8
	movq	(%r9), %rbx
	movq	(%r11), %r9
	movq	(%r10), %r10
	movq	(%rdi), %rdi
	movq	(%rdx), %rdx
	movq	(%rcx), %rcx
	movq	(%rsi), %rsi
	movq	(%r8), %r11
	movq	(%rbx), %r8
	movq	(%r9), %r9
	movq	(%r10), %r10
	movq	(%rdi), %rdi
	movq	(%rdx), %rdx
	movq	(%rcx), %rcx
	movq	(%rsi), %rbx
	movq	(%r11), %rsi
	movq	(%r8), %r8
	movq	(%r9), %r9
	movq	(%r10), %r10
	movq	(%rdi), %rdi
	movq	(%rdx), %rdx
	movq	(%rcx), %r11
	movq	(%rbx), %rcx
	movq	(%rsi), %rsi
	movq	(%r8), %r8
	movq	(%r9), %r9
	movq	(%r10), %r10
	movq	(%rdi), %rdi
	movq	(%rdx), %rbx
	movq	(%r11), %rdx
	movq	(%rcx), %rcx
	movq	(%rsi), %rsi
	movq	(%r8), %r8
	movq	(%r9), %r9
	movq	(%r10), %r10
	movq	(%rdi), %r11
	movq	(%rbx), %rdi
	movq	(%rdx), %rdx
	movq	(%rcx), %rcx
	movq	(%rsi), %rsi
	movq	(%r8), %r8
	movq	(%r9), %r9
	movq	(%r10), %rbx
	movq	(%r11), %r10
	movq	(%rdi), %rdi
	movq	(%rdx), %rdx
	movq	(%rcx), %rcx
	movq	(%rsi), %rsi
	movq	(%r8), %r8
	movq	(%r9), %r11
	movq	(%rbx), %r9
	movq	(%r10), %r10
	movq	(%rdi), %rdi
	movq	(%rdx), %rdx
	movq	(%rcx), %rcx
	movq	(%rsi), %rsi
	movq	(%r8), %rbx
	movq	(%r11), %r8
	movq	(%r9), %r9
	movq	(%r10), %r10
	movq	(%rdi), %rdi
	movq	(%rdx), %rdx
	movq	(%rcx), %rcx
	movq	(%rsi), %r11
	movq	(%rbx), %rsi
	movq	(%r8), %r8
	movq	(%r9), %r9
	movq	(%r10), %r10
	movq	(%rdi), %rdi
	movq	(%rdx), %rdx
	movq	(%rcx), %rbx
	movq	(%r11), %rcx
	movq	(%rsi), %rsi
	movq	(%r8), %r8
	movq	(%r9), %r9
	movq	(%r10), %r10
	movq	(%rdi), %rdi
	movq	(%rdx), %r11
	movq	(%rbx), %rdx
	movq	(%rcx), %rcx
	movq	(%rsi), %rsi
	movq	(%r8), %r8
	movq	(%r9), %r9
	movq	(%r10), %r10
	movq	(%rdi), %rbx
	movq	(%r11), %rdi
	movq	(%rdx), %rdx
	movq	(%rcx), %rcx
	movq	(%rsi), %rsi
	movq	(%r8), %r8
	movq	(%r9), %r9
	movq	(%r10), %r11
	movq	(%rbx), %r10
	movq	(%rdi), %rdi
	movq	(%rdx), %rdx
	movq	(%rcx), %rcx
	movq	(%rsi), %rsi
	movq	(%r8), %r8
	movq	(%r9), %rbx
	movq	(%r11), %r9
	movq	(%r10), %r10
	movq	(%rdi), %rdi
	movq	(%rdx), %rdx
	movq	(%rcx), %rcx
	movq	(%rsi), %rsi
	movq	(%r8), %r11
	movq	(%rbx), %r8
	movq	(%r9), %r9
	movq	(%r10), %r10
	movq	(%rdi), %rdi
	movq	(%rdx), %rdx
	movq	(%rcx), %rcx
	movq	(%rsi), %rbx
	movq	(%r11), %rsi
	movq	(%r8), %r8
	movq	(%r9), %r9
	movq	(%r10), %r10
	movq	(%rdi), %rdi
	movq	(%rdx), %rdx
	movq	(%rcx), %r11
	movq	(%rbx), %rcx
	movq	(%rsi), %rsi
	movq	(%r8), %r8
	movq	(%r9), %r9
	movq	(%r10), %r10
	movq	(%rdi), %rdi
	movq	(%rdx), %rbx
	movq	(%r11), %rdx
	movq	(%rcx), %rcx
	movq	(%rsi), %rsi
	movq	(%r8), %r8
	movq	(%r9), %r9
	movq	(%r10), %r10
	movq	(%rdi), %r11
	movq	(%rbx), %rdi
	movq	(%rdx), %rdx
	movq	(%rcx), %rcx
	movq	(%rsi), %rsi
	movq	(%r8), %r8
	movq	(%r9), %r9
	movq	(%r10), %rbx
	movq	(%r11), %r10
	movq	(%rdi), %rdi
	movq	(%rdx), %rdx
	movq	(%rcx), %rcx
	movq	(%rsi), %rsi
	movq	(%r8), %r8
	movq	(%r9), %r11
	movq	(%rbx), %r9
	movq	(%r10), %r10
	movq	(%rdi), %rdi
	movq	(%rdx), %rdx
	movq	(%rcx), %rcx
	movq	(%rsi), %rsi
	movq	(%r8), %rbx
	movq	(%r11), %r8
	movq	(%r9), %r9
	movq	(%r10), %r10
	movq	(%rdi), %rdi
	movq	(%rdx), %rdx
	movq	(%rcx), %rcx
	movq	(%rsi), %r11
	movq	(%rbx), %rsi
	movq	(%r8), %r8
	movq	(%r9), %r9
	movq	(%r10), %r10
	movq	(%rdi), %rdi
	movq	(%rdx), %rdx
	movq	(%rcx), %rbx
	movq	(%r11), %rcx
	movq	(%rsi), %rsi
	movq	(%r8), %r8
	movq	(%r9), %r9
	movq	(%r10), %r10
	movq	(%rdi), %rdi
	movq	(%rdx), %r11
	movq	(%rbx), %rdx
	movq	(%rcx), %rcx
	movq	(%rsi), %rsi
	movq	(%r8), %r8
	movq	(%r9), %r9
	movq	(%r10), %r10
	movq	(%rdi), %rbx
	movq	(%r11), %rdi
	movq	(%rdx), %rdx
	movq	(%rcx), %rcx
	movq	(%rsi), %rsi
	movq	(%r8), %r8
	movq	(%r9), %r9
	movq	(%r10), %r11
	movq	(%rbx), %r10
	movq	(%rdi), %rdi
	movq	(%rdx), %rdx
	movq	(%rcx), %rcx
	movq	(%rsi), %rsi
	movq	(%r8), %r8
	movq	(%r9), %rbx
	movq	(%r11), %r9
	movq	(%r10), %r10
	movq	(%rdi), %rdi
	movq	(%rdx), %rdx
	movq	(%rcx), %rcx
	movq	(%rsi), %rsi
	movq	(%r8), %r11
	movq	(%rbx), %r8
	movq	(%r9), %r9
	movq	(%r10), %r10
	movq	(%rdi), %rdi
	movq	(%rdx), %rdx
	movq	(%rcx), %rcx
	movq	(%rsi), %rbx
	movq	(%r11), %rsi
	movq	(%r8), %r8
	movq	(%r9), %r9
	movq	(%r10), %r10
	movq	(%rdi), %rdi
	movq	(%rdx), %rdx
	movq	(%rcx), %r11
	movq	(%rbx), %rcx
	movq	(%rsi), %rsi
	movq	(%r8), %r8
	movq	(%r9), %r9
	movq	(%r10), %r10
	movq	(%rdi), %rdi
	movq	(%rdx), %rbx
	movq	(%r11), %rdx
	movq	(%rcx), %rcx
	movq	(%rsi), %rsi
	movq	(%r8), %r8
	movq	(%r9), %r9
	movq	(%r10), %r10
	movq	(%rdi), %r11
	movq	(%rbx), %rdi
	movq	(%rdx), %rdx
	movq	(%rcx), %rcx
	movq	(%rsi), %rsi
	movq	(%r8), %r8
	movq	(%r9), %r9
	movq	(%r10), %rbx
	movq	(%r11), %r10
	movq	(%rdi), %rdi
	movq	(%rdx), %rdx
	movq	(%rcx), %rcx
	movq	(%rsi), %rsi
	movq	(%r8), %r8
	movq	(%r9), %r11
	movq	(%rbx), %r9
	movq	(%r10), %r10
	movq	(%rdi), %rdi
	movq	(%rdx), %rdx
	movq	(%rcx), %rcx
	movq	(%rsi), %rsi
	movq	(%r8), %rbx
	movq	(%r11), %r8
	movq	(%r9), %r9
	movq	(%r10), %r10
	movq	(%rdi), %rdi
	movq	(%rdx), %rdx
	movq	(%rcx), %rcx
	movq	(%rsi), %r11
	movq	(%rbx), %rsi
	movq	(%r8), %r8
	movq	(%r9), %r9
	movq	(%r10), %r10
	movq	(%rdi), %rdi
	movq	(%rdx), %rdx
	movq	(%rcx), %rbx
	movq	(%r11), %rcx
	movq	(%rsi), %rsi
	movq	(%r8), %r8
	movq	(%r9), %r9
	movq	(%r10), %r10
	movq	(%rdi), %rdi
	movq	(%rdx), %r11
	movq	(%rbx), %rdx
	movq	(%rcx), %rcx
	movq	(%rsi), %rsi
	movq	(%r8), %r8
	movq	(%r9), %r9
	movq	(%r10), %r10
	movq	(%rdi), %rbx
	movq	(%r11), %rdi
	movq	(%rdx), %rdx
	movq	(%rcx), %rcx
	movq	(%rsi), %rsi
	movq	(%r8), %r8
	movq	(%r9), %r9
	movq	(%r10), %r11
	movq	(%rbx), %r10
	movq	(%rdi), %rdi
	movq	(%rdx), %rdx
	movq	(%rcx), %rcx
	movq	(%rsi), %rsi
	movq	(%r8), %r8
	movq	(%r9), %rbx
	movq	(%r11), %r9
	movq	(%r10), %r10
	movq	(%rdi), %rdi
	movq	(%rdx), %rdx
	movq	(%rcx), %rcx
	movq	(%rsi), %rsi
	movq	(%r8), %r11
	movq	(%rbx), %r8
	movq	(%r9), %r9
	movq	(%r10), %r10
	movq	(%rdi), %rdi
	movq	(%rdx), %rdx
	movq	(%rcx), %rcx
	movq	(%rsi), %rbx
	movq	(%r11), %rsi
	movq	(%r8), %r8
	movq	(%r9), %r9
	movq	(%r10), %r10
	movq	(%rdi), %rdi
	movq	(%rdx), %rdx
	movq	(%rcx), %r11
	movq	(%rbx), %rcx
	movq	(%rsi), %rsi
	movq	(%r8), %r8
	movq	(%r9), %r9
	movq	(%r10), %r10
	movq	(%rdi), %rdi
	movq	(%rdx), %rbx
	movq	(%r11), %rdx
	movq	(%rcx), %rcx
	movq	(%rsi), %rsi
	movq	(%r8), %r8
	movq	(%r9), %r9
	movq	(%r10), %r10
	movq	(%rdi), %r11
	movq	(%rbx), %rdi
	movq	(%rdx), %rdx
	movq	(%rcx), %rcx
	movq	(%rsi), %rsi
	movq	(%r8), %r8
	movq	(%r9), %r9
	movq	(%r10), %rbx
	movq	(%r11), %r10
	movq	(%rdi), %rdi
	movq	(%rdx), %rdx
	movq	(%rcx), %rcx
	movq	(%rsi), %rsi
	movq	(%r8), %r8
	movq	(%r9), %r11
	movq	(%rbx), %r9
	movq	(%r10), %r10
	movq	(%rdi), %rdi
	movq	(%rdx), %rdx
	movq	(%rcx), %rcx
	movq	(%rsi), %rsi
	movq	(%r8), %rbx
	movq	(%r11), %r8
	movq	(%r9), %r9
	movq	(%r10), %r10
	movq	(%rdi), %rdi
	movq	(%rdx), %rdx
	movq	(%rcx), %rcx
	movq	(%rsi), %r11
	movq	(%rbx), %rsi
	movq	(%r8), %r8
	movq	(%r9), %r9
	movq	(%r10), %r10
	movq	(%rdi), %rdi
	movq	(%rdx), %rdx
	movq	(%rcx), %rbx
	movq	(%r11), %rcx
	movq	(%rsi), %rsi
	movq	(%r8), %r8
	movq	(%r9), %r9
	movq	(%r10), %r10
	movq	(%rdi), %rdi
	movq	(%rdx), %r11
	movq	(%rbx), %rdx
	movq	(%rcx), %rcx
	movq	(%rsi), %rsi
	movq	(%r8), %r8
	movq	(%r9), %r9
	movq	(%r10), %r10
	movq	(%rdi), %rbx
	movq	(%r11), %rdi
	movq	(%rdx), %rdx
	movq	(%rcx), %rcx
	movq	(%rsi), %rsi
	movq	(%r8), %r8
	movq	(%r9), %r9
	movq	(%r10), %r11
	movq	(%rbx), %r10
	movq	(%rdi), %rdi
	movq	(%rdx), %rdx
	movq	(%rcx), %rcx
	movq	(%rsi), %rsi
	movq	(%r8), %r8
	movq	(%r9), %rbx
	movq	(%r11), %r9
	movq	(%r10), %r10
	movq	(%rdi), %rdi
	movq	(%rdx), %rdx
	movq	(%rcx), %rcx
	movq	(%rsi), %rsi
	movq	(%r8), %r11
	movq	(%rbx), %r8
	movq	(%r9), %r9
	movq	(%r10), %r10
	movq	(%rdi), %rdi
	movq	(%rdx), %rdx
	movq	(%rcx), %rcx
	movq	(%rsi), %rbx
	movq	(%r11), %rsi
	movq	(%r8), %r8
	movq	(%r9), %r9
	movq	(%r10), %r10
	movq	(%rdi), %rdi
	movq	(%rdx), %rdx
	movq	(%rcx), %r11
	movq	(%rbx), %rcx
	movq	(%rsi), %rsi
	movq	(%r8), %r8
	movq	(%r9), %r9
	movq	(%r10), %r10
	movq	(%rdi), %rdi
	movq	(%rdx), %rbx
	movq	(%r11), %rdx
	movq	(%rcx), %rcx
	movq	(%rsi), %rsi
	movq	(%r8), %r8
	movq	(%r9), %r9
	movq	(%r10), %r10
	movq	(%rdi), %r11
	movq	(%rbx), %rdi
	movq	(%rdx), %rdx
	movq	(%rcx), %rcx
	movq	(%rsi), %rsi
	movq	(%r8), %r8
	movq	(%r9), %r9
	movq	(%r10), %rbx
	movq	(%r11), %r10
	movq	(%rdi), %rdi
	movq	(%rdx), %rdx
	movq	(%rcx), %rcx
	movq	(%rsi), %rsi
	movq	(%r8), %r8
	movq	(%r9), %r11
	movq	(%rbx), %r9
	movq	(%r10), %r10
	movq	(%rdi), %rdi
	movq	(%rdx), %rdx
	movq	(%rcx), %rcx
	movq	(%rsi), %rsi
	movq	(%r8), %rbx
	movq	(%r11), %r8
	movq	(%r9), %r9
	movq	(%r10), %r10
	movq	(%rdi), %rdi
	movq	(%rdx), %rdx
	movq	(%rcx), %rcx
	movq	(%rsi), %r11
	movq	(%rbx), %rsi
	movq	(%r8), %r8
	movq	(%r9), %r9
	movq	(%r10), %r10
	movq	(%rdi), %rdi
	movq	(%rdx), %rdx
	movq	(%rcx), %rbx
	movq	(%r11), %rcx
	movq	(%rsi), %rsi
	movq	(%r8), %r8
	movq	(%r9), %r9
	movq	(%r10), %r10
	movq	(%rdi), %rdi
	movq	(%rdx), %r11
	movq	(%rbx), %rdx
	movq	(%rcx), %rcx
	movq	(%rsi), %rsi
	movq	(%r8), %r8
	movq	(%r9), %r9
	movq	(%r10), %r10
	movq	(%rdi), %rbx
	movq	(%r11), %rdi
	movq	(%rdx), %rdx
	movq	(%rcx), %rcx
	movq	(%rsi), %rsi
	movq	(%r8), %r8
	movq	(%r9), %r9
	movq	(%r10), %r11
	movq	(%rbx), %r10
	movq	(%rdi), %rdi
	movq	(%rdx), %rdx
	movq	(%rcx), %rcx
	movq	(%rsi), %rsi
	movq	(%r8), %r8
	movq	(%r9), %rbx
	movq	(%r11), %r9
	movq	(%r10), %r10
	movq	(%rdi), %rdi
	movq	(%rdx), %rdx
	movq	(%rcx), %rcx
	movq	(%rsi), %rsi
	movq	(%r8), %r11
	movq	(%rbx), %r8
	movq	(%r9), %r9
	movq	(%r10), %r10
	movq	(%rdi), %rdi
	movq	(%rdx), %rdx
	movq	(%rcx), %rcx
	movq	(%rsi), %rbx
	movq	(%r11), %rsi
	movq	(%r8), %r8
	movq	(%r9), %r9
	movq	(%r10), %r10
	movq	(%rdi), %rdi
	movq	(%rdx), %rdx
	movq	(%rcx), %r11
	movq	(%rbx), %rcx
	movq	(%rsi), %rsi
	movq	(%r8), %r8
	movq	(%r9), %r9
	movq	(%r10), %r10
	movq	(%rdi), %rdi
	movq	(%rdx), %rbx
	movq	(%r11), %rdx
	movq	(%rcx), %rcx
	movq	(%rsi), %rsi
	movq	(%r8), %r8
	movq	(%r9), %r9
	movq	(%r10), %r10
	movq	(%rdi), %r11
	movq	(%rbx), %rdi
	movq	(%rdx), %rdx
	movq	(%rcx), %rcx
	movq	(%rsi), %rsi
	movq	(%r8), %r8
	movq	(%r9), %r9
	movq	(%r10), %rbx
	movq	(%r11), %r10
	movq	(%rdi), %rdi
	movq	(%rdx), %rdx
	movq	(%rcx), %rcx
	movq	(%rsi), %rsi
	movq	(%r8), %r8
	movq	(%r9), %r11
	movq	(%rbx), %r9
	movq	(%r10), %r10
	movq	(%rdi), %rdi
	movq	(%rdx), %rdx
	movq	(%rcx), %rcx
	movq	(%rsi), %rsi
	movq	(%r8), %rbx
	movq	(%r11), %r8
	movq	(%r9), %r9
	movq	(%r10), %r10
	movq	(%rdi), %rdi
	movq	(%rdx), %rdx
	movq	(%rcx), %rcx
	movq	(%rsi), %r11
	movq	(%rbx), %rsi
	movq	(%r8), %r8
	movq	(%r9), %r9
	movq	(%r10), %r10
	movq	(%rdi), %rdi
	movq	(%rdx), %rdx
	movq	(%rcx), %rbx
	movq	(%r11), %rcx
	movq	(%rsi), %rsi
	movq	(%r8), %r8
	movq	(%r9), %r9
	movq	(%r10), %r10
	movq	(%rdi), %rdi
	movq	(%rdx), %r11
	movq	(%rbx), %rdx
	movq	(%rcx), %rcx
	movq	(%rsi), %rsi
	movq	(%r8), %r8
	movq	(%r9), %r9
	movq	(%r10), %r10
	movq	(%rdi), %rbx
	movq	(%r11), %rdi
	movq	(%rdx), %rdx
	movq	(%rcx), %rcx
	movq	(%rsi), %rsi
	movq	(%r8), %r8
	movq	(%r9), %r9
	movq	(%r10), %r11
	movq	(%rbx), %r10
	movq	(%rdi), %rdi
	movq	(%rdx), %rdx
	movq	(%rcx), %rcx
	movq	(%rsi), %rsi
	movq	(%r8), %r8
	movq	(%r9), %rbx
	movq	(%r11), %r9
	movq	(%r10), %r10
	movq	(%rdi), %rdi
	movq	(%rdx), %rdx
	movq	(%rcx), %rcx
	movq	(%rsi), %rsi
	movq	(%r8), %r11
	movq	(%rbx), %r8
	movq	(%r9), %r9
	movq	(%r10), %r10
	movq	(%rdi), %rdi
	movq	(%rdx), %rdx
	movq	(%rcx), %rcx
	movq	(%rsi), %rbx
	movq	(%r11), %rsi
	movq	(%r8), %r8
	movq	(%r9), %r9
	movq	(%r10), %r10
	movq	(%rdi), %rdi
	movq	(%rdx), %rdx
	movq	(%rcx), %r11
	movq	(%rbx), %rcx
	movq	(%rsi), %rsi
	movq	(%r8), %r8
	movq	(%r9), %r9
	movq	(%r10), %r10
	movq	(%rdi), %rdi
	movq	(%rdx), %rbx
	movq	(%r11), %rdx
	movq	(%rcx), %rcx
	movq	(%rsi), %rsi
	movq	(%r8), %r8
	movq	(%r9), %r9
	movq	(%r10), %r10
	movq	(%rdi), %r11
	movq	(%rbx), %rdi
	movq	(%rdx), %rdx
	movq	(%rcx), %rcx
	movq	(%rsi), %rsi
	movq	(%r8), %r8
	movq	(%r9), %r9
	movq	(%r10), %rbx
	movq	(%r11), %r10
	movq	(%rdi), %rdi
	movq	(%rdx), %rdx
	movq	(%rcx), %rcx
	movq	(%rsi), %rsi
	movq	(%r8), %r8
	movq	(%r9), %r11
	movq	(%rbx), %r9
	movq	(%r10), %r10
	movq	(%rdi), %rdi
	movq	(%rdx), %rdx
	movq	(%rcx), %rcx
	movq	(%rsi), %rsi
	movq	(%r8), %rbx
	movq	(%r11), %r8
	movq	(%r9), %r9
	movq	(%r10), %r10
	movq	(%rdi), %rdi
	movq	(%rdx), %rdx
	movq	(%rcx), %rcx
	movq	(%rsi), %r11
	movq	(%rbx), %rsi
	movq	(%r8), %r8
	movq	(%r9), %r9
	movq	(%r10), %r10
	movq	(%rdi), %rdi
	movq	(%rdx), %rdx
	movq	(%rcx), %rbx
	movq	(%r11), %rcx
	movq	(%rsi), %rsi
	movq	(%r8), %r8
	movq	(%r9), %r9
	movq	(%r10), %r10
	movq	(%rdi), %rdi
	movq	(%rdx), %rbp
	movq	(%rbx), %rdx
	movq	(%rcx), %rcx
	movq	(%rsi), %rsi
	movq	(%r8), %r8
	movq	(%r9), %r9
	movq	(%r10), %r10
	movq	(%rdi), %r11
	movq	0(%rbp), %rbx
	subq	$1, %rax
	cmpq	$-1, %rax
	jne	.L155
.L156:
	movq	%rdx, sp0.117(%rip)
	movq	%rcx, sp1.116(%rip)
	movq	%rsi, sp2.115(%rip)
	movq	%r8, sp3.114(%rip)
	movq	%r9, sp4.113(%rip)
	movq	%r10, sp5.112(%rip)
	movq	%r11, sp6.111(%rip)
	movq	%rbx, sp7.110(%rip)
	movq	(%r12), %rax
	movq	%rax, addr_save.118(%rip)
	movl	$1, mem_benchmark_rerun(%rip)
	popq	%rbx
	.cfi_def_cfa_offset 24
	popq	%rbp
	.cfi_def_cfa_offset 16
	popq	%r12
	.cfi_def_cfa_offset 8
	ret
	.cfi_endproc
.LFE79:
	.size	mem_benchmark_7, .-mem_benchmark_7
	.globl	mem_benchmark_8
	.type	mem_benchmark_8, @function
mem_benchmark_8:
.LFB80:
	.cfi_startproc
	endbr64
	pushq	%r14
	.cfi_def_cfa_offset 16
	.cfi_offset 14, -16
	pushq	%r13
	.cfi_def_cfa_offset 24
	.cfi_offset 13, -24
	pushq	%r12
	.cfi_def_cfa_offset 32
	.cfi_offset 12, -32
	pushq	%rbp
	.cfi_def_cfa_offset 40
	.cfi_offset 6, -40
	pushq	%rbx
	.cfi_def_cfa_offset 48
	.cfi_offset 3, -48
	movq	%rsi, %r14
	movl	mem_benchmark_rerun(%rip), %eax
	testl	%eax, %eax
	je	.L174
	movq	addr_save.109(%rip), %rbx
	movq	sp0.108(%rip), %rdx
	cmpq	%rbx, (%rsi)
	je	.L176
	movq	16(%rsi), %rdx
	movq	addr_save.109(%rip), %rbx
	cmpq	%rbx, (%rsi)
	je	.L176
	movq	24(%r14), %rcx
	testl	%eax, %eax
	je	.L177
	movq	addr_save.109(%rip), %rbx
	cmpq	%rbx, (%r14)
	je	.L179
	movq	32(%r14), %rsi
	testl	%eax, %eax
	je	.L180
	movq	addr_save.109(%rip), %rbx
	cmpq	%rbx, (%r14)
	je	.L182
	movq	40(%r14), %r8
	testl	%eax, %eax
	je	.L183
	movq	addr_save.109(%rip), %rbx
	cmpq	%rbx, (%r14)
	je	.L185
	movq	48(%r14), %r9
	testl	%eax, %eax
	je	.L186
	movq	addr_save.109(%rip), %rbx
	cmpq	%rbx, (%r14)
	je	.L200
	movq	56(%r14), %r10
	movq	addr_save.109(%rip), %rbx
	cmpq	%rbx, (%r14)
	je	.L188
	movq	64(%r14), %r11
	testl	%eax, %eax
	je	.L189
	movq	addr_save.109(%rip), %rax
	cmpq	%rax, (%r14)
	je	.L197
	movq	72(%r14), %rbx
	movq	addr_save.109(%rip), %rax
	cmpq	%rax, (%r14)
	jne	.L195
	jmp	.L191
.L176:
	movq	sp1.107(%rip), %rcx
.L179:
	movq	sp2.106(%rip), %rsi
.L182:
	movq	sp3.105(%rip), %r8
.L185:
	movq	sp4.104(%rip), %r9
.L200:
	movq	sp5.103(%rip), %r10
.L188:
	movq	sp6.102(%rip), %r11
.L197:
	movq	sp7.101(%rip), %rbx
.L191:
	movq	sp8.100(%rip), %rbp
	jmp	.L194
.L174:
	movq	16(%rsi), %rdx
	movq	24(%rsi), %rcx
.L177:
	movq	32(%r14), %rsi
.L180:
	movq	40(%r14), %r8
.L183:
	movq	48(%r14), %r9
.L186:
	movq	56(%r14), %r10
	movq	64(%r14), %r11
.L189:
	movq	72(%r14), %rbx
.L195:
	movq	80(%r14), %rbp
.L194:
	leaq	-1(%rdi), %rax
	testq	%rdi, %rdi
	je	.L193
.L192:
	movq	(%rdx), %r12
	movq	(%rcx), %r13
	movq	(%rsi), %rsi
	movq	(%r8), %r8
	movq	(%r9), %r9
	movq	(%r10), %rdi
	movq	(%r11), %rdx
	movq	(%rbx), %rcx
	movq	0(%rbp), %r10
	movq	(%r12), %r11
	movq	0(%r13), %rbx
	movq	(%rsi), %rsi
	movq	(%r8), %r8
	movq	(%r9), %r9
	movq	(%rdi), %rdi
	movq	(%rdx), %rdx
	movq	(%rcx), %rbp
	movq	(%r10), %r10
	movq	(%r11), %r11
	movq	(%rbx), %rcx
	movq	(%rsi), %rsi
	movq	(%r8), %r8
	movq	(%r9), %r9
	movq	(%rdi), %rdi
	movq	(%rdx), %rbx
	movq	0(%rbp), %rbp
	movq	(%r10), %r10
	movq	(%r11), %rdx
	movq	(%rcx), %rcx
	movq	(%rsi), %rsi
	movq	(%r8), %r8
	movq	(%r9), %r9
	movq	(%rdi), %r11
	movq	(%rbx), %rbx
	movq	0(%rbp), %rbp
	movq	(%r10), %rdi
	movq	(%rdx), %rdx
	movq	(%rcx), %rcx
	movq	(%rsi), %rsi
	movq	(%r8), %r8
	movq	(%r9), %r10
	movq	(%r11), %r11
	movq	(%rbx), %rbx
	movq	0(%rbp), %r9
	movq	(%rdi), %rdi
	movq	(%rdx), %rdx
	movq	(%rcx), %rcx
	movq	(%rsi), %rsi
	movq	(%r8), %rbp
	movq	(%r10), %r10
	movq	(%r11), %r11
	movq	(%rbx), %r8
	movq	(%r9), %r9
	movq	(%rdi), %rdi
	movq	(%rdx), %rdx
	movq	(%rcx), %rcx
	movq	(%rsi), %rbx
	movq	0(%rbp), %rbp
	movq	(%r10), %r10
	movq	(%r11), %rsi
	movq	(%r8), %r8
	movq	(%r9), %r9
	movq	(%rdi), %rdi
	movq	(%rdx), %rdx
	movq	(%rcx), %r11
	movq	(%rbx), %rbx
	movq	0(%rbp), %rbp
	movq	(%r10), %rcx
	movq	(%rsi), %rsi
	movq	(%r8), %r8
	movq	(%r9), %r9
	movq	(%rdi), %rdi
	movq	(%rdx), %r10
	movq	(%r11), %r11
	movq	(%rbx), %rbx
	movq	0(%rbp), %rdx
	movq	(%rcx), %rcx
	movq	(%rsi), %rsi
	movq	(%r8), %r8
	movq	(%r9), %r9
	movq	(%rdi), %rbp
	movq	(%r10), %r10
	movq	(%r11), %r11
	movq	(%rbx), %rdi
	movq	(%rdx), %rdx
	movq	(%rcx), %rcx
	movq	(%rsi), %rsi
	movq	(%r8), %r8
	movq	(%r9), %rbx
	movq	0(%rbp), %rbp
	movq	(%r10), %r10
	movq	(%r11), %r9
	movq	(%rdi), %rdi
	movq	(%rdx), %rdx
	movq	(%rcx), %rcx
	movq	(%rsi), %rsi
	movq	(%r8), %r11
	movq	(%rbx), %rbx
	movq	0(%rbp), %rbp
	movq	(%r10), %r8
	movq	(%r9), %r9
	movq	(%rdi), %rdi
	movq	(%rdx), %rdx
	movq	(%rcx), %rcx
	movq	(%rsi), %r10
	movq	(%r11), %r11
	movq	(%rbx), %rbx
	movq	0(%rbp), %rsi
	movq	(%r8), %r8
	movq	(%r9), %r9
	movq	(%rdi), %rdi
	movq	(%rdx), %rdx
	movq	(%rcx), %rbp
	movq	(%r10), %r10
	movq	(%r11), %r11
	movq	(%rbx), %rcx
	movq	(%rsi), %rsi
	movq	(%r8), %r8
	movq	(%r9), %r9
	movq	(%rdi), %rdi
	movq	(%rdx), %rbx
	movq	0(%rbp), %rbp
	movq	(%r10), %r10
	movq	(%r11), %rdx
	movq	(%rcx), %rcx
	movq	(%rsi), %rsi
	movq	(%r8), %r8
	movq	(%r9), %r9
	movq	(%rdi), %r11
	movq	(%rbx), %rbx
	movq	0(%rbp), %rbp
	movq	(%r10), %rdi
	movq	(%rdx), %rdx
	movq	(%rcx), %rcx
	movq	(%rsi), %rsi
	movq	(%r8), %r8
	movq	(%r9), %r10
	movq	(%r11), %r11
	movq	(%rbx), %rbx
	movq	0(%rbp), %r9
	movq	(%rdi), %rdi
	movq	(%rdx), %rdx
	movq	(%rcx), %rcx
	movq	(%rsi), %rsi
	movq	(%r8), %rbp
	movq	(%r10), %r10
	movq	(%r11), %r11
	movq	(%rbx), %r8
	movq	(%r9), %r9
	movq	(%rdi), %rdi
	movq	(%rdx), %rdx
	movq	(%rcx), %rcx
	movq	(%rsi), %rbx
	movq	0(%rbp), %rbp
	movq	(%r10), %r10
	movq	(%r11), %rsi
	movq	(%r8), %r8
	movq	(%r9), %r9
	movq	(%rdi), %rdi
	movq	(%rdx), %rdx
	movq	(%rcx), %r11
	movq	(%rbx), %rbx
	movq	0(%rbp), %rbp
	movq	(%r10), %rcx
	movq	(%rsi), %rsi
	movq	(%r8), %r8
	movq	(%r9), %r9
	movq	(%rdi), %rdi
	movq	(%rdx), %r10
	movq	(%r11), %r11
	movq	(%rbx), %rbx
	movq	0(%rbp), %rdx
	movq	(%rcx), %rcx
	movq	(%rsi), %rsi
	movq	(%r8), %r8
	movq	(%r9), %r9
	movq	(%rdi), %rbp
	movq	(%r10), %r10
	movq	(%r11), %r11
	movq	(%rbx), %rdi
	movq	(%rdx), %rdx
	movq	(%rcx), %rcx
	movq	(%rsi), %rsi
	movq	(%r8), %r8
	movq	(%r9), %rbx
	movq	0(%rbp), %rbp
	movq	(%r10), %r10
	movq	(%r11), %r9
	movq	(%rdi), %rdi
	movq	(%rdx), %rdx
	movq	(%rcx), %rcx
	movq	(%rsi), %rsi
	movq	(%r8), %r11
	movq	(%rbx), %rbx
	movq	0(%rbp), %rbp
	movq	(%r10), %r8
	movq	(%r9), %r9
	movq	(%rdi), %rdi
	movq	(%rdx), %rdx
	movq	(%rcx), %rcx
	movq	(%rsi), %r10
	movq	(%r11), %r11
	movq	(%rbx), %rbx
	movq	0(%rbp), %rsi
	movq	(%r8), %r8
	movq	(%r9), %r9
	movq	(%rdi), %rdi
	movq	(%rdx), %rdx
	movq	(%rcx), %rbp
	movq	(%r10), %r10
	movq	(%r11), %r11
	movq	(%rbx), %rcx
	movq	(%rsi), %rsi
	movq	(%r8), %r8
	movq	(%r9), %r9
	movq	(%rdi), %rdi
	movq	(%rdx), %rbx
	movq	0(%rbp), %rbp
	movq	(%r10), %r10
	movq	(%r11), %rdx
	movq	(%rcx), %rcx
	movq	(%rsi), %rsi
	movq	(%r8), %r8
	movq	(%r9), %r9
	movq	(%rdi), %r11
	movq	(%rbx), %rbx
	movq	0(%rbp), %rbp
	movq	(%r10), %rdi
	movq	(%rdx), %rdx
	movq	(%rcx), %rcx
	movq	(%rsi), %rsi
	movq	(%r8), %r8
	movq	(%r9), %r10
	movq	(%r11), %r11
	movq	(%rbx), %rbx
	movq	0(%rbp), %r9
	movq	(%rdi), %rdi
	movq	(%rdx), %rdx
	movq	(%rcx), %rcx
	movq	(%rsi), %rsi
	movq	(%r8), %rbp
	movq	(%r10), %r10
	movq	(%r11), %r11
	movq	(%rbx), %r8
	movq	(%r9), %r9
	movq	(%rdi), %rdi
	movq	(%rdx), %rdx
	movq	(%rcx), %rcx
	movq	(%rsi), %rbx
	movq	0(%rbp), %rbp
	movq	(%r10), %r10
	movq	(%r11), %rsi
	movq	(%r8), %r8
	movq	(%r9), %r9
	movq	(%rdi), %rdi
	movq	(%rdx), %rdx
	movq	(%rcx), %r11
	movq	(%rbx), %rbx
	movq	0(%rbp), %rbp
	movq	(%r10), %rcx
	movq	(%rsi), %rsi
	movq	(%r8), %r8
	movq	(%r9), %r9
	movq	(%rdi), %rdi
	movq	(%rdx), %r10
	movq	(%r11), %r11
	movq	(%rbx), %rbx
	movq	0(%rbp), %rdx
	movq	(%rcx), %rcx
	movq	(%rsi), %rsi
	movq	(%r8), %r8
	movq	(%r9), %r9
	movq	(%rdi), %rbp
	movq	(%r10), %r10
	movq	(%r11), %r11
	movq	(%rbx), %rdi
	movq	(%rdx), %rdx
	movq	(%rcx), %rcx
	movq	(%rsi), %rsi
	movq	(%r8), %r8
	movq	(%r9), %rbx
	movq	0(%rbp), %rbp
	movq	(%r10), %r10
	movq	(%r11), %r9
	movq	(%rdi), %rdi
	movq	(%rdx), %rdx
	movq	(%rcx), %rcx
	movq	(%rsi), %rsi
	movq	(%r8), %r11
	movq	(%rbx), %rbx
	movq	0(%rbp), %rbp
	movq	(%r10), %r8
	movq	(%r9), %r9
	movq	(%rdi), %rdi
	movq	(%rdx), %rdx
	movq	(%rcx), %rcx
	movq	(%rsi), %r10
	movq	(%r11), %r11
	movq	(%rbx), %rbx
	movq	0(%rbp), %rsi
	movq	(%r8), %r8
	movq	(%r9), %r9
	movq	(%rdi), %rdi
	movq	(%rdx), %rdx
	movq	(%rcx), %rbp
	movq	(%r10), %r10
	movq	(%r11), %r11
	movq	(%rbx), %rcx
	movq	(%rsi), %rsi
	movq	(%r8), %r8
	movq	(%r9), %r9
	movq	(%rdi), %rdi
	movq	(%rdx), %rbx
	movq	0(%rbp), %rbp
	movq	(%r10), %r10
	movq	(%r11), %rdx
	movq	(%rcx), %rcx
	movq	(%rsi), %rsi
	movq	(%r8), %r8
	movq	(%r9), %r9
	movq	(%rdi), %r11
	movq	(%rbx), %rbx
	movq	0(%rbp), %rbp
	movq	(%r10), %rdi
	movq	(%rdx), %rdx
	movq	(%rcx), %rcx
	movq	(%rsi), %rsi
	movq	(%r8), %r8
	movq	(%r9), %r10
	movq	(%r11), %r11
	movq	(%rbx), %rbx
	movq	0(%rbp), %r9
	movq	(%rdi), %rdi
	movq	(%rdx), %rdx
	movq	(%rcx), %rcx
	movq	(%rsi), %rsi
	movq	(%r8), %rbp
	movq	(%r10), %r10
	movq	(%r11), %r11
	movq	(%rbx), %r8
	movq	(%r9), %r9
	movq	(%rdi), %rdi
	movq	(%rdx), %rdx
	movq	(%rcx), %rcx
	movq	(%rsi), %rbx
	movq	0(%rbp), %rbp
	movq	(%r10), %r10
	movq	(%r11), %rsi
	movq	(%r8), %r8
	movq	(%r9), %r9
	movq	(%rdi), %rdi
	movq	(%rdx), %rdx
	movq	(%rcx), %r11
	movq	(%rbx), %rbx
	movq	0(%rbp), %rbp
	movq	(%r10), %rcx
	movq	(%rsi), %rsi
	movq	(%r8), %r8
	movq	(%r9), %r9
	movq	(%rdi), %rdi
	movq	(%rdx), %r10
	movq	(%r11), %r11
	movq	(%rbx), %rbx
	movq	0(%rbp), %rdx
	movq	(%rcx), %rcx
	movq	(%rsi), %rsi
	movq	(%r8), %r8
	movq	(%r9), %r9
	movq	(%rdi), %rbp
	movq	(%r10), %r10
	movq	(%r11), %r11
	movq	(%rbx), %rdi
	movq	(%rdx), %rdx
	movq	(%rcx), %rcx
	movq	(%rsi), %rsi
	movq	(%r8), %r8
	movq	(%r9), %rbx
	movq	0(%rbp), %rbp
	movq	(%r10), %r10
	movq	(%r11), %r9
	movq	(%rdi), %rdi
	movq	(%rdx), %rdx
	movq	(%rcx), %rcx
	movq	(%rsi), %rsi
	movq	(%r8), %r11
	movq	(%rbx), %rbx
	movq	0(%rbp), %rbp
	movq	(%r10), %r8
	movq	(%r9), %r9
	movq	(%rdi), %rdi
	movq	(%rdx), %rdx
	movq	(%rcx), %rcx
	movq	(%rsi), %r10
	movq	(%r11), %r11
	movq	(%rbx), %rbx
	movq	0(%rbp), %rsi
	movq	(%r8), %r8
	movq	(%r9), %r9
	movq	(%rdi), %rdi
	movq	(%rdx), %rdx
	movq	(%rcx), %rbp
	movq	(%r10), %r10
	movq	(%r11), %r11
	movq	(%rbx), %rcx
	movq	(%rsi), %rsi
	movq	(%r8), %r8
	movq	(%r9), %r9
	movq	(%rdi), %rdi
	movq	(%rdx), %rbx
	movq	0(%rbp), %rbp
	movq	(%r10), %r10
	movq	(%r11), %rdx
	movq	(%rcx), %rcx
	movq	(%rsi), %rsi
	movq	(%r8), %r8
	movq	(%r9), %r9
	movq	(%rdi), %r11
	movq	(%rbx), %rbx
	movq	0(%rbp), %rbp
	movq	(%r10), %rdi
	movq	(%rdx), %rdx
	movq	(%rcx), %rcx
	movq	(%rsi), %rsi
	movq	(%r8), %r8
	movq	(%r9), %r10
	movq	(%r11), %r11
	movq	(%rbx), %rbx
	movq	0(%rbp), %r9
	movq	(%rdi), %rdi
	movq	(%rdx), %rdx
	movq	(%rcx), %rcx
	movq	(%rsi), %rsi
	movq	(%r8), %rbp
	movq	(%r10), %r10
	movq	(%r11), %r11
	movq	(%rbx), %r8
	movq	(%r9), %r9
	movq	(%rdi), %rdi
	movq	(%rdx), %rdx
	movq	(%rcx), %rcx
	movq	(%rsi), %rbx
	movq	0(%rbp), %rbp
	movq	(%r10), %r10
	movq	(%r11), %rsi
	movq	(%r8), %r8
	movq	(%r9), %r9
	movq	(%rdi), %rdi
	movq	(%rdx), %rdx
	movq	(%rcx), %r11
	movq	(%rbx), %rbx
	movq	0(%rbp), %rbp
	movq	(%r10), %rcx
	movq	(%rsi), %rsi
	movq	(%r8), %r8
	movq	(%r9), %r9
	movq	(%rdi), %rdi
	movq	(%rdx), %r10
	movq	(%r11), %r11
	movq	(%rbx), %rbx
	movq	0(%rbp), %rdx
	movq	(%rcx), %rcx
	movq	(%rsi), %rsi
	movq	(%r8), %r8
	movq	(%r9), %r9
	movq	(%rdi), %rbp
	movq	(%r10), %r10
	movq	(%r11), %r11
	movq	(%rbx), %rdi
	movq	(%rdx), %rdx
	movq	(%rcx), %rcx
	movq	(%rsi), %rsi
	movq	(%r8), %r8
	movq	(%r9), %rbx
	movq	0(%rbp), %rbp
	movq	(%r10), %r10
	movq	(%r11), %r9
	movq	(%rdi), %rdi
	movq	(%rdx), %rdx
	movq	(%rcx), %rcx
	movq	(%rsi), %rsi
	movq	(%r8), %r11
	movq	(%rbx), %rbx
	movq	0(%rbp), %rbp
	movq	(%r10), %r8
	movq	(%r9), %r9
	movq	(%rdi), %rdi
	movq	(%rdx), %rdx
	movq	(%rcx), %rcx
	movq	(%rsi), %r10
	movq	(%r11), %r11
	movq	(%rbx), %rbx
	movq	0(%rbp), %rsi
	movq	(%r8), %r8
	movq	(%r9), %r9
	movq	(%rdi), %rdi
	movq	(%rdx), %rdx
	movq	(%rcx), %rbp
	movq	(%r10), %r10
	movq	(%r11), %r11
	movq	(%rbx), %rcx
	movq	(%rsi), %rsi
	movq	(%r8), %r8
	movq	(%r9), %r9
	movq	(%rdi), %rdi
	movq	(%rdx), %rbx
	movq	0(%rbp), %rbp
	movq	(%r10), %r10
	movq	(%r11), %rdx
	movq	(%rcx), %rcx
	movq	(%rsi), %rsi
	movq	(%r8), %r8
	movq	(%r9), %r9
	movq	(%rdi), %r11
	movq	(%rbx), %rbx
	movq	0(%rbp), %rbp
	movq	(%r10), %rdi
	movq	(%rdx), %rdx
	movq	(%rcx), %rcx
	movq	(%rsi), %rsi
	movq	(%r8), %r8
	movq	(%r9), %r10
	movq	(%r11), %r11
	movq	(%rbx), %rbx
	movq	0(%rbp), %r9
	movq	(%rdi), %rdi
	movq	(%rdx), %rdx
	movq	(%rcx), %rcx
	movq	(%rsi), %rsi
	movq	(%r8), %rbp
	movq	(%r10), %r10
	movq	(%r11), %r11
	movq	(%rbx), %r8
	movq	(%r9), %r9
	movq	(%rdi), %rdi
	movq	(%rdx), %rdx
	movq	(%rcx), %rcx
	movq	(%rsi), %rbx
	movq	0(%rbp), %rbp
	movq	(%r10), %r10
	movq	(%r11), %rsi
	movq	(%r8), %r8
	movq	(%r9), %r9
	movq	(%rdi), %rdi
	movq	(%rdx), %rdx
	movq	(%rcx), %r11
	movq	(%rbx), %rbx
	movq	0(%rbp), %rbp
	movq	(%r10), %rcx
	movq	(%rsi), %rsi
	movq	(%r8), %r8
	movq	(%r9), %r9
	movq	(%rdi), %rdi
	movq	(%rdx), %r10
	movq	(%r11), %r11
	movq	(%rbx), %rbx
	movq	0(%rbp), %rdx
	movq	(%rcx), %rcx
	movq	(%rsi), %rsi
	movq	(%r8), %r8
	movq	(%r9), %r9
	movq	(%rdi), %rbp
	movq	(%r10), %r10
	movq	(%r11), %r11
	movq	(%rbx), %rdi
	movq	(%rdx), %rdx
	movq	(%rcx), %rcx
	movq	(%rsi), %rsi
	movq	(%r8), %r8
	movq	(%r9), %rbx
	movq	0(%rbp), %rbp
	movq	(%r10), %r10
	movq	(%r11), %r9
	movq	(%rdi), %rdi
	movq	(%rdx), %rdx
	movq	(%rcx), %rcx
	movq	(%rsi), %rsi
	movq	(%r8), %r11
	movq	(%rbx), %rbx
	movq	0(%rbp), %rbp
	movq	(%r10), %r8
	movq	(%r9), %r9
	movq	(%rdi), %rdi
	movq	(%rdx), %rdx
	movq	(%rcx), %rcx
	movq	(%rsi), %r10
	movq	(%r11), %r11
	movq	(%rbx), %rbx
	movq	0(%rbp), %rsi
	movq	(%r8), %r8
	movq	(%r9), %r9
	movq	(%rdi), %rdi
	movq	(%rdx), %rdx
	movq	(%rcx), %rbp
	movq	(%r10), %r10
	movq	(%r11), %r11
	movq	(%rbx), %rcx
	movq	(%rsi), %rsi
	movq	(%r8), %r8
	movq	(%r9), %r9
	movq	(%rdi), %rdi
	movq	(%rdx), %rbx
	movq	0(%rbp), %rbp
	movq	(%r10), %r10
	movq	(%r11), %rdx
	movq	(%rcx), %rcx
	movq	(%rsi), %rsi
	movq	(%r8), %r8
	movq	(%r9), %r9
	movq	(%rdi), %r11
	movq	(%rbx), %rbx
	movq	0(%rbp), %rbp
	movq	(%r10), %rdi
	movq	(%rdx), %rdx
	movq	(%rcx), %rcx
	movq	(%rsi), %rsi
	movq	(%r8), %r8
	movq	(%r9), %r10
	movq	(%r11), %r11
	movq	(%rbx), %rbx
	movq	0(%rbp), %r9
	movq	(%rdi), %rdi
	movq	(%rdx), %rdx
	movq	(%rcx), %rcx
	movq	(%rsi), %rsi
	movq	(%r8), %rbp
	movq	(%r10), %r10
	movq	(%r11), %r11
	movq	(%rbx), %r8
	movq	(%r9), %r9
	movq	(%rdi), %rdi
	movq	(%rdx), %rdx
	movq	(%rcx), %rcx
	movq	(%rsi), %rbx
	movq	0(%rbp), %rbp
	movq	(%r10), %r10
	movq	(%r11), %rsi
	movq	(%r8), %r8
	movq	(%r9), %r9
	movq	(%rdi), %rdi
	movq	(%rdx), %rdx
	movq	(%rcx), %r11
	movq	(%rbx), %rbx
	movq	0(%rbp), %rbp
	movq	(%r10), %rcx
	movq	(%rsi), %rsi
	movq	(%r8), %r8
	movq	(%r9), %r9
	movq	(%rdi), %rdi
	movq	(%rdx), %r10
	movq	(%r11), %r11
	movq	(%rbx), %rbx
	movq	0(%rbp), %rdx
	movq	(%rcx), %rcx
	movq	(%rsi), %rsi
	movq	(%r8), %r8
	movq	(%r9), %r9
	movq	(%rdi), %rbp
	movq	(%r10), %r10
	movq	(%r11), %r11
	movq	(%rbx), %rdi
	movq	(%rdx), %rdx
	movq	(%rcx), %rcx
	movq	(%rsi), %rsi
	movq	(%r8), %r8
	movq	(%r9), %rbx
	movq	0(%rbp), %rbp
	movq	(%r10), %r10
	movq	(%r11), %r9
	movq	(%rdi), %rdi
	movq	(%rdx), %rdx
	movq	(%rcx), %rcx
	movq	(%rsi), %rsi
	movq	(%r8), %r11
	movq	(%rbx), %rbx
	movq	0(%rbp), %rbp
	movq	(%r10), %r8
	movq	(%r9), %r9
	movq	(%rdi), %rdi
	movq	(%rdx), %rdx
	movq	(%rcx), %rcx
	movq	(%rsi), %r10
	movq	(%r11), %r11
	movq	(%rbx), %rbx
	movq	0(%rbp), %rsi
	movq	(%r8), %r8
	movq	(%r9), %r9
	movq	(%rdi), %rdi
	movq	(%rdx), %rdx
	movq	(%rcx), %rbp
	movq	(%r10), %r10
	movq	(%r11), %r11
	movq	(%rbx), %rcx
	movq	(%rsi), %rsi
	movq	(%r8), %r8
	movq	(%r9), %r9
	movq	(%rdi), %rdi
	movq	(%rdx), %rbx
	movq	0(%rbp), %rbp
	movq	(%r10), %r10
	movq	(%r11), %rdx
	movq	(%rcx), %rcx
	movq	(%rsi), %rsi
	movq	(%r8), %r8
	movq	(%r9), %r9
	movq	(%rdi), %r11
	movq	(%rbx), %rbx
	movq	0(%rbp), %rbp
	movq	(%r10), %rdi
	movq	(%rdx), %rdx
	movq	(%rcx), %rcx
	movq	(%rsi), %rsi
	movq	(%r8), %r8
	movq	(%r9), %r10
	movq	(%r11), %r11
	movq	(%rbx), %rbx
	movq	0(%rbp), %r9
	movq	(%rdi), %rdi
	movq	(%rdx), %rdx
	movq	(%rcx), %rcx
	movq	(%rsi), %rsi
	movq	(%r8), %rbp
	movq	(%r10), %r10
	movq	(%r11), %r11
	movq	(%rbx), %r8
	movq	(%r9), %r9
	movq	(%rdi), %rdi
	movq	(%rdx), %rdx
	movq	(%rcx), %rcx
	movq	(%rsi), %rbx
	movq	0(%rbp), %rbp
	movq	(%r10), %r10
	movq	(%r11), %rsi
	movq	(%r8), %r8
	movq	(%r9), %r9
	movq	(%rdi), %rdi
	movq	(%rdx), %rdx
	movq	(%rcx), %r11
	movq	(%rbx), %rbx
	movq	0(%rbp), %rbp
	movq	(%r10), %rcx
	movq	(%rsi), %rsi
	movq	(%r8), %r8
	movq	(%r9), %r9
	movq	(%rdi), %rdi
	movq	(%rdx), %r10
	movq	(%r11), %r11
	movq	(%rbx), %rbx
	movq	0(%rbp), %rdx
	movq	(%rcx), %rcx
	movq	(%rsi), %rsi
	movq	(%r8), %r8
	movq	(%r9), %r9
	movq	(%rdi), %rbp
	movq	(%r10), %r10
	movq	(%r11), %r11
	movq	(%rbx), %rdi
	movq	(%rdx), %rdx
	movq	(%rcx), %rcx
	movq	(%rsi), %rsi
	movq	(%r8), %r8
	movq	(%r9), %rbx
	movq	0(%rbp), %rbp
	movq	(%r10), %r10
	movq	(%r11), %r9
	movq	(%rdi), %rdi
	movq	(%rdx), %rdx
	movq	(%rcx), %rcx
	movq	(%rsi), %rsi
	movq	(%r8), %r11
	movq	(%rbx), %rbx
	movq	0(%rbp), %rbp
	movq	(%r10), %r8
	movq	(%r9), %r9
	movq	(%rdi), %rdi
	movq	(%rdx), %rdx
	movq	(%rcx), %rcx
	movq	(%rsi), %r10
	movq	(%r11), %r11
	movq	(%rbx), %rbx
	movq	0(%rbp), %rsi
	movq	(%r8), %r8
	movq	(%r9), %r9
	movq	(%rdi), %rdi
	movq	(%rdx), %rdx
	movq	(%rcx), %rbp
	movq	(%r10), %r10
	movq	(%r11), %r11
	movq	(%rbx), %rcx
	movq	(%rsi), %rsi
	movq	(%r8), %r8
	movq	(%r9), %r9
	movq	(%rdi), %rdi
	movq	(%rdx), %rbx
	movq	0(%rbp), %rbp
	movq	(%r10), %r10
	movq	(%r11), %rdx
	movq	(%rcx), %rcx
	movq	(%rsi), %rsi
	movq	(%r8), %r8
	movq	(%r9), %r9
	movq	(%rdi), %r11
	movq	(%rbx), %rbx
	movq	0(%rbp), %rbp
	movq	(%r10), %rdi
	movq	(%rdx), %rdx
	movq	(%rcx), %rcx
	movq	(%rsi), %rsi
	movq	(%r8), %r8
	movq	(%r9), %r10
	movq	(%r11), %r11
	movq	(%rbx), %rbx
	movq	0(%rbp), %r9
	movq	(%rdi), %rdi
	movq	(%rdx), %rdx
	movq	(%rcx), %rcx
	movq	(%rsi), %rsi
	movq	(%r8), %rbp
	movq	(%r10), %r10
	movq	(%r11), %r11
	movq	(%rbx), %r8
	movq	(%r9), %r9
	movq	(%rdi), %rdi
	movq	(%rdx), %rdx
	movq	(%rcx), %rcx
	movq	(%rsi), %rbx
	movq	0(%rbp), %rbp
	movq	(%r10), %r10
	movq	(%r11), %rsi
	movq	(%r8), %r8
	movq	(%r9), %r9
	movq	(%rdi), %rdi
	movq	(%rdx), %rdx
	movq	(%rcx), %r11
	movq	(%rbx), %rbx
	movq	0(%rbp), %rbp
	movq	(%r10), %rcx
	movq	(%rsi), %rsi
	movq	(%r8), %r8
	movq	(%r9), %r9
	movq	(%rdi), %rdi
	movq	(%rdx), %r10
	movq	(%r11), %r11
	movq	(%rbx), %rbx
	movq	0(%rbp), %rdx
	movq	(%rcx), %rcx
	movq	(%rsi), %rsi
	movq	(%r8), %r8
	movq	(%r9), %r9
	movq	(%rdi), %rbp
	movq	(%r10), %r10
	movq	(%r11), %r11
	movq	(%rbx), %rdi
	movq	(%rdx), %rdx
	movq	(%rcx), %rcx
	movq	(%rsi), %rsi
	movq	(%r8), %r8
	movq	(%r9), %rbx
	movq	0(%rbp), %rbp
	movq	(%r10), %r10
	movq	(%r11), %r9
	movq	(%rdi), %rdi
	movq	(%rdx), %rdx
	movq	(%rcx), %rcx
	movq	(%rsi), %rsi
	movq	(%r8), %r11
	movq	(%rbx), %rbx
	movq	0(%rbp), %rbp
	movq	(%r10), %r8
	movq	(%r9), %r9
	movq	(%rdi), %rdi
	movq	(%rdx), %rdx
	movq	(%rcx), %rcx
	movq	(%rsi), %r10
	movq	(%r11), %r11
	movq	(%rbx), %rbx
	movq	0(%rbp), %rsi
	movq	(%r8), %r8
	movq	(%r9), %r9
	movq	(%rdi), %rdi
	movq	(%rdx), %rdx
	movq	(%rcx), %rbp
	movq	(%r10), %r10
	movq	(%r11), %r11
	movq	(%rbx), %rcx
	movq	(%rsi), %rsi
	movq	(%r8), %r8
	movq	(%r9), %r9
	movq	(%rdi), %rdi
	movq	(%rdx), %rbx
	movq	0(%rbp), %rbp
	movq	(%r10), %r12
	movq	(%r11), %rdx
	movq	(%rcx), %rcx
	movq	(%rsi), %rsi
	movq	(%r8), %r8
	movq	(%r9), %r9
	movq	(%rdi), %r10
	movq	(%rbx), %r11
	movq	0(%rbp), %rbx
	movq	(%r12), %rbp
	subq	$1, %rax
	cmpq	$-1, %rax
	jne	.L192
.L193:
	movq	%rdx, sp0.108(%rip)
	movq	%rcx, sp1.107(%rip)
	movq	%rsi, sp2.106(%rip)
	movq	%r8, sp3.105(%rip)
	movq	%r9, sp4.104(%rip)
	movq	%r10, sp5.103(%rip)
	movq	%r11, sp6.102(%rip)
	movq	%rbx, sp7.101(%rip)
	movq	%rbp, sp8.100(%rip)
	movq	(%r14), %rax
	movq	%rax, addr_save.109(%rip)
	movl	$1, mem_benchmark_rerun(%rip)
	popq	%rbx
	.cfi_def_cfa_offset 40
	popq	%rbp
	.cfi_def_cfa_offset 32
	popq	%r12
	.cfi_def_cfa_offset 24
	popq	%r13
	.cfi_def_cfa_offset 16
	popq	%r14
	.cfi_def_cfa_offset 8
	ret
	.cfi_endproc
.LFE80:
	.size	mem_benchmark_8, .-mem_benchmark_8
	.globl	mem_benchmark_9
	.type	mem_benchmark_9, @function
mem_benchmark_9:
.LFB81:
	.cfi_startproc
	endbr64
	pushq	%r15
	.cfi_def_cfa_offset 16
	.cfi_offset 15, -16
	pushq	%r14
	.cfi_def_cfa_offset 24
	.cfi_offset 14, -24
	pushq	%r13
	.cfi_def_cfa_offset 32
	.cfi_offset 13, -32
	pushq	%r12
	.cfi_def_cfa_offset 40
	.cfi_offset 12, -40
	pushq	%rbp
	.cfi_def_cfa_offset 48
	.cfi_offset 6, -48
	pushq	%rbx
	.cfi_def_cfa_offset 56
	.cfi_offset 3, -56
	movq	%rdi, %r12
	movq	%rsi, -8(%rsp)
	movl	mem_benchmark_rerun(%rip), %eax
	testl	%eax, %eax
	je	.L212
	movq	addr_save.99(%rip), %rcx
	cmpq	%rcx, (%rsi)
	je	.L253
	movq	-8(%rsp), %rcx
	movq	16(%rcx), %rdx
	movq	addr_save.99(%rip), %rsi
	cmpq	%rsi, (%rcx)
	je	.L214
	movq	-8(%rsp), %rcx
	movq	24(%rcx), %rcx
	testl	%eax, %eax
	je	.L215
	movq	-8(%rsp), %rdi
	movq	addr_save.99(%rip), %rsi
	cmpq	%rsi, (%rdi)
	je	.L217
	movq	32(%rdi), %rsi
	testl	%eax, %eax
	je	.L218
	movq	-8(%rsp), %rdi
	movq	addr_save.99(%rip), %rbx
	cmpq	%rbx, (%rdi)
	je	.L220
	movq	40(%rdi), %rdi
	testl	%eax, %eax
	je	.L221
	movq	-8(%rsp), %rbx
	movq	addr_save.99(%rip), %r14
	cmpq	%r14, (%rbx)
	je	.L223
	movq	48(%rbx), %r8
	testl	%eax, %eax
	je	.L224
	movq	-8(%rsp), %rbx
	movq	addr_save.99(%rip), %r15
	cmpq	%r15, (%rbx)
	je	.L226
	movq	56(%rbx), %r9
	testl	%eax, %eax
	je	.L227
	movq	-8(%rsp), %rbx
	movq	addr_save.99(%rip), %r14
	cmpq	%r14, (%rbx)
	je	.L241
	movq	-8(%rsp), %rbx
	movq	64(%rbx), %r10
	movq	addr_save.99(%rip), %r15
	cmpq	%r15, (%rbx)
	je	.L229
	movq	-8(%rsp), %rbx
	movq	72(%rbx), %r11
	testl	%eax, %eax
	je	.L230
	movq	-8(%rsp), %rax
	movq	addr_save.99(%rip), %rbx
	cmpq	%rbx, (%rax)
	je	.L238
	movq	-8(%rsp), %rax
	movq	80(%rax), %rbx
	movq	addr_save.99(%rip), %r14
	cmpq	%r14, (%rax)
	jne	.L236
	jmp	.L232
.L253:
	movq	sp0.98(%rip), %rdx
.L214:
	movq	sp1.97(%rip), %rcx
.L217:
	movq	sp2.96(%rip), %rsi
.L220:
	movq	sp3.95(%rip), %rdi
.L223:
	movq	sp4.94(%rip), %r8
.L226:
	movq	sp5.93(%rip), %r9
.L241:
	movq	sp6.92(%rip), %r10
.L229:
	movq	sp7.91(%rip), %r11
.L238:
	movq	sp8.90(%rip), %rbx
.L232:
	movq	sp9.89(%rip), %rbp
	jmp	.L235
.L212:
	movq	-8(%rsp), %rax
	movq	16(%rax), %rdx
	movq	24(%rax), %rcx
.L215:
	movq	-8(%rsp), %rax
	movq	32(%rax), %rsi
.L218:
	movq	-8(%rsp), %rax
	movq	40(%rax), %rdi
.L221:
	movq	-8(%rsp), %rax
	movq	48(%rax), %r8
.L224:
	movq	-8(%rsp), %rax
	movq	56(%rax), %r9
.L227:
	movq	-8(%rsp), %rax
	movq	64(%rax), %r10
	movq	72(%rax), %r11
.L230:
	movq	-8(%rsp), %rax
	movq	80(%rax), %rbx
.L236:
	movq	-8(%rsp), %rax
	movq	88(%rax), %rbp
.L235:
	leaq	-1(%r12), %rax
	testq	%r12, %r12
	je	.L234
.L233:
	movq	(%rdx), %rdx
	movq	(%rcx), %rcx
	movq	(%rsi), %rsi
	movq	(%rdi), %rdi
	movq	(%r8), %r12
	movq	(%r9), %r9
	movq	(%r10), %r10
	movq	(%r11), %r11
	movq	(%rbx), %rbx
	movq	0(%rbp), %r8
	movq	(%rdx), %rdx
	movq	(%rcx), %rcx
	movq	(%rsi), %rsi
	movq	(%rdi), %rbp
	movq	(%r12), %r12
	movq	(%r9), %r9
	movq	(%r10), %r10
	movq	(%r11), %r11
	movq	(%rbx), %rdi
	movq	(%r8), %r8
	movq	(%rdx), %rdx
	movq	(%rcx), %rcx
	movq	(%rsi), %rbx
	movq	0(%rbp), %rbp
	movq	(%r12), %r12
	movq	(%r9), %r9
	movq	(%r10), %r10
	movq	(%r11), %rsi
	movq	(%rdi), %rdi
	movq	(%r8), %r8
	movq	(%rdx), %rdx
	movq	(%rcx), %r11
	movq	(%rbx), %rbx
	movq	0(%rbp), %rbp
	movq	(%r12), %r12
	movq	(%r9), %r9
	movq	(%r10), %rcx
	movq	(%rsi), %rsi
	movq	(%rdi), %rdi
	movq	(%r8), %r8
	movq	(%rdx), %r10
	movq	(%r11), %r11
	movq	(%rbx), %rbx
	movq	0(%rbp), %rbp
	movq	(%r12), %r12
	movq	(%r9), %rdx
	movq	(%rcx), %rcx
	movq	(%rsi), %rsi
	movq	(%rdi), %rdi
	movq	(%r8), %r9
	movq	(%r10), %r10
	movq	(%r11), %r11
	movq	(%rbx), %rbx
	movq	0(%rbp), %rbp
	movq	(%r12), %r8
	movq	(%rdx), %rdx
	movq	(%rcx), %rcx
	movq	(%rsi), %rsi
	movq	(%rdi), %r12
	movq	(%r9), %r9
	movq	(%r10), %r10
	movq	(%r11), %r11
	movq	(%rbx), %rbx
	movq	0(%rbp), %rdi
	movq	(%r8), %r8
	movq	(%rdx), %rdx
	movq	(%rcx), %rcx
	movq	(%rsi), %rbp
	movq	(%r12), %r12
	movq	(%r9), %r9
	movq	(%r10), %r10
	movq	(%r11), %r11
	movq	(%rbx), %rsi
	movq	(%rdi), %rdi
	movq	(%r8), %r8
	movq	(%rdx), %rdx
	movq	(%rcx), %rbx
	movq	0(%rbp), %rbp
	movq	(%r12), %r12
	movq	(%r9), %r9
	movq	(%r10), %r10
	movq	(%r11), %rcx
	movq	(%rsi), %rsi
	movq	(%rdi), %rdi
	movq	(%r8), %r8
	movq	(%rdx), %r11
	movq	(%rbx), %rbx
	movq	0(%rbp), %rbp
	movq	(%r12), %r12
	movq	(%r9), %r9
	movq	(%r10), %rdx
	movq	(%rcx), %rcx
	movq	(%rsi), %rsi
	movq	(%rdi), %rdi
	movq	(%r8), %r10
	movq	(%r11), %r11
	movq	(%rbx), %rbx
	movq	0(%rbp), %rbp
	movq	(%r12), %r12
	movq	(%r9), %r8
	movq	(%rdx), %rdx
	movq	(%rcx), %rcx
	movq	(%rsi), %rsi
	movq	(%rdi), %r9
	movq	(%r10), %r10
	movq	(%r11), %r11
	movq	(%rbx), %rbx
	movq	0(%rbp), %rbp
	movq	(%r12), %rdi
	movq	(%r8), %r8
	movq	(%rdx), %rdx
	movq	(%rcx), %rcx
	movq	(%rsi), %r12
	movq	(%r9), %r9
	movq	(%r10), %r10
	movq	(%r11), %r11
	movq	(%rbx), %rbx
	movq	0(%rbp), %rsi
	movq	(%rdi), %rdi
	movq	(%r8), %r8
	movq	(%rdx), %rdx
	movq	(%rcx), %rbp
	movq	(%r12), %r12
	movq	(%r9), %r9
	movq	(%r10), %r10
	movq	(%r11), %r11
	movq	(%rbx), %rcx
	movq	(%rsi), %rsi
	movq	(%rdi), %rdi
	movq	(%r8), %r8
	movq	(%rdx), %rbx
	movq	0(%rbp), %rbp
	movq	(%r12), %r12
	movq	(%r9), %r9
	movq	(%r10), %r10
	movq	(%r11), %rdx
	movq	(%rcx), %rcx
	movq	(%rsi), %rsi
	movq	(%rdi), %rdi
	movq	(%r8), %r11
	movq	(%rbx), %rbx
	movq	0(%rbp), %rbp
	movq	(%r12), %r12
	movq	(%r9), %r9
	movq	(%r10), %r8
	movq	(%rdx), %rdx
	movq	(%rcx), %rcx
	movq	(%rsi), %rsi
	movq	(%rdi), %r10
	movq	(%r11), %r11
	movq	(%rbx), %rbx
	movq	0(%rbp), %rbp
	movq	(%r12), %r12
	movq	(%r9), %rdi
	movq	(%r8), %r8
	movq	(%rdx), %rdx
	movq	(%rcx), %rcx
	movq	(%rsi), %r9
	movq	(%r10), %r10
	movq	(%r11), %r11
	movq	(%rbx), %rbx
	movq	0(%rbp), %rbp
	movq	(%r12), %rsi
	movq	(%rdi), %rdi
	movq	(%r8), %r8
	movq	(%rdx), %rdx
	movq	(%rcx), %r12
	movq	(%r9), %r9
	movq	(%r10), %r10
	movq	(%r11), %r11
	movq	(%rbx), %rbx
	movq	0(%rbp), %rcx
	movq	(%rsi), %rsi
	movq	(%rdi), %rdi
	movq	(%r8), %r8
	movq	(%rdx), %rbp
	movq	(%r12), %r12
	movq	(%r9), %r9
	movq	(%r10), %r10
	movq	(%r11), %r11
	movq	(%rbx), %rdx
	movq	(%rcx), %rcx
	movq	(%rsi), %rsi
	movq	(%rdi), %rdi
	movq	(%r8), %rbx
	movq	0(%rbp), %rbp
	movq	(%r12), %r12
	movq	(%r9), %r9
	movq	(%r10), %r10
	movq	(%r11), %r8
	movq	(%rdx), %rdx
	movq	(%rcx), %rcx
	movq	(%rsi), %rsi
	movq	(%rdi), %r11
	movq	(%rbx), %rbx
	movq	0(%rbp), %rbp
	movq	(%r12), %r12
	movq	(%r9), %r9
	movq	(%r10), %rdi
	movq	(%r8), %r8
	movq	(%rdx), %rdx
	movq	(%rcx), %rcx
	movq	(%rsi), %r10
	movq	(%r11), %r11
	movq	(%rbx), %rbx
	movq	0(%rbp), %rbp
	movq	(%r12), %r12
	movq	(%r9), %rsi
	movq	(%rdi), %rdi
	movq	(%r8), %r8
	movq	(%rdx), %rdx
	movq	(%rcx), %r9
	movq	(%r10), %r10
	movq	(%r11), %r11
	movq	(%rbx), %rbx
	movq	0(%rbp), %rbp
	movq	(%r12), %rcx
	movq	(%rsi), %rsi
	movq	(%rdi), %rdi
	movq	(%r8), %r8
	movq	(%rdx), %r12
	movq	(%r9), %r9
	movq	(%r10), %r10
	movq	(%r11), %r11
	movq	(%rbx), %rbx
	movq	0(%rbp), %rdx
	movq	(%rcx), %rcx
	movq	(%rsi), %rsi
	movq	(%rdi), %rdi
	movq	(%r8), %rbp
	movq	(%r12), %r12
	movq	(%r9), %r9
	movq	(%r10), %r10
	movq	(%r11), %r11
	movq	(%rbx), %r8
	movq	(%rdx), %rdx
	movq	(%rcx), %rcx
	movq	(%rsi), %rsi
	movq	(%rdi), %rbx
	movq	0(%rbp), %rbp
	movq	(%r12), %r12
	movq	(%r9), %r9
	movq	(%r10), %r10
	movq	(%r11), %rdi
	movq	(%r8), %r8
	movq	(%rdx), %rdx
	movq	(%rcx), %rcx
	movq	(%rsi), %r11
	movq	(%rbx), %rbx
	movq	0(%rbp), %rbp
	movq	(%r12), %r12
	movq	(%r9), %r9
	movq	(%r10), %rsi
	movq	(%rdi), %rdi
	movq	(%r8), %r8
	movq	(%rdx), %rdx
	movq	(%rcx), %r10
	movq	(%r11), %r11
	movq	(%rbx), %rbx
	movq	0(%rbp), %rbp
	movq	(%r12), %r12
	movq	(%r9), %rcx
	movq	(%rsi), %rsi
	movq	(%rdi), %rdi
	movq	(%r8), %r8
	movq	(%rdx), %r9
	movq	(%r10), %r10
	movq	(%r11), %r11
	movq	(%rbx), %rbx
	movq	0(%rbp), %rbp
	movq	(%r12), %rdx
	movq	(%rcx), %rcx
	movq	(%rsi), %rsi
	movq	(%rdi), %rdi
	movq	(%r8), %r12
	movq	(%r9), %r9
	movq	(%r10), %r10
	movq	(%r11), %r11
	movq	(%rbx), %rbx
	movq	0(%rbp), %r8
	movq	(%rdx), %rdx
	movq	(%rcx), %rcx
	movq	(%rsi), %rsi
	movq	(%rdi), %rbp
	movq	(%r12), %r12
	movq	(%r9), %r9
	movq	(%r10), %r10
	movq	(%r11), %r11
	movq	(%rbx), %rdi
	movq	(%r8), %r8
	movq	(%rdx), %rdx
	movq	(%rcx), %rcx
	movq	(%rsi), %rbx
	movq	0(%rbp), %rbp
	movq	(%r12), %r12
	movq	(%r9), %r9
	movq	(%r10), %r10
	movq	(%r11), %rsi
	movq	(%rdi), %rdi
	movq	(%r8), %r8
	movq	(%rdx), %rdx
	movq	(%rcx), %r11
	movq	(%rbx), %rbx
	movq	0(%rbp), %rbp
	movq	(%r12), %r12
	movq	(%r9), %r9
	movq	(%r10), %rcx
	movq	(%rsi), %rsi
	movq	(%rdi), %rdi
	movq	(%r8), %r8
	movq	(%rdx), %r10
	movq	(%r11), %r11
	movq	(%rbx), %rbx
	movq	0(%rbp), %rbp
	movq	(%r12), %r12
	movq	(%r9), %rdx
	movq	(%rcx), %rcx
	movq	(%rsi), %rsi
	movq	(%rdi), %rdi
	movq	(%r8), %r9
	movq	(%r10), %r10
	movq	(%r11), %r11
	movq	(%rbx), %rbx
	movq	0(%rbp), %rbp
	movq	(%r12), %r8
	movq	(%rdx), %rdx
	movq	(%rcx), %rcx
	movq	(%rsi), %rsi
	movq	(%rdi), %r12
	movq	(%r9), %r9
	movq	(%r10), %r10
	movq	(%r11), %r11
	movq	(%rbx), %rbx
	movq	0(%rbp), %rdi
	movq	(%r8), %r8
	movq	(%rdx), %rdx
	movq	(%rcx), %rcx
	movq	(%rsi), %rbp
	movq	(%r12), %r12
	movq	(%r9), %r9
	movq	(%r10), %r10
	movq	(%r11), %r11
	movq	(%rbx), %rsi
	movq	(%rdi), %rdi
	movq	(%r8), %r8
	movq	(%rdx), %rdx
	movq	(%rcx), %rbx
	movq	0(%rbp), %rbp
	movq	(%r12), %r12
	movq	(%r9), %r9
	movq	(%r10), %r10
	movq	(%r11), %rcx
	movq	(%rsi), %rsi
	movq	(%rdi), %rdi
	movq	(%r8), %r8
	movq	(%rdx), %r11
	movq	(%rbx), %rbx
	movq	0(%rbp), %rbp
	movq	(%r12), %r12
	movq	(%r9), %r9
	movq	(%r10), %rdx
	movq	(%rcx), %rcx
	movq	(%rsi), %rsi
	movq	(%rdi), %rdi
	movq	(%r8), %r10
	movq	(%r11), %r11
	movq	(%rbx), %rbx
	movq	0(%rbp), %rbp
	movq	(%r12), %r12
	movq	(%r9), %r8
	movq	(%rdx), %rdx
	movq	(%rcx), %rcx
	movq	(%rsi), %rsi
	movq	(%rdi), %r9
	movq	(%r10), %r10
	movq	(%r11), %r11
	movq	(%rbx), %rbx
	movq	0(%rbp), %rbp
	movq	(%r12), %rdi
	movq	(%r8), %r8
	movq	(%rdx), %rdx
	movq	(%rcx), %rcx
	movq	(%rsi), %r12
	movq	(%r9), %r9
	movq	(%r10), %r10
	movq	(%r11), %r11
	movq	(%rbx), %rbx
	movq	0(%rbp), %rsi
	movq	(%rdi), %rdi
	movq	(%r8), %r8
	movq	(%rdx), %rdx
	movq	(%rcx), %rbp
	movq	(%r12), %r12
	movq	(%r9), %r9
	movq	(%r10), %r10
	movq	(%r11), %r11
	movq	(%rbx), %rcx
	movq	(%rsi), %rsi
	movq	(%rdi), %rdi
	movq	(%r8), %r8
	movq	(%rdx), %rbx
	movq	0(%rbp), %rbp
	movq	(%r12), %r12
	movq	(%r9), %r9
	movq	(%r10), %r10
	movq	(%r11), %rdx
	movq	(%rcx), %rcx
	movq	(%rsi), %rsi
	movq	(%rdi), %rdi
	movq	(%r8), %r11
	movq	(%rbx), %rbx
	movq	0(%rbp), %rbp
	movq	(%r12), %r12
	movq	(%r9), %r9
	movq	(%r10), %r8
	movq	(%rdx), %rdx
	movq	(%rcx), %rcx
	movq	(%rsi), %rsi
	movq	(%rdi), %r10
	movq	(%r11), %r11
	movq	(%rbx), %rbx
	movq	0(%rbp), %rbp
	movq	(%r12), %r12
	movq	(%r9), %rdi
	movq	(%r8), %r8
	movq	(%rdx), %rdx
	movq	(%rcx), %rcx
	movq	(%rsi), %r9
	movq	(%r10), %r10
	movq	(%r11), %r11
	movq	(%rbx), %rbx
	movq	0(%rbp), %rbp
	movq	(%r12), %rsi
	movq	(%rdi), %rdi
	movq	(%r8), %r8
	movq	(%rdx), %rdx
	movq	(%rcx), %r12
	movq	(%r9), %r9
	movq	(%r10), %r10
	movq	(%r11), %r11
	movq	(%rbx), %rbx
	movq	0(%rbp), %rcx
	movq	(%rsi), %rsi
	movq	(%rdi), %rdi
	movq	(%r8), %r8
	movq	(%rdx), %rbp
	movq	(%r12), %r12
	movq	(%r9), %r9
	movq	(%r10), %r10
	movq	(%r11), %r11
	movq	(%rbx), %rdx
	movq	(%rcx), %rcx
	movq	(%rsi), %rsi
	movq	(%rdi), %rdi
	movq	(%r8), %rbx
	movq	0(%rbp), %rbp
	movq	(%r12), %r12
	movq	(%r9), %r9
	movq	(%r10), %r10
	movq	(%r11), %r8
	movq	(%rdx), %rdx
	movq	(%rcx), %rcx
	movq	(%rsi), %rsi
	movq	(%rdi), %r11
	movq	(%rbx), %rbx
	movq	0(%rbp), %rbp
	movq	(%r12), %r12
	movq	(%r9), %r9
	movq	(%r10), %rdi
	movq	(%r8), %r8
	movq	(%rdx), %rdx
	movq	(%rcx), %rcx
	movq	(%rsi), %r10
	movq	(%r11), %r11
	movq	(%rbx), %rbx
	movq	0(%rbp), %rbp
	movq	(%r12), %r12
	movq	(%r9), %rsi
	movq	(%rdi), %rdi
	movq	(%r8), %r8
	movq	(%rdx), %rdx
	movq	(%rcx), %r9
	movq	(%r10), %r10
	movq	(%r11), %r11
	movq	(%rbx), %rbx
	movq	0(%rbp), %rbp
	movq	(%r12), %rcx
	movq	(%rsi), %rsi
	movq	(%rdi), %rdi
	movq	(%r8), %r8
	movq	(%rdx), %r12
	movq	(%r9), %r9
	movq	(%r10), %r10
	movq	(%r11), %r11
	movq	(%rbx), %rbx
	movq	0(%rbp), %rdx
	movq	(%rcx), %rcx
	movq	(%rsi), %rsi
	movq	(%rdi), %rdi
	movq	(%r8), %rbp
	movq	(%r12), %r12
	movq	(%r9), %r9
	movq	(%r10), %r10
	movq	(%r11), %r11
	movq	(%rbx), %r8
	movq	(%rdx), %rdx
	movq	(%rcx), %rcx
	movq	(%rsi), %rsi
	movq	(%rdi), %rbx
	movq	0(%rbp), %rbp
	movq	(%r12), %r12
	movq	(%r9), %r9
	movq	(%r10), %r10
	movq	(%r11), %rdi
	movq	(%r8), %r8
	movq	(%rdx), %rdx
	movq	(%rcx), %rcx
	movq	(%rsi), %r11
	movq	(%rbx), %rbx
	movq	0(%rbp), %rbp
	movq	(%r12), %r12
	movq	(%r9), %r9
	movq	(%r10), %rsi
	movq	(%rdi), %rdi
	movq	(%r8), %r8
	movq	(%rdx), %rdx
	movq	(%rcx), %r10
	movq	(%r11), %r11
	movq	(%rbx), %rbx
	movq	0(%rbp), %rbp
	movq	(%r12), %r12
	movq	(%r9), %rcx
	movq	(%rsi), %rsi
	movq	(%rdi), %rdi
	movq	(%r8), %r8
	movq	(%rdx), %r9
	movq	(%r10), %r10
	movq	(%r11), %r11
	movq	(%rbx), %rbx
	movq	0(%rbp), %rbp
	movq	(%r12), %rdx
	movq	(%rcx), %rcx
	movq	(%rsi), %rsi
	movq	(%rdi), %rdi
	movq	(%r8), %r12
	movq	(%r9), %r9
	movq	(%r10), %r10
	movq	(%r11), %r11
	movq	(%rbx), %rbx
	movq	0(%rbp), %r8
	movq	(%rdx), %rdx
	movq	(%rcx), %rcx
	movq	(%rsi), %rsi
	movq	(%rdi), %rbp
	movq	(%r12), %r12
	movq	(%r9), %r9
	movq	(%r10), %r10
	movq	(%r11), %r11
	movq	(%rbx), %rdi
	movq	(%r8), %r8
	movq	(%rdx), %rdx
	movq	(%rcx), %rcx
	movq	(%rsi), %rbx
	movq	0(%rbp), %rbp
	movq	(%r12), %r12
	movq	(%r9), %r9
	movq	(%r10), %r10
	movq	(%r11), %rsi
	movq	(%rdi), %rdi
	movq	(%r8), %r8
	movq	(%rdx), %rdx
	movq	(%rcx), %r11
	movq	(%rbx), %rbx
	movq	0(%rbp), %rbp
	movq	(%r12), %r12
	movq	(%r9), %r9
	movq	(%r10), %rcx
	movq	(%rsi), %rsi
	movq	(%rdi), %rdi
	movq	(%r8), %r8
	movq	(%rdx), %r10
	movq	(%r11), %r11
	movq	(%rbx), %rbx
	movq	0(%rbp), %rbp
	movq	(%r12), %r12
	movq	(%r9), %rdx
	movq	(%rcx), %rcx
	movq	(%rsi), %rsi
	movq	(%rdi), %rdi
	movq	(%r8), %r9
	movq	(%r10), %r10
	movq	(%r11), %r11
	movq	(%rbx), %rbx
	movq	0(%rbp), %rbp
	movq	(%r12), %r8
	movq	(%rdx), %rdx
	movq	(%rcx), %rcx
	movq	(%rsi), %rsi
	movq	(%rdi), %r12
	movq	(%r9), %r9
	movq	(%r10), %r10
	movq	(%r11), %r11
	movq	(%rbx), %rbx
	movq	0(%rbp), %rdi
	movq	(%r8), %r8
	movq	(%rdx), %rdx
	movq	(%rcx), %rcx
	movq	(%rsi), %rbp
	movq	(%r12), %r12
	movq	(%r9), %r9
	movq	(%r10), %r10
	movq	(%r11), %r11
	movq	(%rbx), %rsi
	movq	(%rdi), %rdi
	movq	(%r8), %r8
	movq	(%rdx), %rdx
	movq	(%rcx), %rbx
	movq	0(%rbp), %rbp
	movq	(%r12), %r12
	movq	(%r9), %r9
	movq	(%r10), %r10
	movq	(%r11), %rcx
	movq	(%rsi), %rsi
	movq	(%rdi), %rdi
	movq	(%r8), %r8
	movq	(%rdx), %r11
	movq	(%rbx), %rbx
	movq	0(%rbp), %rbp
	movq	(%r12), %r12
	movq	(%r9), %r9
	movq	(%r10), %rdx
	movq	(%rcx), %rcx
	movq	(%rsi), %rsi
	movq	(%rdi), %rdi
	movq	(%r8), %r10
	movq	(%r11), %r11
	movq	(%rbx), %rbx
	movq	0(%rbp), %rbp
	movq	(%r12), %r12
	movq	(%r9), %r8
	movq	(%rdx), %rdx
	movq	(%rcx), %rcx
	movq	(%rsi), %rsi
	movq	(%rdi), %r9
	movq	(%r10), %r10
	movq	(%r11), %r11
	movq	(%rbx), %rbx
	movq	0(%rbp), %rbp
	movq	(%r12), %rdi
	movq	(%r8), %r8
	movq	(%rdx), %rdx
	movq	(%rcx), %rcx
	movq	(%rsi), %r12
	movq	(%r9), %r9
	movq	(%r10), %r10
	movq	(%r11), %r11
	movq	(%rbx), %rbx
	movq	0(%rbp), %rsi
	movq	(%rdi), %rdi
	movq	(%r8), %r8
	movq	(%rdx), %rdx
	movq	(%rcx), %rbp
	movq	(%r12), %r12
	movq	(%r9), %r9
	movq	(%r10), %r10
	movq	(%r11), %r11
	movq	(%rbx), %rcx
	movq	(%rsi), %rsi
	movq	(%rdi), %rdi
	movq	(%r8), %r8
	movq	(%rdx), %rbx
	movq	0(%rbp), %rbp
	movq	(%r12), %r12
	movq	(%r9), %r9
	movq	(%r10), %r10
	movq	(%r11), %rdx
	movq	(%rcx), %rcx
	movq	(%rsi), %rsi
	movq	(%rdi), %rdi
	movq	(%r8), %r11
	movq	(%rbx), %rbx
	movq	0(%rbp), %rbp
	movq	(%r12), %r12
	movq	(%r9), %r9
	movq	(%r10), %r8
	movq	(%rdx), %rdx
	movq	(%rcx), %rcx
	movq	(%rsi), %rsi
	movq	(%rdi), %r10
	movq	(%r11), %r11
	movq	(%rbx), %rbx
	movq	0(%rbp), %rbp
	movq	(%r12), %r12
	movq	(%r9), %rdi
	movq	(%r8), %r8
	movq	(%rdx), %rdx
	movq	(%rcx), %rcx
	movq	(%rsi), %r9
	movq	(%r10), %r10
	movq	(%r11), %r11
	movq	(%rbx), %rbx
	movq	0(%rbp), %rbp
	movq	(%r12), %rsi
	movq	(%rdi), %rdi
	movq	(%r8), %r8
	movq	(%rdx), %rdx
	movq	(%rcx), %r12
	movq	(%r9), %r9
	movq	(%r10), %r10
	movq	(%r11), %r11
	movq	(%rbx), %rbx
	movq	0(%rbp), %rcx
	movq	(%rsi), %rsi
	movq	(%rdi), %rdi
	movq	(%r8), %r8
	movq	(%rdx), %rbp
	movq	(%r12), %r12
	movq	(%r9), %r9
	movq	(%r10), %r10
	movq	(%r11), %r11
	movq	(%rbx), %rdx
	movq	(%rcx), %rcx
	movq	(%rsi), %rsi
	movq	(%rdi), %rdi
	movq	(%r8), %rbx
	movq	0(%rbp), %rbp
	movq	(%r12), %r12
	movq	(%r9), %r9
	movq	(%r10), %r10
	movq	(%r11), %r8
	movq	(%rdx), %rdx
	movq	(%rcx), %rcx
	movq	(%rsi), %rsi
	movq	(%rdi), %r11
	movq	(%rbx), %rbx
	movq	0(%rbp), %rbp
	movq	(%r12), %r12
	movq	(%r9), %r9
	movq	(%r10), %rdi
	movq	(%r8), %r8
	movq	(%rdx), %rdx
	movq	(%rcx), %rcx
	movq	(%rsi), %r10
	movq	(%r11), %r11
	movq	(%rbx), %rbx
	movq	0(%rbp), %rbp
	movq	(%r12), %r12
	movq	(%r9), %rsi
	movq	(%rdi), %rdi
	movq	(%r8), %r8
	movq	(%rdx), %rdx
	movq	(%rcx), %r9
	movq	(%r10), %r10
	movq	(%r11), %r11
	movq	(%rbx), %rbx
	movq	0(%rbp), %rbp
	movq	(%r12), %rcx
	movq	(%rsi), %rsi
	movq	(%rdi), %rdi
	movq	(%r8), %r8
	movq	(%rdx), %r12
	movq	(%r9), %r9
	movq	(%r10), %r10
	movq	(%r11), %r11
	movq	(%rbx), %rbx
	movq	0(%rbp), %rdx
	movq	(%rcx), %rcx
	movq	(%rsi), %rsi
	movq	(%rdi), %rdi
	movq	(%r8), %rbp
	movq	(%r12), %r12
	movq	(%r9), %r9
	movq	(%r10), %r10
	movq	(%r11), %r11
	movq	(%rbx), %r8
	movq	(%rdx), %rdx
	movq	(%rcx), %rcx
	movq	(%rsi), %rsi
	movq	(%rdi), %rbx
	movq	0(%rbp), %rbp
	movq	(%r12), %r12
	movq	(%r9), %r9
	movq	(%r10), %r10
	movq	(%r11), %rdi
	movq	(%r8), %r8
	movq	(%rdx), %rdx
	movq	(%rcx), %rcx
	movq	(%rsi), %r11
	movq	(%rbx), %rbx
	movq	0(%rbp), %rbp
	movq	(%r12), %r12
	movq	(%r9), %r9
	movq	(%r10), %rsi
	movq	(%rdi), %rdi
	movq	(%r8), %r8
	movq	(%rdx), %rdx
	movq	(%rcx), %r10
	movq	(%r11), %r11
	movq	(%rbx), %rbx
	movq	0(%rbp), %rbp
	movq	(%r12), %r12
	movq	(%r9), %rcx
	movq	(%rsi), %rsi
	movq	(%rdi), %rdi
	movq	(%r8), %r8
	movq	(%rdx), %r9
	movq	(%r10), %r10
	movq	(%r11), %r11
	movq	(%rbx), %rbx
	movq	0(%rbp), %rbp
	movq	(%r12), %rdx
	movq	(%rcx), %rcx
	movq	(%rsi), %rsi
	movq	(%rdi), %rdi
	movq	(%r8), %r12
	movq	(%r9), %r9
	movq	(%r10), %r10
	movq	(%r11), %r11
	movq	(%rbx), %rbx
	movq	0(%rbp), %r8
	movq	(%rdx), %rdx
	movq	(%rcx), %rcx
	movq	(%rsi), %rsi
	movq	(%rdi), %rbp
	movq	(%r12), %r12
	movq	(%r9), %r9
	movq	(%r10), %r10
	movq	(%r11), %r11
	movq	(%rbx), %rdi
	movq	(%r8), %r8
	movq	(%rdx), %rdx
	movq	(%rcx), %rcx
	movq	(%rsi), %rbx
	movq	0(%rbp), %rbp
	movq	(%r12), %r12
	movq	(%r9), %r9
	movq	(%r10), %r10
	movq	(%r11), %rsi
	movq	(%rdi), %rdi
	movq	(%r8), %r8
	movq	(%rdx), %rdx
	movq	(%rcx), %r11
	movq	(%rbx), %rbx
	movq	0(%rbp), %rbp
	movq	(%r12), %r12
	movq	(%r9), %r9
	movq	(%r10), %rcx
	movq	(%rsi), %rsi
	movq	(%rdi), %rdi
	movq	(%r8), %r8
	movq	(%rdx), %r10
	movq	(%r11), %r11
	movq	(%rbx), %rbx
	movq	0(%rbp), %rbp
	movq	(%r12), %r12
	movq	(%r9), %rdx
	movq	(%rcx), %rcx
	movq	(%rsi), %rsi
	movq	(%rdi), %rdi
	movq	(%r8), %r9
	movq	(%r10), %r10
	movq	(%r11), %r11
	movq	(%rbx), %rbx
	movq	0(%rbp), %rbp
	movq	(%r12), %r8
	movq	(%rdx), %rdx
	movq	(%rcx), %rcx
	movq	(%rsi), %rsi
	movq	(%rdi), %r12
	movq	(%r9), %r9
	movq	(%r10), %r10
	movq	(%r11), %r11
	movq	(%rbx), %rbx
	movq	0(%rbp), %rdi
	movq	(%r8), %r8
	movq	(%rdx), %rdx
	movq	(%rcx), %rcx
	movq	(%rsi), %rbp
	movq	(%r12), %r12
	movq	(%r9), %r9
	movq	(%r10), %r10
	movq	(%r11), %r11
	movq	(%rbx), %rsi
	movq	(%rdi), %rdi
	movq	(%r8), %r8
	movq	(%rdx), %rdx
	movq	(%rcx), %rbx
	movq	0(%rbp), %rbp
	movq	(%r12), %r12
	movq	(%r9), %r9
	movq	(%r10), %r10
	movq	(%r11), %rcx
	movq	(%rsi), %rsi
	movq	(%rdi), %rdi
	movq	(%r8), %r8
	movq	(%rdx), %r11
	movq	(%rbx), %rbx
	movq	0(%rbp), %rbp
	movq	(%r12), %r12
	movq	(%r9), %r9
	movq	(%r10), %rdx
	movq	(%rcx), %rcx
	movq	(%rsi), %rsi
	movq	(%rdi), %rdi
	movq	(%r8), %r10
	movq	(%r11), %r11
	movq	(%rbx), %rbx
	movq	0(%rbp), %rbp
	movq	(%r12), %r12
	movq	(%r9), %r8
	movq	(%rdx), %rdx
	movq	(%rcx), %rcx
	movq	(%rsi), %rsi
	movq	(%rdi), %r9
	movq	(%r10), %r10
	movq	(%r11), %r11
	movq	(%rbx), %rbx
	movq	0(%rbp), %rbp
	movq	(%r12), %rdi
	movq	(%r8), %r8
	movq	(%rdx), %rdx
	movq	(%rcx), %rcx
	movq	(%rsi), %r12
	movq	(%r9), %r9
	movq	(%r10), %r10
	movq	(%r11), %r11
	movq	(%rbx), %rbx
	movq	0(%rbp), %rsi
	movq	(%rdi), %rdi
	movq	(%r8), %r8
	movq	(%rdx), %rdx
	movq	(%rcx), %rbp
	movq	(%r12), %r12
	movq	(%r9), %r9
	movq	(%r10), %r10
	movq	(%r11), %r11
	movq	(%rbx), %rcx
	movq	(%rsi), %rsi
	movq	(%rdi), %rdi
	movq	(%r8), %r8
	movq	(%rdx), %rbx
	movq	0(%rbp), %rbp
	movq	(%r12), %r12
	movq	(%r9), %r9
	movq	(%r10), %r10
	movq	(%r11), %rdx
	movq	(%rcx), %rcx
	movq	(%rsi), %rsi
	movq	(%rdi), %rdi
	movq	(%r8), %r11
	movq	(%rbx), %rbx
	movq	0(%rbp), %rbp
	movq	(%r12), %r12
	movq	(%r9), %r9
	movq	(%r10), %r8
	movq	(%rdx), %rdx
	movq	(%rcx), %rcx
	movq	(%rsi), %rsi
	movq	(%rdi), %r10
	movq	(%r11), %r11
	movq	(%rbx), %rbx
	movq	0(%rbp), %rbp
	movq	(%r12), %r12
	movq	(%r9), %rdi
	movq	(%r8), %r8
	movq	(%rdx), %rdx
	movq	(%rcx), %rcx
	movq	(%rsi), %r9
	movq	(%r10), %r10
	movq	(%r11), %r11
	movq	(%rbx), %rbx
	movq	0(%rbp), %rbp
	movq	(%r12), %rsi
	movq	(%rdi), %rdi
	movq	(%r8), %r8
	movq	(%rdx), %rdx
	movq	(%rcx), %r12
	movq	(%r9), %r9
	movq	(%r10), %r10
	movq	(%r11), %r11
	movq	(%rbx), %rbx
	movq	0(%rbp), %rcx
	movq	(%rsi), %rsi
	movq	(%rdi), %rdi
	movq	(%r8), %r8
	movq	(%rdx), %rbp
	movq	(%r12), %r12
	movq	(%r9), %r13
	movq	(%r10), %r14
	movq	(%r11), %r15
	movq	(%rbx), %rdx
	movq	(%rcx), %rcx
	movq	(%rsi), %rsi
	movq	(%rdi), %rdi
	movq	(%r8), %r8
	movq	0(%rbp), %r9
	movq	(%r12), %r10
	movq	0(%r13), %r11
	movq	(%r14), %rbx
	movq	(%r15), %rbp
	subq	$1, %rax
	cmpq	$-1, %rax
	jne	.L233
.L234:
	movq	%rdx, sp0.98(%rip)
	movq	%rcx, sp1.97(%rip)
	movq	%rsi, sp2.96(%rip)
	movq	%rdi, sp3.95(%rip)
	movq	%r8, sp4.94(%rip)
	movq	%r9, sp5.93(%rip)
	movq	%r10, sp6.92(%rip)
	movq	%r11, sp7.91(%rip)
	movq	%rbx, sp8.90(%rip)
	movq	%rbp, sp9.89(%rip)
	movq	-8(%rsp), %rax
	movq	(%rax), %rax
	movq	%rax, addr_save.99(%rip)
	movl	$1, mem_benchmark_rerun(%rip)
	popq	%rbx
	.cfi_def_cfa_offset 48
	popq	%rbp
	.cfi_def_cfa_offset 40
	popq	%r12
	.cfi_def_cfa_offset 32
	popq	%r13
	.cfi_def_cfa_offset 24
	popq	%r14
	.cfi_def_cfa_offset 16
	popq	%r15
	.cfi_def_cfa_offset 8
	ret
	.cfi_endproc
.LFE81:
	.size	mem_benchmark_9, .-mem_benchmark_9
	.globl	mem_benchmark_10
	.type	mem_benchmark_10, @function
mem_benchmark_10:
.LFB82:
	.cfi_startproc
	endbr64
	pushq	%r15
	.cfi_def_cfa_offset 16
	.cfi_offset 15, -16
	pushq	%r14
	.cfi_def_cfa_offset 24
	.cfi_offset 14, -24
	pushq	%r13
	.cfi_def_cfa_offset 32
	.cfi_offset 13, -32
	pushq	%r12
	.cfi_def_cfa_offset 40
	.cfi_offset 12, -40
	pushq	%rbp
	.cfi_def_cfa_offset 48
	.cfi_offset 6, -48
	pushq	%rbx
	.cfi_def_cfa_offset 56
	.cfi_offset 3, -56
	movq	%rdi, %r13
	movq	%rsi, -8(%rsp)
	movl	mem_benchmark_rerun(%rip), %eax
	testl	%eax, %eax
	je	.L255
	movq	addr_save.88(%rip), %rcx
	cmpq	%rcx, (%rsi)
	je	.L299
	movq	-8(%rsp), %rcx
	movq	16(%rcx), %rdx
	movq	addr_save.88(%rip), %rsi
	cmpq	%rsi, (%rcx)
	je	.L257
	movq	-8(%rsp), %rcx
	movq	24(%rcx), %rcx
	testl	%eax, %eax
	je	.L258
	movq	-8(%rsp), %rsi
	movq	addr_save.88(%rip), %rdi
	cmpq	%rdi, (%rsi)
	je	.L260
	movq	32(%rsi), %rsi
	testl	%eax, %eax
	je	.L261
	movq	-8(%rsp), %rdi
	movq	addr_save.88(%rip), %rbx
	cmpq	%rbx, (%rdi)
	je	.L263
	movq	40(%rdi), %rdi
	testl	%eax, %eax
	je	.L264
	movq	-8(%rsp), %rbx
	movq	addr_save.88(%rip), %r15
	cmpq	%r15, (%rbx)
	je	.L266
	movq	48(%rbx), %r8
	testl	%eax, %eax
	je	.L267
	movq	-8(%rsp), %rbx
	movq	addr_save.88(%rip), %r15
	cmpq	%r15, (%rbx)
	je	.L287
	movq	-8(%rsp), %rbx
	movq	56(%rbx), %r9
	movq	addr_save.88(%rip), %r15
	cmpq	%r15, (%rbx)
	je	.L269
	movq	-8(%rsp), %rbx
	movq	64(%rbx), %r10
	testl	%eax, %eax
	je	.L270
	movq	-8(%rsp), %rbx
	movq	addr_save.88(%rip), %r15
	cmpq	%r15, (%rbx)
	je	.L284
	movq	-8(%rsp), %rbx
	movq	72(%rbx), %r11
	movq	addr_save.88(%rip), %r15
	cmpq	%r15, (%rbx)
	je	.L272
	movq	-8(%rsp), %rbx
	movq	80(%rbx), %rbx
	testl	%eax, %eax
	je	.L273
	movq	-8(%rsp), %rax
	movq	addr_save.88(%rip), %r15
	cmpq	%r15, (%rax)
	je	.L281
	movq	-8(%rsp), %rax
	movq	88(%rax), %rbp
	movq	addr_save.88(%rip), %r15
	cmpq	%r15, (%rax)
	jne	.L279
	jmp	.L275
.L299:
	movq	sp0.87(%rip), %rdx
.L257:
	movq	sp1.86(%rip), %rcx
.L260:
	movq	sp2.85(%rip), %rsi
.L263:
	movq	sp3.84(%rip), %rdi
.L266:
	movq	sp4.83(%rip), %r8
.L287:
	movq	sp5.82(%rip), %r9
.L269:
	movq	sp6.81(%rip), %r10
.L284:
	movq	sp7.80(%rip), %r11
.L272:
	movq	sp8.79(%rip), %rbx
.L281:
	movq	sp9.78(%rip), %rbp
.L275:
	movq	sp10.77(%rip), %r12
	jmp	.L278
.L255:
	movq	-8(%rsp), %rax
	movq	16(%rax), %rdx
	movq	24(%rax), %rcx
.L258:
	movq	-8(%rsp), %rax
	movq	32(%rax), %rsi
.L261:
	movq	-8(%rsp), %rax
	movq	40(%rax), %rdi
.L264:
	movq	-8(%rsp), %rax
	movq	48(%rax), %r8
.L267:
	movq	-8(%rsp), %rax
	movq	56(%rax), %r9
	movq	64(%rax), %r10
.L270:
	movq	-8(%rsp), %rax
	movq	72(%rax), %r11
	movq	80(%rax), %rbx
.L273:
	movq	-8(%rsp), %rax
	movq	88(%rax), %rbp
.L279:
	movq	-8(%rsp), %rax
	movq	96(%rax), %r12
.L278:
	leaq	-1(%r13), %rax
	testq	%r13, %r13
	je	.L277
.L276:
	movq	(%rdx), %r14
	movq	(%rcx), %r13
	movq	(%rsi), %r15
	movq	(%rdi), %rdi
	movq	(%r8), %r8
	movq	(%r9), %r9
	movq	(%r10), %r10
	movq	(%r11), %r11
	movq	(%rbx), %rbx
	movq	0(%rbp), %rdx
	movq	(%r12), %rcx
	movq	(%r14), %rsi
	movq	0(%r13), %rbp
	movq	(%r15), %r12
	movq	(%rdi), %r13
	movq	(%r8), %r8
	movq	(%r9), %r9
	movq	(%r10), %r10
	movq	(%r11), %r11
	movq	(%rbx), %rdi
	movq	(%rdx), %rdx
	movq	(%rcx), %rcx
	movq	(%rsi), %rbx
	movq	0(%rbp), %rbp
	movq	(%r12), %r12
	movq	0(%r13), %r13
	movq	(%r8), %r8
	movq	(%r9), %r9
	movq	(%r10), %r10
	movq	(%r11), %rsi
	movq	(%rdi), %rdi
	movq	(%rdx), %rdx
	movq	(%rcx), %r11
	movq	(%rbx), %rbx
	movq	0(%rbp), %rbp
	movq	(%r12), %r12
	movq	0(%r13), %r13
	movq	(%r8), %r8
	movq	(%r9), %r9
	movq	(%r10), %rcx
	movq	(%rsi), %rsi
	movq	(%rdi), %rdi
	movq	(%rdx), %r10
	movq	(%r11), %r11
	movq	(%rbx), %rbx
	movq	0(%rbp), %rbp
	movq	(%r12), %r12
	movq	0(%r13), %r13
	movq	(%r8), %r8
	movq	(%r9), %rdx
	movq	(%rcx), %rcx
	movq	(%rsi), %rsi
	movq	(%rdi), %r9
	movq	(%r10), %r10
	movq	(%r11), %r11
	movq	(%rbx), %rbx
	movq	0(%rbp), %rbp
	movq	(%r12), %r12
	movq	0(%r13), %r13
	movq	(%r8), %rdi
	movq	(%rdx), %rdx
	movq	(%rcx), %rcx
	movq	(%rsi), %r8
	movq	(%r9), %r9
	movq	(%r10), %r10
	movq	(%r11), %r11
	movq	(%rbx), %rbx
	movq	0(%rbp), %rbp
	movq	(%r12), %r12
	movq	0(%r13), %rsi
	movq	(%rdi), %rdi
	movq	(%rdx), %rdx
	movq	(%rcx), %r13
	movq	(%r8), %r8
	movq	(%r9), %r9
	movq	(%r10), %r10
	movq	(%r11), %r11
	movq	(%rbx), %rbx
	movq	0(%rbp), %rbp
	movq	(%r12), %rcx
	movq	(%rsi), %rsi
	movq	(%rdi), %rdi
	movq	(%rdx), %r12
	movq	0(%r13), %r13
	movq	(%r8), %r8
	movq	(%r9), %r9
	movq	(%r10), %r10
	movq	(%r11), %r11
	movq	(%rbx), %rbx
	movq	0(%rbp), %rdx
	movq	(%rcx), %rcx
	movq	(%rsi), %rsi
	movq	(%rdi), %rbp
	movq	(%r12), %r12
	movq	0(%r13), %r13
	movq	(%r8), %r8
	movq	(%r9), %r9
	movq	(%r10), %r10
	movq	(%r11), %r11
	movq	(%rbx), %rdi
	movq	(%rdx), %rdx
	movq	(%rcx), %rcx
	movq	(%rsi), %rbx
	movq	0(%rbp), %rbp
	movq	(%r12), %r12
	movq	0(%r13), %r13
	movq	(%r8), %r8
	movq	(%r9), %r9
	movq	(%r10), %r10
	movq	(%r11), %rsi
	movq	(%rdi), %rdi
	movq	(%rdx), %rdx
	movq	(%rcx), %r11
	movq	(%rbx), %rbx
	movq	0(%rbp), %rbp
	movq	(%r12), %r12
	movq	0(%r13), %r13
	movq	(%r8), %r8
	movq	(%r9), %r9
	movq	(%r10), %rcx
	movq	(%rsi), %rsi
	movq	(%rdi), %rdi
	movq	(%rdx), %r10
	movq	(%r11), %r11
	movq	(%rbx), %rbx
	movq	0(%rbp), %rbp
	movq	(%r12), %r12
	movq	0(%r13), %r13
	movq	(%r8), %r8
	movq	(%r9), %rdx
	movq	(%rcx), %rcx
	movq	(%rsi), %rsi
	movq	(%rdi), %r9
	movq	(%r10), %r10
	movq	(%r11), %r11
	movq	(%rbx), %rbx
	movq	0(%rbp), %rbp
	movq	(%r12), %r12
	movq	0(%r13), %r13
	movq	(%r8), %rdi
	movq	(%rdx), %rdx
	movq	(%rcx), %rcx
	movq	(%rsi), %r8
	movq	(%r9), %r9
	movq	(%r10), %r10
	movq	(%r11), %r11
	movq	(%rbx), %rbx
	movq	0(%rbp), %rbp
	movq	(%r12), %r12
	movq	0(%r13), %rsi
	movq	(%rdi), %rdi
	movq	(%rdx), %rdx
	movq	(%rcx), %r13
	movq	(%r8), %r8
	movq	(%r9), %r9
	movq	(%r10), %r10
	movq	(%r11), %r11
	movq	(%rbx), %rbx
	movq	0(%rbp), %rbp
	movq	(%r12), %rcx
	movq	(%rsi), %rsi
	movq	(%rdi), %rdi
	movq	(%rdx), %r12
	movq	0(%r13), %r13
	movq	(%r8), %r8
	movq	(%r9), %r9
	movq	(%r10), %r10
	movq	(%r11), %r11
	movq	(%rbx), %rbx
	movq	0(%rbp), %rdx
	movq	(%rcx), %rcx
	movq	(%rsi), %rsi
	movq	(%rdi), %rbp
	movq	(%r12), %r12
	movq	0(%r13), %r13
	movq	(%r8), %r8
	movq	(%r9), %r9
	movq	(%r10), %r10
	movq	(%r11), %r11
	movq	(%rbx), %rdi
	movq	(%rdx), %rdx
	movq	(%rcx), %rcx
	movq	(%rsi), %rbx
	movq	0(%rbp), %rbp
	movq	(%r12), %r12
	movq	0(%r13), %r13
	movq	(%r8), %r8
	movq	(%r9), %r9
	movq	(%r10), %r10
	movq	(%r11), %rsi
	movq	(%rdi), %rdi
	movq	(%rdx), %rdx
	movq	(%rcx), %r11
	movq	(%rbx), %rbx
	movq	0(%rbp), %rbp
	movq	(%r12), %r12
	movq	0(%r13), %r13
	movq	(%r8), %r8
	movq	(%r9), %r9
	movq	(%r10), %rcx
	movq	(%rsi), %rsi
	movq	(%rdi), %rdi
	movq	(%rdx), %r10
	movq	(%r11), %r11
	movq	(%rbx), %rbx
	movq	0(%rbp), %rbp
	movq	(%r12), %r12
	movq	0(%r13), %r13
	movq	(%r8), %r8
	movq	(%r9), %rdx
	movq	(%rcx), %rcx
	movq	(%rsi), %rsi
	movq	(%rdi), %r9
	movq	(%r10), %r10
	movq	(%r11), %r11
	movq	(%rbx), %rbx
	movq	0(%rbp), %rbp
	movq	(%r12), %r12
	movq	0(%r13), %r13
	movq	(%r8), %rdi
	movq	(%rdx), %rdx
	movq	(%rcx), %rcx
	movq	(%rsi), %r8
	movq	(%r9), %r9
	movq	(%r10), %r10
	movq	(%r11), %r11
	movq	(%rbx), %rbx
	movq	0(%rbp), %rbp
	movq	(%r12), %r12
	movq	0(%r13), %rsi
	movq	(%rdi), %rdi
	movq	(%rdx), %rdx
	movq	(%rcx), %r13
	movq	(%r8), %r8
	movq	(%r9), %r9
	movq	(%r10), %r10
	movq	(%r11), %r11
	movq	(%rbx), %rbx
	movq	0(%rbp), %rbp
	movq	(%r12), %rcx
	movq	(%rsi), %rsi
	movq	(%rdi), %rdi
	movq	(%rdx), %r12
	movq	0(%r13), %r13
	movq	(%r8), %r8
	movq	(%r9), %r9
	movq	(%r10), %r10
	movq	(%r11), %r11
	movq	(%rbx), %rbx
	movq	0(%rbp), %rdx
	movq	(%rcx), %rcx
	movq	(%rsi), %rsi
	movq	(%rdi), %rbp
	movq	(%r12), %r12
	movq	0(%r13), %r13
	movq	(%r8), %r8
	movq	(%r9), %r9
	movq	(%r10), %r10
	movq	(%r11), %r11
	movq	(%rbx), %rdi
	movq	(%rdx), %rdx
	movq	(%rcx), %rcx
	movq	(%rsi), %rbx
	movq	0(%rbp), %rbp
	movq	(%r12), %r12
	movq	0(%r13), %r13
	movq	(%r8), %r8
	movq	(%r9), %r9
	movq	(%r10), %r10
	movq	(%r11), %rsi
	movq	(%rdi), %rdi
	movq	(%rdx), %rdx
	movq	(%rcx), %r11
	movq	(%rbx), %rbx
	movq	0(%rbp), %rbp
	movq	(%r12), %r12
	movq	0(%r13), %r13
	movq	(%r8), %r8
	movq	(%r9), %r9
	movq	(%r10), %rcx
	movq	(%rsi), %rsi
	movq	(%rdi), %rdi
	movq	(%rdx), %r10
	movq	(%r11), %r11
	movq	(%rbx), %rbx
	movq	0(%rbp), %rbp
	movq	(%r12), %r12
	movq	0(%r13), %r13
	movq	(%r8), %r8
	movq	(%r9), %rdx
	movq	(%rcx), %rcx
	movq	(%rsi), %rsi
	movq	(%rdi), %r9
	movq	(%r10), %r10
	movq	(%r11), %r11
	movq	(%rbx), %rbx
	movq	0(%rbp), %rbp
	movq	(%r12), %r12
	movq	0(%r13), %r13
	movq	(%r8), %rdi
	movq	(%rdx), %rdx
	movq	(%rcx), %rcx
	movq	(%rsi), %r8
	movq	(%r9), %r9
	movq	(%r10), %r10
	movq	(%r11), %r11
	movq	(%rbx), %rbx
	movq	0(%rbp), %rbp
	movq	(%r12), %r12
	movq	0(%r13), %rsi
	movq	(%rdi), %rdi
	movq	(%rdx), %rdx
	movq	(%rcx), %r13
	movq	(%r8), %r8
	movq	(%r9), %r9
	movq	(%r10), %r10
	movq	(%r11), %r11
	movq	(%rbx), %rbx
	movq	0(%rbp), %rbp
	movq	(%r12), %rcx
	movq	(%rsi), %rsi
	movq	(%rdi), %rdi
	movq	(%rdx), %r12
	movq	0(%r13), %r13
	movq	(%r8), %r8
	movq	(%r9), %r9
	movq	(%r10), %r10
	movq	(%r11), %r11
	movq	(%rbx), %rbx
	movq	0(%rbp), %rdx
	movq	(%rcx), %rcx
	movq	(%rsi), %rsi
	movq	(%rdi), %rbp
	movq	(%r12), %r12
	movq	0(%r13), %r13
	movq	(%r8), %r8
	movq	(%r9), %r9
	movq	(%r10), %r10
	movq	(%r11), %r11
	movq	(%rbx), %rdi
	movq	(%rdx), %rdx
	movq	(%rcx), %rcx
	movq	(%rsi), %rbx
	movq	0(%rbp), %rbp
	movq	(%r12), %r12
	movq	0(%r13), %r13
	movq	(%r8), %r8
	movq	(%r9), %r9
	movq	(%r10), %r10
	movq	(%r11), %rsi
	movq	(%rdi), %rdi
	movq	(%rdx), %rdx
	movq	(%rcx), %r11
	movq	(%rbx), %rbx
	movq	0(%rbp), %rbp
	movq	(%r12), %r12
	movq	0(%r13), %r13
	movq	(%r8), %r8
	movq	(%r9), %r9
	movq	(%r10), %rcx
	movq	(%rsi), %rsi
	movq	(%rdi), %rdi
	movq	(%rdx), %r10
	movq	(%r11), %r11
	movq	(%rbx), %rbx
	movq	0(%rbp), %rbp
	movq	(%r12), %r12
	movq	0(%r13), %r13
	movq	(%r8), %r8
	movq	(%r9), %rdx
	movq	(%rcx), %rcx
	movq	(%rsi), %rsi
	movq	(%rdi), %r9
	movq	(%r10), %r10
	movq	(%r11), %r11
	movq	(%rbx), %rbx
	movq	0(%rbp), %rbp
	movq	(%r12), %r12
	movq	0(%r13), %r13
	movq	(%r8), %rdi
	movq	(%rdx), %rdx
	movq	(%rcx), %rcx
	movq	(%rsi), %r8
	movq	(%r9), %r9
	movq	(%r10), %r10
	movq	(%r11), %r11
	movq	(%rbx), %rbx
	movq	0(%rbp), %rbp
	movq	(%r12), %r12
	movq	0(%r13), %rsi
	movq	(%rdi), %rdi
	movq	(%rdx), %rdx
	movq	(%rcx), %r13
	movq	(%r8), %r8
	movq	(%r9), %r9
	movq	(%r10), %r10
	movq	(%r11), %r11
	movq	(%rbx), %rbx
	movq	0(%rbp), %rbp
	movq	(%r12), %rcx
	movq	(%rsi), %rsi
	movq	(%rdi), %rdi
	movq	(%rdx), %r12
	movq	0(%r13), %r13
	movq	(%r8), %r8
	movq	(%r9), %r9
	movq	(%r10), %r10
	movq	(%r11), %r11
	movq	(%rbx), %rbx
	movq	0(%rbp), %rdx
	movq	(%rcx), %rcx
	movq	(%rsi), %rsi
	movq	(%rdi), %rbp
	movq	(%r12), %r12
	movq	0(%r13), %r13
	movq	(%r8), %r8
	movq	(%r9), %r9
	movq	(%r10), %r10
	movq	(%r11), %r11
	movq	(%rbx), %rdi
	movq	(%rdx), %rdx
	movq	(%rcx), %rcx
	movq	(%rsi), %rbx
	movq	0(%rbp), %rbp
	movq	(%r12), %r12
	movq	0(%r13), %r13
	movq	(%r8), %r8
	movq	(%r9), %r9
	movq	(%r10), %r10
	movq	(%r11), %rsi
	movq	(%rdi), %rdi
	movq	(%rdx), %rdx
	movq	(%rcx), %r11
	movq	(%rbx), %rbx
	movq	0(%rbp), %rbp
	movq	(%r12), %r12
	movq	0(%r13), %r13
	movq	(%r8), %r8
	movq	(%r9), %r9
	movq	(%r10), %rcx
	movq	(%rsi), %rsi
	movq	(%rdi), %rdi
	movq	(%rdx), %r10
	movq	(%r11), %r11
	movq	(%rbx), %rbx
	movq	0(%rbp), %rbp
	movq	(%r12), %r12
	movq	0(%r13), %r13
	movq	(%r8), %r8
	movq	(%r9), %rdx
	movq	(%rcx), %rcx
	movq	(%rsi), %rsi
	movq	(%rdi), %r9
	movq	(%r10), %r10
	movq	(%r11), %r11
	movq	(%rbx), %rbx
	movq	0(%rbp), %rbp
	movq	(%r12), %r12
	movq	0(%r13), %r13
	movq	(%r8), %rdi
	movq	(%rdx), %rdx
	movq	(%rcx), %rcx
	movq	(%rsi), %r8
	movq	(%r9), %r9
	movq	(%r10), %r10
	movq	(%r11), %r11
	movq	(%rbx), %rbx
	movq	0(%rbp), %rbp
	movq	(%r12), %r12
	movq	0(%r13), %rsi
	movq	(%rdi), %rdi
	movq	(%rdx), %rdx
	movq	(%rcx), %r13
	movq	(%r8), %r8
	movq	(%r9), %r9
	movq	(%r10), %r10
	movq	(%r11), %r11
	movq	(%rbx), %rbx
	movq	0(%rbp), %rbp
	movq	(%r12), %rcx
	movq	(%rsi), %rsi
	movq	(%rdi), %rdi
	movq	(%rdx), %r12
	movq	0(%r13), %r13
	movq	(%r8), %r8
	movq	(%r9), %r9
	movq	(%r10), %r10
	movq	(%r11), %r11
	movq	(%rbx), %rbx
	movq	0(%rbp), %rdx
	movq	(%rcx), %rcx
	movq	(%rsi), %rsi
	movq	(%rdi), %rbp
	movq	(%r12), %r12
	movq	0(%r13), %r13
	movq	(%r8), %r8
	movq	(%r9), %r9
	movq	(%r10), %r10
	movq	(%r11), %r11
	movq	(%rbx), %rdi
	movq	(%rdx), %rdx
	movq	(%rcx), %rcx
	movq	(%rsi), %rbx
	movq	0(%rbp), %rbp
	movq	(%r12), %r12
	movq	0(%r13), %r13
	movq	(%r8), %r8
	movq	(%r9), %r9
	movq	(%r10), %r10
	movq	(%r11), %rsi
	movq	(%rdi), %rdi
	movq	(%rdx), %rdx
	movq	(%rcx), %r11
	movq	(%rbx), %rbx
	movq	0(%rbp), %rbp
	movq	(%r12), %r12
	movq	0(%r13), %r13
	movq	(%r8), %r8
	movq	(%r9), %r9
	movq	(%r10), %rcx
	movq	(%rsi), %rsi
	movq	(%rdi), %rdi
	movq	(%rdx), %r10
	movq	(%r11), %r11
	movq	(%rbx), %rbx
	movq	0(%rbp), %rbp
	movq	(%r12), %r12
	movq	0(%r13), %r13
	movq	(%r8), %r8
	movq	(%r9), %rdx
	movq	(%rcx), %rcx
	movq	(%rsi), %rsi
	movq	(%rdi), %r9
	movq	(%r10), %r10
	movq	(%r11), %r11
	movq	(%rbx), %rbx
	movq	0(%rbp), %rbp
	movq	(%r12), %r12
	movq	0(%r13), %r13
	movq	(%r8), %rdi
	movq	(%rdx), %rdx
	movq	(%rcx), %rcx
	movq	(%rsi), %r8
	movq	(%r9), %r9
	movq	(%r10), %r10
	movq	(%r11), %r11
	movq	(%rbx), %rbx
	movq	0(%rbp), %rbp
	movq	(%r12), %r12
	movq	0(%r13), %rsi
	movq	(%rdi), %rdi
	movq	(%rdx), %rdx
	movq	(%rcx), %r13
	movq	(%r8), %r8
	movq	(%r9), %r9
	movq	(%r10), %r10
	movq	(%r11), %r11
	movq	(%rbx), %rbx
	movq	0(%rbp), %rbp
	movq	(%r12), %rcx
	movq	(%rsi), %rsi
	movq	(%rdi), %rdi
	movq	(%rdx), %r12
	movq	0(%r13), %r13
	movq	(%r8), %r8
	movq	(%r9), %r9
	movq	(%r10), %r10
	movq	(%r11), %r11
	movq	(%rbx), %rbx
	movq	0(%rbp), %rdx
	movq	(%rcx), %rcx
	movq	(%rsi), %rsi
	movq	(%rdi), %rbp
	movq	(%r12), %r12
	movq	0(%r13), %r13
	movq	(%r8), %r8
	movq	(%r9), %r9
	movq	(%r10), %r10
	movq	(%r11), %r11
	movq	(%rbx), %rdi
	movq	(%rdx), %rdx
	movq	(%rcx), %rcx
	movq	(%rsi), %rbx
	movq	0(%rbp), %rbp
	movq	(%r12), %r12
	movq	0(%r13), %r13
	movq	(%r8), %r8
	movq	(%r9), %r9
	movq	(%r10), %r10
	movq	(%r11), %rsi
	movq	(%rdi), %rdi
	movq	(%rdx), %rdx
	movq	(%rcx), %r11
	movq	(%rbx), %rbx
	movq	0(%rbp), %rbp
	movq	(%r12), %r12
	movq	0(%r13), %r13
	movq	(%r8), %r8
	movq	(%r9), %r9
	movq	(%r10), %rcx
	movq	(%rsi), %rsi
	movq	(%rdi), %rdi
	movq	(%rdx), %r10
	movq	(%r11), %r11
	movq	(%rbx), %rbx
	movq	0(%rbp), %rbp
	movq	(%r12), %r12
	movq	0(%r13), %r13
	movq	(%r8), %r8
	movq	(%r9), %rdx
	movq	(%rcx), %rcx
	movq	(%rsi), %rsi
	movq	(%rdi), %r9
	movq	(%r10), %r10
	movq	(%r11), %r11
	movq	(%rbx), %rbx
	movq	0(%rbp), %rbp
	movq	(%r12), %r12
	movq	0(%r13), %r13
	movq	(%r8), %rdi
	movq	(%rdx), %rdx
	movq	(%rcx), %rcx
	movq	(%rsi), %r8
	movq	(%r9), %r9
	movq	(%r10), %r10
	movq	(%r11), %r11
	movq	(%rbx), %rbx
	movq	0(%rbp), %rbp
	movq	(%r12), %r12
	movq	0(%r13), %rsi
	movq	(%rdi), %rdi
	movq	(%rdx), %rdx
	movq	(%rcx), %r13
	movq	(%r8), %r8
	movq	(%r9), %r9
	movq	(%r10), %r10
	movq	(%r11), %r11
	movq	(%rbx), %rbx
	movq	0(%rbp), %rbp
	movq	(%r12), %rcx
	movq	(%rsi), %rsi
	movq	(%rdi), %rdi
	movq	(%rdx), %r12
	movq	0(%r13), %r13
	movq	(%r8), %r8
	movq	(%r9), %r9
	movq	(%r10), %r10
	movq	(%r11), %r11
	movq	(%rbx), %rbx
	movq	0(%rbp), %rdx
	movq	(%rcx), %rcx
	movq	(%rsi), %rsi
	movq	(%rdi), %rbp
	movq	(%r12), %r12
	movq	0(%r13), %r13
	movq	(%r8), %r8
	movq	(%r9), %r9
	movq	(%r10), %r10
	movq	(%r11), %r11
	movq	(%rbx), %rdi
	movq	(%rdx), %rdx
	movq	(%rcx), %rcx
	movq	(%rsi), %rbx
	movq	0(%rbp), %rbp
	movq	(%r12), %r12
	movq	0(%r13), %r13
	movq	(%r8), %r8
	movq	(%r9), %r9
	movq	(%r10), %r10
	movq	(%r11), %rsi
	movq	(%rdi), %rdi
	movq	(%rdx), %rdx
	movq	(%rcx), %r11
	movq	(%rbx), %rbx
	movq	0(%rbp), %rbp
	movq	(%r12), %r12
	movq	0(%r13), %r13
	movq	(%r8), %r8
	movq	(%r9), %r9
	movq	(%r10), %rcx
	movq	(%rsi), %rsi
	movq	(%rdi), %rdi
	movq	(%rdx), %r10
	movq	(%r11), %r11
	movq	(%rbx), %rbx
	movq	0(%rbp), %rbp
	movq	(%r12), %r12
	movq	0(%r13), %r13
	movq	(%r8), %r8
	movq	(%r9), %rdx
	movq	(%rcx), %rcx
	movq	(%rsi), %rsi
	movq	(%rdi), %r9
	movq	(%r10), %r10
	movq	(%r11), %r11
	movq	(%rbx), %rbx
	movq	0(%rbp), %rbp
	movq	(%r12), %r12
	movq	0(%r13), %r13
	movq	(%r8), %rdi
	movq	(%rdx), %rdx
	movq	(%rcx), %rcx
	movq	(%rsi), %r8
	movq	(%r9), %r9
	movq	(%r10), %r10
	movq	(%r11), %r11
	movq	(%rbx), %rbx
	movq	0(%rbp), %rbp
	movq	(%r12), %r12
	movq	0(%r13), %rsi
	movq	(%rdi), %rdi
	movq	(%rdx), %rdx
	movq	(%rcx), %r13
	movq	(%r8), %r8
	movq	(%r9), %r9
	movq	(%r10), %r10
	movq	(%r11), %r11
	movq	(%rbx), %rbx
	movq	0(%rbp), %rbp
	movq	(%r12), %rcx
	movq	(%rsi), %rsi
	movq	(%rdi), %rdi
	movq	(%rdx), %r12
	movq	0(%r13), %r13
	movq	(%r8), %r8
	movq	(%r9), %r9
	movq	(%r10), %r10
	movq	(%r11), %r11
	movq	(%rbx), %rbx
	movq	0(%rbp), %rdx
	movq	(%rcx), %rcx
	movq	(%rsi), %rsi
	movq	(%rdi), %rbp
	movq	(%r12), %r12
	movq	0(%r13), %r13
	movq	(%r8), %r8
	movq	(%r9), %r9
	movq	(%r10), %r10
	movq	(%r11), %r11
	movq	(%rbx), %rdi
	movq	(%rdx), %rdx
	movq	(%rcx), %rcx
	movq	(%rsi), %rbx
	movq	0(%rbp), %rbp
	movq	(%r12), %r12
	movq	0(%r13), %r13
	movq	(%r8), %r8
	movq	(%r9), %r9
	movq	(%r10), %r10
	movq	(%r11), %rsi
	movq	(%rdi), %rdi
	movq	(%rdx), %rdx
	movq	(%rcx), %r11
	movq	(%rbx), %rbx
	movq	0(%rbp), %rbp
	movq	(%r12), %r12
	movq	0(%r13), %r13
	movq	(%r8), %r8
	movq	(%r9), %r9
	movq	(%r10), %rcx
	movq	(%rsi), %rsi
	movq	(%rdi), %rdi
	movq	(%rdx), %r10
	movq	(%r11), %r11
	movq	(%rbx), %rbx
	movq	0(%rbp), %rbp
	movq	(%r12), %r12
	movq	0(%r13), %r13
	movq	(%r8), %r8
	movq	(%r9), %rdx
	movq	(%rcx), %rcx
	movq	(%rsi), %rsi
	movq	(%rdi), %r9
	movq	(%r10), %r10
	movq	(%r11), %r11
	movq	(%rbx), %rbx
	movq	0(%rbp), %rbp
	movq	(%r12), %r12
	movq	0(%r13), %r13
	movq	(%r8), %rdi
	movq	(%rdx), %rdx
	movq	(%rcx), %rcx
	movq	(%rsi), %r8
	movq	(%r9), %r9
	movq	(%r10), %r10
	movq	(%r11), %r11
	movq	(%rbx), %rbx
	movq	0(%rbp), %rbp
	movq	(%r12), %r12
	movq	0(%r13), %rsi
	movq	(%rdi), %rdi
	movq	(%rdx), %rdx
	movq	(%rcx), %r13
	movq	(%r8), %r8
	movq	(%r9), %r9
	movq	(%r10), %r10
	movq	(%r11), %r11
	movq	(%rbx), %rbx
	movq	0(%rbp), %rbp
	movq	(%r12), %rcx
	movq	(%rsi), %rsi
	movq	(%rdi), %rdi
	movq	(%rdx), %r12
	movq	0(%r13), %r13
	movq	(%r8), %r8
	movq	(%r9), %r9
	movq	(%r10), %r10
	movq	(%r11), %r11
	movq	(%rbx), %rbx
	movq	0(%rbp), %rdx
	movq	(%rcx), %rcx
	movq	(%rsi), %rsi
	movq	(%rdi), %rbp
	movq	(%r12), %r12
	movq	0(%r13), %r13
	movq	(%r8), %r8
	movq	(%r9), %r9
	movq	(%r10), %r10
	movq	(%r11), %r11
	movq	(%rbx), %rdi
	movq	(%rdx), %rdx
	movq	(%rcx), %rcx
	movq	(%rsi), %rbx
	movq	0(%rbp), %rbp
	movq	(%r12), %r12
	movq	0(%r13), %r13
	movq	(%r8), %r8
	movq	(%r9), %r9
	movq	(%r10), %r10
	movq	(%r11), %rsi
	movq	(%rdi), %rdi
	movq	(%rdx), %rdx
	movq	(%rcx), %r11
	movq	(%rbx), %rbx
	movq	0(%rbp), %rbp
	movq	(%r12), %r12
	movq	0(%r13), %r13
	movq	(%r8), %r8
	movq	(%r9), %r9
	movq	(%r10), %rcx
	movq	(%rsi), %rsi
	movq	(%rdi), %rdi
	movq	(%rdx), %r10
	movq	(%r11), %r11
	movq	(%rbx), %rbx
	movq	0(%rbp), %rbp
	movq	(%r12), %r12
	movq	0(%r13), %r13
	movq	(%r8), %r8
	movq	(%r9), %rdx
	movq	(%rcx), %rcx
	movq	(%rsi), %rsi
	movq	(%rdi), %r9
	movq	(%r10), %r10
	movq	(%r11), %r11
	movq	(%rbx), %rbx
	movq	0(%rbp), %rbp
	movq	(%r12), %r12
	movq	0(%r13), %r13
	movq	(%r8), %rdi
	movq	(%rdx), %rdx
	movq	(%rcx), %rcx
	movq	(%rsi), %r8
	movq	(%r9), %r9
	movq	(%r10), %r10
	movq	(%r11), %r11
	movq	(%rbx), %rbx
	movq	0(%rbp), %rbp
	movq	(%r12), %r12
	movq	0(%r13), %rsi
	movq	(%rdi), %rdi
	movq	(%rdx), %rdx
	movq	(%rcx), %r13
	movq	(%r8), %r8
	movq	(%r9), %r9
	movq	(%r10), %r10
	movq	(%r11), %r11
	movq	(%rbx), %rbx
	movq	0(%rbp), %rbp
	movq	(%r12), %rcx
	movq	(%rsi), %rsi
	movq	(%rdi), %rdi
	movq	(%rdx), %r12
	movq	0(%r13), %r13
	movq	(%r8), %r8
	movq	(%r9), %r9
	movq	(%r10), %r10
	movq	(%r11), %r11
	movq	(%rbx), %rbx
	movq	0(%rbp), %rdx
	movq	(%rcx), %rcx
	movq	(%rsi), %rsi
	movq	(%rdi), %rbp
	movq	(%r12), %r12
	movq	0(%r13), %r13
	movq	(%r8), %r8
	movq	(%r9), %r9
	movq	(%r10), %r10
	movq	(%r11), %r11
	movq	(%rbx), %rdi
	movq	(%rdx), %rdx
	movq	(%rcx), %rcx
	movq	(%rsi), %rbx
	movq	0(%rbp), %rbp
	movq	(%r12), %r12
	movq	0(%r13), %r13
	movq	(%r8), %r8
	movq	(%r9), %r9
	movq	(%r10), %r10
	movq	(%r11), %rsi
	movq	(%rdi), %rdi
	movq	(%rdx), %rdx
	movq	(%rcx), %r11
	movq	(%rbx), %rbx
	movq	0(%rbp), %rbp
	movq	(%r12), %r12
	movq	0(%r13), %r13
	movq	(%r8), %r8
	movq	(%r9), %r9
	movq	(%r10), %rcx
	movq	(%rsi), %rsi
	movq	(%rdi), %rdi
	movq	(%rdx), %r10
	movq	(%r11), %r11
	movq	(%rbx), %rbx
	movq	0(%rbp), %rbp
	movq	(%r12), %r12
	movq	0(%r13), %r13
	movq	(%r8), %r8
	movq	(%r9), %rdx
	movq	(%rcx), %rcx
	movq	(%rsi), %rsi
	movq	(%rdi), %r9
	movq	(%r10), %r10
	movq	(%r11), %r11
	movq	(%rbx), %rbx
	movq	0(%rbp), %rbp
	movq	(%r12), %r12
	movq	0(%r13), %r13
	movq	(%r8), %rdi
	movq	(%rdx), %rdx
	movq	(%rcx), %rcx
	movq	(%rsi), %r8
	movq	(%r9), %r9
	movq	(%r10), %r10
	movq	(%r11), %r11
	movq	(%rbx), %rbx
	movq	0(%rbp), %rbp
	movq	(%r12), %r12
	movq	0(%r13), %rsi
	movq	(%rdi), %rdi
	movq	(%rdx), %rdx
	movq	(%rcx), %r13
	movq	(%r8), %r8
	movq	(%r9), %r9
	movq	(%r10), %r10
	movq	(%r11), %r11
	movq	(%rbx), %rbx
	movq	0(%rbp), %rbp
	movq	(%r12), %rcx
	movq	(%rsi), %rsi
	movq	(%rdi), %rdi
	movq	(%rdx), %r12
	movq	0(%r13), %r13
	movq	(%r8), %r8
	movq	(%r9), %r9
	movq	(%r10), %r10
	movq	(%r11), %r11
	movq	(%rbx), %rbx
	movq	0(%rbp), %rdx
	movq	(%rcx), %rcx
	movq	(%rsi), %rsi
	movq	(%rdi), %rbp
	movq	(%r12), %r12
	movq	0(%r13), %r13
	movq	(%r8), %r8
	movq	(%r9), %r9
	movq	(%r10), %r10
	movq	(%r11), %r11
	movq	(%rbx), %rdi
	movq	(%rdx), %rdx
	movq	(%rcx), %rcx
	movq	(%rsi), %rbx
	movq	0(%rbp), %rbp
	movq	(%r12), %r12
	movq	0(%r13), %r13
	movq	(%r8), %r8
	movq	(%r9), %r9
	movq	(%r10), %r10
	movq	(%r11), %rsi
	movq	(%rdi), %rdi
	movq	(%rdx), %rdx
	movq	(%rcx), %r11
	movq	(%rbx), %rbx
	movq	0(%rbp), %rbp
	movq	(%r12), %r12
	movq	0(%r13), %r13
	movq	(%r8), %r8
	movq	(%r9), %r9
	movq	(%r10), %rcx
	movq	(%rsi), %rsi
	movq	(%rdi), %rdi
	movq	(%rdx), %r10
	movq	(%r11), %r11
	movq	(%rbx), %rbx
	movq	0(%rbp), %rbp
	movq	(%r12), %r12
	movq	0(%r13), %r13
	movq	(%r8), %r8
	movq	(%r9), %rdx
	movq	(%rcx), %rcx
	movq	(%rsi), %rsi
	movq	(%rdi), %r9
	movq	(%r10), %r10
	movq	(%r11), %r11
	movq	(%rbx), %rbx
	movq	0(%rbp), %rbp
	movq	(%r12), %r12
	movq	0(%r13), %r13
	movq	(%r8), %rdi
	movq	(%rdx), %rdx
	movq	(%rcx), %rcx
	movq	(%rsi), %r8
	movq	(%r9), %r9
	movq	(%r10), %r10
	movq	(%r11), %r11
	movq	(%rbx), %rbx
	movq	0(%rbp), %rbp
	movq	(%r12), %r12
	movq	0(%r13), %rsi
	movq	(%rdi), %rdi
	movq	(%rdx), %rdx
	movq	(%rcx), %r13
	movq	(%r8), %r8
	movq	(%r9), %r9
	movq	(%r10), %r10
	movq	(%r11), %r11
	movq	(%rbx), %rbx
	movq	0(%rbp), %rbp
	movq	(%r12), %rcx
	movq	(%rsi), %rsi
	movq	(%rdi), %rdi
	movq	(%rdx), %r12
	movq	0(%r13), %r13
	movq	(%r8), %r8
	movq	(%r9), %r9
	movq	(%r10), %r10
	movq	(%r11), %r11
	movq	(%rbx), %rbx
	movq	0(%rbp), %rdx
	movq	(%rcx), %rcx
	movq	(%rsi), %rsi
	movq	(%rdi), %rbp
	movq	(%r12), %r12
	movq	0(%r13), %r13
	movq	(%r8), %r8
	movq	(%r9), %r9
	movq	(%r10), %r10
	movq	(%r11), %r11
	movq	(%rbx), %rdi
	movq	(%rdx), %rdx
	movq	(%rcx), %rcx
	movq	(%rsi), %rbx
	movq	0(%rbp), %rbp
	movq	(%r12), %r12
	movq	0(%r13), %r13
	movq	(%r8), %r8
	movq	(%r9), %r9
	movq	(%r10), %r10
	movq	(%r11), %rsi
	movq	(%rdi), %rdi
	movq	(%rdx), %rdx
	movq	(%rcx), %r11
	movq	(%rbx), %rbx
	movq	0(%rbp), %rbp
	movq	(%r12), %r12
	movq	0(%r13), %r13
	movq	(%r8), %r8
	movq	(%r9), %r9
	movq	(%r10), %rcx
	movq	(%rsi), %rsi
	movq	(%rdi), %rdi
	movq	(%rdx), %r10
	movq	(%r11), %r11
	movq	(%rbx), %rbx
	movq	0(%rbp), %rbp
	movq	(%r12), %r12
	movq	0(%r13), %r13
	movq	(%r8), %r14
	movq	(%r9), %rdx
	movq	(%rcx), %rcx
	movq	(%rsi), %rsi
	movq	(%rdi), %rdi
	movq	(%r10), %r8
	movq	(%r11), %r9
	movq	(%rbx), %r10
	movq	0(%rbp), %r11
	movq	(%r12), %rbx
	movq	0(%r13), %rbp
	movq	(%r14), %r12
	subq	$1, %rax
	cmpq	$-1, %rax
	jne	.L276
.L277:
	movq	%rdx, sp0.87(%rip)
	movq	%rcx, sp1.86(%rip)
	movq	%rsi, sp2.85(%rip)
	movq	%rdi, sp3.84(%rip)
	movq	%r8, sp4.83(%rip)
	movq	%r9, sp5.82(%rip)
	movq	%r10, sp6.81(%rip)
	movq	%r11, sp7.80(%rip)
	movq	%rbx, sp8.79(%rip)
	movq	%rbp, sp9.78(%rip)
	movq	%r12, sp10.77(%rip)
	movq	-8(%rsp), %rax
	movq	(%rax), %rax
	movq	%rax, addr_save.88(%rip)
	movl	$1, mem_benchmark_rerun(%rip)
	popq	%rbx
	.cfi_def_cfa_offset 48
	popq	%rbp
	.cfi_def_cfa_offset 40
	popq	%r12
	.cfi_def_cfa_offset 32
	popq	%r13
	.cfi_def_cfa_offset 24
	popq	%r14
	.cfi_def_cfa_offset 16
	popq	%r15
	.cfi_def_cfa_offset 8
	ret
	.cfi_endproc
.LFE82:
	.size	mem_benchmark_10, .-mem_benchmark_10
	.globl	mem_benchmark_11
	.type	mem_benchmark_11, @function
mem_benchmark_11:
.LFB83:
	.cfi_startproc
	endbr64
	pushq	%r15
	.cfi_def_cfa_offset 16
	.cfi_offset 15, -16
	pushq	%r14
	.cfi_def_cfa_offset 24
	.cfi_offset 14, -24
	pushq	%r13
	.cfi_def_cfa_offset 32
	.cfi_offset 13, -32
	pushq	%r12
	.cfi_def_cfa_offset 40
	.cfi_offset 12, -40
	pushq	%rbp
	.cfi_def_cfa_offset 48
	.cfi_offset 6, -48
	pushq	%rbx
	.cfi_def_cfa_offset 56
	.cfi_offset 3, -56
	movq	%rdi, %r15
	movq	%rsi, %rdx
	movl	mem_benchmark_rerun(%rip), %eax
	testl	%eax, %eax
	je	.L301
	movq	addr_save.76(%rip), %rcx
	movq	sp0.75(%rip), %rsi
	cmpq	%rcx, (%rdx)
	je	.L303
	movq	16(%rdx), %rsi
	movq	addr_save.76(%rip), %rcx
	cmpq	%rcx, (%rdx)
	je	.L303
	movq	24(%rdx), %rcx
	testl	%eax, %eax
	je	.L304
	movq	addr_save.76(%rip), %rbx
	cmpq	%rbx, (%rdx)
	je	.L306
	movq	32(%rdx), %rdi
	testl	%eax, %eax
	je	.L307
	movq	addr_save.76(%rip), %rbx
	cmpq	%rbx, (%rdx)
	je	.L309
	movq	40(%rdx), %r8
	testl	%eax, %eax
	je	.L310
	movq	addr_save.76(%rip), %rbx
	cmpq	%rbx, (%rdx)
	je	.L312
	movq	48(%rdx), %r9
	testl	%eax, %eax
	je	.L313
	movq	addr_save.76(%rip), %rbx
	cmpq	%rbx, (%rdx)
	je	.L315
	movq	56(%rdx), %r10
	testl	%eax, %eax
	je	.L316
	movq	addr_save.76(%rip), %rbx
	cmpq	%rbx, (%rdx)
	je	.L336
	movq	64(%rdx), %r11
	movq	addr_save.76(%rip), %rbx
	cmpq	%rbx, (%rdx)
	je	.L318
	movq	72(%rdx), %rbx
	testl	%eax, %eax
	je	.L319
	movq	addr_save.76(%rip), %r14
	cmpq	%r14, (%rdx)
	je	.L333
	movq	80(%rdx), %rbp
	movq	addr_save.76(%rip), %r14
	cmpq	%r14, (%rdx)
	je	.L321
	movq	88(%rdx), %r12
	testl	%eax, %eax
	je	.L322
	movq	addr_save.76(%rip), %rax
	cmpq	%rax, (%rdx)
	je	.L330
	movq	96(%rdx), %r13
	movq	addr_save.76(%rip), %rax
	cmpq	%rax, (%rdx)
	jne	.L328
	jmp	.L324
.L303:
	movq	sp1.74(%rip), %rcx
.L306:
	movq	sp2.73(%rip), %rdi
.L309:
	movq	sp3.72(%rip), %r8
.L312:
	movq	sp4.71(%rip), %r9
.L315:
	movq	sp5.70(%rip), %r10
.L336:
	movq	sp6.69(%rip), %r11
.L318:
	movq	sp7.68(%rip), %rbx
.L333:
	movq	sp8.67(%rip), %rbp
.L321:
	movq	sp9.66(%rip), %r12
.L330:
	movq	sp10.65(%rip), %r13
.L324:
	movq	sp11.64(%rip), %r14
	jmp	.L327
.L301:
	movq	16(%rsi), %rsi
	movq	24(%rdx), %rcx
.L304:
	movq	32(%rdx), %rdi
.L307:
	movq	40(%rdx), %r8
.L310:
	movq	48(%rdx), %r9
.L313:
	movq	56(%rdx), %r10
.L316:
	movq	64(%rdx), %r11
	movq	72(%rdx), %rbx
.L319:
	movq	80(%rdx), %rbp
	movq	88(%rdx), %r12
.L322:
	movq	96(%rdx), %r13
.L328:
	movq	104(%rdx), %r14
.L327:
	leaq	-1(%r15), %rax
	testq	%r15, %r15
	je	.L326
.L325:
	movq	(%rsi), %rsi
	movq	(%rcx), %r15
	movq	(%rdi), %rdi
	movq	(%r8), %r8
	movq	(%r9), %r9
	movq	(%r10), %r10
	movq	(%r11), %r11
	movq	(%rbx), %rbx
	movq	0(%rbp), %rbp
	movq	(%r12), %r12
	movq	0(%r13), %r13
	movq	(%r14), %rcx
	movq	(%rsi), %r14
	movq	(%r15), %r15
	movq	(%rdi), %rdi
	movq	(%r8), %r8
	movq	(%r9), %r9
	movq	(%r10), %r10
	movq	(%r11), %r11
	movq	(%rbx), %rbx
	movq	0(%rbp), %rbp
	movq	(%r12), %r12
	movq	0(%r13), %rsi
	movq	(%rcx), %r13
	movq	(%r14), %r14
	movq	(%r15), %r15
	movq	(%rdi), %rdi
	movq	(%r8), %r8
	movq	(%r9), %r9
	movq	(%r10), %r10
	movq	(%r11), %r11
	movq	(%rbx), %rbx
	movq	0(%rbp), %rbp
	movq	(%r12), %rcx
	movq	(%rsi), %r12
	movq	0(%r13), %r13
	movq	(%r14), %r14
	movq	(%r15), %r15
	movq	(%rdi), %rdi
	movq	(%r8), %r8
	movq	(%r9), %r9
	movq	(%r10), %r10
	movq	(%r11), %r11
	movq	(%rbx), %rbx
	movq	0(%rbp), %rsi
	movq	(%rcx), %rbp
	movq	(%r12), %r12
	movq	0(%r13), %r13
	movq	(%r14), %r14
	movq	(%r15), %r15
	movq	(%rdi), %rdi
	movq	(%r8), %r8
	movq	(%r9), %r9
	movq	(%r10), %r10
	movq	(%r11), %r11
	movq	(%rbx), %rcx
	movq	(%rsi), %rbx
	movq	0(%rbp), %rbp
	movq	(%r12), %r12
	movq	0(%r13), %r13
	movq	(%r14), %r14
	movq	(%r15), %r15
	movq	(%rdi), %rdi
	movq	(%r8), %r8
	movq	(%r9), %r9
	movq	(%r10), %r10
	movq	(%r11), %rsi
	movq	(%rcx), %r11
	movq	(%rbx), %rbx
	movq	0(%rbp), %rbp
	movq	(%r12), %r12
	movq	0(%r13), %r13
	movq	(%r14), %r14
	movq	(%r15), %r15
	movq	(%rdi), %rdi
	movq	(%r8), %r8
	movq	(%r9), %r9
	movq	(%r10), %rcx
	movq	(%rsi), %r10
	movq	(%r11), %r11
	movq	(%rbx), %rbx
	movq	0(%rbp), %rbp
	movq	(%r12), %r12
	movq	0(%r13), %r13
	movq	(%r14), %r14
	movq	(%r15), %r15
	movq	(%rdi), %rdi
	movq	(%r8), %r8
	movq	(%r9), %rsi
	movq	(%rcx), %r9
	movq	(%r10), %r10
	movq	(%r11), %r11
	movq	(%rbx), %rbx
	movq	0(%rbp), %rbp
	movq	(%r12), %r12
	movq	0(%r13), %r13
	movq	(%r14), %r14
	movq	(%r15), %r15
	movq	(%rdi), %rdi
	movq	(%r8), %rcx
	movq	(%rsi), %r8
	movq	(%r9), %r9
	movq	(%r10), %r10
	movq	(%r11), %r11
	movq	(%rbx), %rbx
	movq	0(%rbp), %rbp
	movq	(%r12), %r12
	movq	0(%r13), %r13
	movq	(%r14), %r14
	movq	(%r15), %r15
	movq	(%rdi), %rsi
	movq	(%rcx), %rdi
	movq	(%r8), %r8
	movq	(%r9), %r9
	movq	(%r10), %r10
	movq	(%r11), %r11
	movq	(%rbx), %rbx
	movq	0(%rbp), %rbp
	movq	(%r12), %r12
	movq	0(%r13), %r13
	movq	(%r14), %r14
	movq	(%r15), %rcx
	movq	(%rsi), %r15
	movq	(%rdi), %rdi
	movq	(%r8), %r8
	movq	(%r9), %r9
	movq	(%r10), %r10
	movq	(%r11), %r11
	movq	(%rbx), %rbx
	movq	0(%rbp), %rbp
	movq	(%r12), %r12
	movq	0(%r13), %r13
	movq	(%r14), %rsi
	movq	(%rcx), %r14
	movq	(%r15), %r15
	movq	(%rdi), %rdi
	movq	(%r8), %r8
	movq	(%r9), %r9
	movq	(%r10), %r10
	movq	(%r11), %r11
	movq	(%rbx), %rbx
	movq	0(%rbp), %rbp
	movq	(%r12), %r12
	movq	0(%r13), %rcx
	movq	(%rsi), %r13
	movq	(%r14), %r14
	movq	(%r15), %r15
	movq	(%rdi), %rdi
	movq	(%r8), %r8
	movq	(%r9), %r9
	movq	(%r10), %r10
	movq	(%r11), %r11
	movq	(%rbx), %rbx
	movq	0(%rbp), %rbp
	movq	(%r12), %rsi
	movq	(%rcx), %r12
	movq	0(%r13), %r13
	movq	(%r14), %r14
	movq	(%r15), %r15
	movq	(%rdi), %rdi
	movq	(%r8), %r8
	movq	(%r9), %r9
	movq	(%r10), %r10
	movq	(%r11), %r11
	movq	(%rbx), %rbx
	movq	0(%rbp), %rcx
	movq	(%rsi), %rbp
	movq	(%r12), %r12
	movq	0(%r13), %r13
	movq	(%r14), %r14
	movq	(%r15), %r15
	movq	(%rdi), %rdi
	movq	(%r8), %r8
	movq	(%r9), %r9
	movq	(%r10), %r10
	movq	(%r11), %r11
	movq	(%rbx), %rsi
	movq	(%rcx), %rbx
	movq	0(%rbp), %rbp
	movq	(%r12), %r12
	movq	0(%r13), %r13
	movq	(%r14), %r14
	movq	(%r15), %r15
	movq	(%rdi), %rdi
	movq	(%r8), %r8
	movq	(%r9), %r9
	movq	(%r10), %r10
	movq	(%r11), %rcx
	movq	(%rsi), %r11
	movq	(%rbx), %rbx
	movq	0(%rbp), %rbp
	movq	(%r12), %r12
	movq	0(%r13), %r13
	movq	(%r14), %r14
	movq	(%r15), %r15
	movq	(%rdi), %rdi
	movq	(%r8), %r8
	movq	(%r9), %r9
	movq	(%r10), %rsi
	movq	(%rcx), %r10
	movq	(%r11), %r11
	movq	(%rbx), %rbx
	movq	0(%rbp), %rbp
	movq	(%r12), %r12
	movq	0(%r13), %r13
	movq	(%r14), %r14
	movq	(%r15), %r15
	movq	(%rdi), %rdi
	movq	(%r8), %r8
	movq	(%r9), %rcx
	movq	(%rsi), %r9
	movq	(%r10), %r10
	movq	(%r11), %r11
	movq	(%rbx), %rbx
	movq	0(%rbp), %rbp
	movq	(%r12), %r12
	movq	0(%r13), %r13
	movq	(%r14), %r14
	movq	(%r15), %r15
	movq	(%rdi), %rdi
	movq	(%r8), %rsi
	movq	(%rcx), %r8
	movq	(%r9), %r9
	movq	(%r10), %r10
	movq	(%r11), %r11
	movq	(%rbx), %rbx
	movq	0(%rbp), %rbp
	movq	(%r12), %r12
	movq	0(%r13), %r13
	movq	(%r14), %r14
	movq	(%r15), %r15
	movq	(%rdi), %rcx
	movq	(%rsi), %rdi
	movq	(%r8), %r8
	movq	(%r9), %r9
	movq	(%r10), %r10
	movq	(%r11), %r11
	movq	(%rbx), %rbx
	movq	0(%rbp), %rbp
	movq	(%r12), %r12
	movq	0(%r13), %r13
	movq	(%r14), %r14
	movq	(%r15), %rsi
	movq	(%rcx), %r15
	movq	(%rdi), %rdi
	movq	(%r8), %r8
	movq	(%r9), %r9
	movq	(%r10), %r10
	movq	(%r11), %r11
	movq	(%rbx), %rbx
	movq	0(%rbp), %rbp
	movq	(%r12), %r12
	movq	0(%r13), %r13
	movq	(%r14), %rcx
	movq	(%rsi), %r14
	movq	(%r15), %r15
	movq	(%rdi), %rdi
	movq	(%r8), %r8
	movq	(%r9), %r9
	movq	(%r10), %r10
	movq	(%r11), %r11
	movq	(%rbx), %rbx
	movq	0(%rbp), %rbp
	movq	(%r12), %r12
	movq	0(%r13), %rsi
	movq	(%rcx), %r13
	movq	(%r14), %r14
	movq	(%r15), %r15
	movq	(%rdi), %rdi
	movq	(%r8), %r8
	movq	(%r9), %r9
	movq	(%r10), %r10
	movq	(%r11), %r11
	movq	(%rbx), %rbx
	movq	0(%rbp), %rbp
	movq	(%r12), %rcx
	movq	(%rsi), %r12
	movq	0(%r13), %r13
	movq	(%r14), %r14
	movq	(%r15), %r15
	movq	(%rdi), %rdi
	movq	(%r8), %r8
	movq	(%r9), %r9
	movq	(%r10), %r10
	movq	(%r11), %r11
	movq	(%rbx), %rbx
	movq	0(%rbp), %rsi
	movq	(%rcx), %rbp
	movq	(%r12), %r12
	movq	0(%r13), %r13
	movq	(%r14), %r14
	movq	(%r15), %r15
	movq	(%rdi), %rdi
	movq	(%r8), %r8
	movq	(%r9), %r9
	movq	(%r10), %r10
	movq	(%r11), %r11
	movq	(%rbx), %rcx
	movq	(%rsi), %rbx
	movq	0(%rbp), %rbp
	movq	(%r12), %r12
	movq	0(%r13), %r13
	movq	(%r14), %r14
	movq	(%r15), %r15
	movq	(%rdi), %rdi
	movq	(%r8), %r8
	movq	(%r9), %r9
	movq	(%r10), %r10
	movq	(%r11), %rsi
	movq	(%rcx), %r11
	movq	(%rbx), %rbx
	movq	0(%rbp), %rbp
	movq	(%r12), %r12
	movq	0(%r13), %r13
	movq	(%r14), %r14
	movq	(%r15), %r15
	movq	(%rdi), %rdi
	movq	(%r8), %r8
	movq	(%r9), %r9
	movq	(%r10), %rcx
	movq	(%rsi), %r10
	movq	(%r11), %r11
	movq	(%rbx), %rbx
	movq	0(%rbp), %rbp
	movq	(%r12), %r12
	movq	0(%r13), %r13
	movq	(%r14), %r14
	movq	(%r15), %r15
	movq	(%rdi), %rdi
	movq	(%r8), %r8
	movq	(%r9), %rsi
	movq	(%rcx), %r9
	movq	(%r10), %r10
	movq	(%r11), %r11
	movq	(%rbx), %rbx
	movq	0(%rbp), %rbp
	movq	(%r12), %r12
	movq	0(%r13), %r13
	movq	(%r14), %r14
	movq	(%r15), %r15
	movq	(%rdi), %rdi
	movq	(%r8), %rcx
	movq	(%rsi), %r8
	movq	(%r9), %r9
	movq	(%r10), %r10
	movq	(%r11), %r11
	movq	(%rbx), %rbx
	movq	0(%rbp), %rbp
	movq	(%r12), %r12
	movq	0(%r13), %r13
	movq	(%r14), %r14
	movq	(%r15), %r15
	movq	(%rdi), %rsi
	movq	(%rcx), %rdi
	movq	(%r8), %r8
	movq	(%r9), %r9
	movq	(%r10), %r10
	movq	(%r11), %r11
	movq	(%rbx), %rbx
	movq	0(%rbp), %rbp
	movq	(%r12), %r12
	movq	0(%r13), %r13
	movq	(%r14), %r14
	movq	(%r15), %rcx
	movq	(%rsi), %r15
	movq	(%rdi), %rdi
	movq	(%r8), %r8
	movq	(%r9), %r9
	movq	(%r10), %r10
	movq	(%r11), %r11
	movq	(%rbx), %rbx
	movq	0(%rbp), %rbp
	movq	(%r12), %r12
	movq	0(%r13), %r13
	movq	(%r14), %rsi
	movq	(%rcx), %r14
	movq	(%r15), %r15
	movq	(%rdi), %rdi
	movq	(%r8), %r8
	movq	(%r9), %r9
	movq	(%r10), %r10
	movq	(%r11), %r11
	movq	(%rbx), %rbx
	movq	0(%rbp), %rbp
	movq	(%r12), %r12
	movq	0(%r13), %rcx
	movq	(%rsi), %r13
	movq	(%r14), %r14
	movq	(%r15), %r15
	movq	(%rdi), %rdi
	movq	(%r8), %r8
	movq	(%r9), %r9
	movq	(%r10), %r10
	movq	(%r11), %r11
	movq	(%rbx), %rbx
	movq	0(%rbp), %rbp
	movq	(%r12), %rsi
	movq	(%rcx), %r12
	movq	0(%r13), %r13
	movq	(%r14), %r14
	movq	(%r15), %r15
	movq	(%rdi), %rdi
	movq	(%r8), %r8
	movq	(%r9), %r9
	movq	(%r10), %r10
	movq	(%r11), %r11
	movq	(%rbx), %rbx
	movq	0(%rbp), %rcx
	movq	(%rsi), %rbp
	movq	(%r12), %r12
	movq	0(%r13), %r13
	movq	(%r14), %r14
	movq	(%r15), %r15
	movq	(%rdi), %rdi
	movq	(%r8), %r8
	movq	(%r9), %r9
	movq	(%r10), %r10
	movq	(%r11), %r11
	movq	(%rbx), %rsi
	movq	(%rcx), %rbx
	movq	0(%rbp), %rbp
	movq	(%r12), %r12
	movq	0(%r13), %r13
	movq	(%r14), %r14
	movq	(%r15), %r15
	movq	(%rdi), %rdi
	movq	(%r8), %r8
	movq	(%r9), %r9
	movq	(%r10), %r10
	movq	(%r11), %rcx
	movq	(%rsi), %r11
	movq	(%rbx), %rbx
	movq	0(%rbp), %rbp
	movq	(%r12), %r12
	movq	0(%r13), %r13
	movq	(%r14), %r14
	movq	(%r15), %r15
	movq	(%rdi), %rdi
	movq	(%r8), %r8
	movq	(%r9), %r9
	movq	(%r10), %rsi
	movq	(%rcx), %r10
	movq	(%r11), %r11
	movq	(%rbx), %rbx
	movq	0(%rbp), %rbp
	movq	(%r12), %r12
	movq	0(%r13), %r13
	movq	(%r14), %r14
	movq	(%r15), %r15
	movq	(%rdi), %rdi
	movq	(%r8), %r8
	movq	(%r9), %rcx
	movq	(%rsi), %r9
	movq	(%r10), %r10
	movq	(%r11), %r11
	movq	(%rbx), %rbx
	movq	0(%rbp), %rbp
	movq	(%r12), %r12
	movq	0(%r13), %r13
	movq	(%r14), %r14
	movq	(%r15), %r15
	movq	(%rdi), %rdi
	movq	(%r8), %rsi
	movq	(%rcx), %r8
	movq	(%r9), %r9
	movq	(%r10), %r10
	movq	(%r11), %r11
	movq	(%rbx), %rbx
	movq	0(%rbp), %rbp
	movq	(%r12), %r12
	movq	0(%r13), %r13
	movq	(%r14), %r14
	movq	(%r15), %r15
	movq	(%rdi), %rcx
	movq	(%rsi), %rdi
	movq	(%r8), %r8
	movq	(%r9), %r9
	movq	(%r10), %r10
	movq	(%r11), %r11
	movq	(%rbx), %rbx
	movq	0(%rbp), %rbp
	movq	(%r12), %r12
	movq	0(%r13), %r13
	movq	(%r14), %r14
	movq	(%r15), %rsi
	movq	(%rcx), %r15
	movq	(%rdi), %rdi
	movq	(%r8), %r8
	movq	(%r9), %r9
	movq	(%r10), %r10
	movq	(%r11), %r11
	movq	(%rbx), %rbx
	movq	0(%rbp), %rbp
	movq	(%r12), %r12
	movq	0(%r13), %r13
	movq	(%r14), %rcx
	movq	(%rsi), %r14
	movq	(%r15), %r15
	movq	(%rdi), %rdi
	movq	(%r8), %r8
	movq	(%r9), %r9
	movq	(%r10), %r10
	movq	(%r11), %r11
	movq	(%rbx), %rbx
	movq	0(%rbp), %rbp
	movq	(%r12), %r12
	movq	0(%r13), %rsi
	movq	(%rcx), %r13
	movq	(%r14), %r14
	movq	(%r15), %r15
	movq	(%rdi), %rdi
	movq	(%r8), %r8
	movq	(%r9), %r9
	movq	(%r10), %r10
	movq	(%r11), %r11
	movq	(%rbx), %rbx
	movq	0(%rbp), %rbp
	movq	(%r12), %rcx
	movq	(%rsi), %r12
	movq	0(%r13), %r13
	movq	(%r14), %r14
	movq	(%r15), %r15
	movq	(%rdi), %rdi
	movq	(%r8), %r8
	movq	(%r9), %r9
	movq	(%r10), %r10
	movq	(%r11), %r11
	movq	(%rbx), %rbx
	movq	0(%rbp), %rsi
	movq	(%rcx), %rbp
	movq	(%r12), %r12
	movq	0(%r13), %r13
	movq	(%r14), %r14
	movq	(%r15), %r15
	movq	(%rdi), %rdi
	movq	(%r8), %r8
	movq	(%r9), %r9
	movq	(%r10), %r10
	movq	(%r11), %r11
	movq	(%rbx), %rcx
	movq	(%rsi), %rbx
	movq	0(%rbp), %rbp
	movq	(%r12), %r12
	movq	0(%r13), %r13
	movq	(%r14), %r14
	movq	(%r15), %r15
	movq	(%rdi), %rdi
	movq	(%r8), %r8
	movq	(%r9), %r9
	movq	(%r10), %r10
	movq	(%r11), %rsi
	movq	(%rcx), %r11
	movq	(%rbx), %rbx
	movq	0(%rbp), %rbp
	movq	(%r12), %r12
	movq	0(%r13), %r13
	movq	(%r14), %r14
	movq	(%r15), %r15
	movq	(%rdi), %rdi
	movq	(%r8), %r8
	movq	(%r9), %r9
	movq	(%r10), %rcx
	movq	(%rsi), %r10
	movq	(%r11), %r11
	movq	(%rbx), %rbx
	movq	0(%rbp), %rbp
	movq	(%r12), %r12
	movq	0(%r13), %r13
	movq	(%r14), %r14
	movq	(%r15), %r15
	movq	(%rdi), %rdi
	movq	(%r8), %r8
	movq	(%r9), %rsi
	movq	(%rcx), %r9
	movq	(%r10), %r10
	movq	(%r11), %r11
	movq	(%rbx), %rbx
	movq	0(%rbp), %rbp
	movq	(%r12), %r12
	movq	0(%r13), %r13
	movq	(%r14), %r14
	movq	(%r15), %r15
	movq	(%rdi), %rdi
	movq	(%r8), %rcx
	movq	(%rsi), %r8
	movq	(%r9), %r9
	movq	(%r10), %r10
	movq	(%r11), %r11
	movq	(%rbx), %rbx
	movq	0(%rbp), %rbp
	movq	(%r12), %r12
	movq	0(%r13), %r13
	movq	(%r14), %r14
	movq	(%r15), %r15
	movq	(%rdi), %rsi
	movq	(%rcx), %rdi
	movq	(%r8), %r8
	movq	(%r9), %r9
	movq	(%r10), %r10
	movq	(%r11), %r11
	movq	(%rbx), %rbx
	movq	0(%rbp), %rbp
	movq	(%r12), %r12
	movq	0(%r13), %r13
	movq	(%r14), %r14
	movq	(%r15), %rcx
	movq	(%rsi), %r15
	movq	(%rdi), %rdi
	movq	(%r8), %r8
	movq	(%r9), %r9
	movq	(%r10), %r10
	movq	(%r11), %r11
	movq	(%rbx), %rbx
	movq	0(%rbp), %rbp
	movq	(%r12), %r12
	movq	0(%r13), %r13
	movq	(%r14), %rsi
	movq	(%rcx), %r14
	movq	(%r15), %r15
	movq	(%rdi), %rdi
	movq	(%r8), %r8
	movq	(%r9), %r9
	movq	(%r10), %r10
	movq	(%r11), %r11
	movq	(%rbx), %rbx
	movq	0(%rbp), %rbp
	movq	(%r12), %r12
	movq	0(%r13), %rcx
	movq	(%rsi), %r13
	movq	(%r14), %r14
	movq	(%r15), %r15
	movq	(%rdi), %rdi
	movq	(%r8), %r8
	movq	(%r9), %r9
	movq	(%r10), %r10
	movq	(%r11), %r11
	movq	(%rbx), %rbx
	movq	0(%rbp), %rbp
	movq	(%r12), %rsi
	movq	(%rcx), %r12
	movq	0(%r13), %r13
	movq	(%r14), %r14
	movq	(%r15), %r15
	movq	(%rdi), %rdi
	movq	(%r8), %r8
	movq	(%r9), %r9
	movq	(%r10), %r10
	movq	(%r11), %r11
	movq	(%rbx), %rbx
	movq	0(%rbp), %rcx
	movq	(%rsi), %rbp
	movq	(%r12), %r12
	movq	0(%r13), %r13
	movq	(%r14), %r14
	movq	(%r15), %r15
	movq	(%rdi), %rdi
	movq	(%r8), %r8
	movq	(%r9), %r9
	movq	(%r10), %r10
	movq	(%r11), %r11
	movq	(%rbx), %rsi
	movq	(%rcx), %rbx
	movq	0(%rbp), %rbp
	movq	(%r12), %r12
	movq	0(%r13), %r13
	movq	(%r14), %r14
	movq	(%r15), %r15
	movq	(%rdi), %rdi
	movq	(%r8), %r8
	movq	(%r9), %r9
	movq	(%r10), %r10
	movq	(%r11), %rcx
	movq	(%rsi), %r11
	movq	(%rbx), %rbx
	movq	0(%rbp), %rbp
	movq	(%r12), %r12
	movq	0(%r13), %r13
	movq	(%r14), %r14
	movq	(%r15), %r15
	movq	(%rdi), %rdi
	movq	(%r8), %r8
	movq	(%r9), %r9
	movq	(%r10), %rsi
	movq	(%rcx), %r10
	movq	(%r11), %r11
	movq	(%rbx), %rbx
	movq	0(%rbp), %rbp
	movq	(%r12), %r12
	movq	0(%r13), %r13
	movq	(%r14), %r14
	movq	(%r15), %r15
	movq	(%rdi), %rdi
	movq	(%r8), %r8
	movq	(%r9), %rcx
	movq	(%rsi), %r9
	movq	(%r10), %r10
	movq	(%r11), %r11
	movq	(%rbx), %rbx
	movq	0(%rbp), %rbp
	movq	(%r12), %r12
	movq	0(%r13), %r13
	movq	(%r14), %r14
	movq	(%r15), %r15
	movq	(%rdi), %rdi
	movq	(%r8), %rsi
	movq	(%rcx), %r8
	movq	(%r9), %r9
	movq	(%r10), %r10
	movq	(%r11), %r11
	movq	(%rbx), %rbx
	movq	0(%rbp), %rbp
	movq	(%r12), %r12
	movq	0(%r13), %r13
	movq	(%r14), %r14
	movq	(%r15), %r15
	movq	(%rdi), %rcx
	movq	(%rsi), %rdi
	movq	(%r8), %r8
	movq	(%r9), %r9
	movq	(%r10), %r10
	movq	(%r11), %r11
	movq	(%rbx), %rbx
	movq	0(%rbp), %rbp
	movq	(%r12), %r12
	movq	0(%r13), %r13
	movq	(%r14), %r14
	movq	(%r15), %rsi
	movq	(%rcx), %r15
	movq	(%rdi), %rdi
	movq	(%r8), %r8
	movq	(%r9), %r9
	movq	(%r10), %r10
	movq	(%r11), %r11
	movq	(%rbx), %rbx
	movq	0(%rbp), %rbp
	movq	(%r12), %r12
	movq	0(%r13), %r13
	movq	(%r14), %rcx
	movq	(%rsi), %r14
	movq	(%r15), %r15
	movq	(%rdi), %rdi
	movq	(%r8), %r8
	movq	(%r9), %r9
	movq	(%r10), %r10
	movq	(%r11), %r11
	movq	(%rbx), %rbx
	movq	0(%rbp), %rbp
	movq	(%r12), %r12
	movq	0(%r13), %rsi
	movq	(%rcx), %r13
	movq	(%r14), %r14
	movq	(%r15), %r15
	movq	(%rdi), %rdi
	movq	(%r8), %r8
	movq	(%r9), %r9
	movq	(%r10), %r10
	movq	(%r11), %r11
	movq	(%rbx), %rbx
	movq	0(%rbp), %rbp
	movq	(%r12), %rcx
	movq	(%rsi), %r12
	movq	0(%r13), %r13
	movq	(%r14), %r14
	movq	(%r15), %r15
	movq	(%rdi), %rdi
	movq	(%r8), %r8
	movq	(%r9), %r9
	movq	(%r10), %r10
	movq	(%r11), %r11
	movq	(%rbx), %rbx
	movq	0(%rbp), %rsi
	movq	(%rcx), %rbp
	movq	(%r12), %r12
	movq	0(%r13), %r13
	movq	(%r14), %r14
	movq	(%r15), %r15
	movq	(%rdi), %rdi
	movq	(%r8), %r8
	movq	(%r9), %r9
	movq	(%r10), %r10
	movq	(%r11), %r11
	movq	(%rbx), %rcx
	movq	(%rsi), %rbx
	movq	0(%rbp), %rbp
	movq	(%r12), %r12
	movq	0(%r13), %r13
	movq	(%r14), %r14
	movq	(%r15), %r15
	movq	(%rdi), %rdi
	movq	(%r8), %r8
	movq	(%r9), %r9
	movq	(%r10), %r10
	movq	(%r11), %rsi
	movq	(%rcx), %r11
	movq	(%rbx), %rbx
	movq	0(%rbp), %rbp
	movq	(%r12), %r12
	movq	0(%r13), %r13
	movq	(%r14), %r14
	movq	(%r15), %r15
	movq	(%rdi), %rdi
	movq	(%r8), %r8
	movq	(%r9), %r9
	movq	(%r10), %rcx
	movq	(%rsi), %r10
	movq	(%r11), %r11
	movq	(%rbx), %rbx
	movq	0(%rbp), %rbp
	movq	(%r12), %r12
	movq	0(%r13), %r13
	movq	(%r14), %r14
	movq	(%r15), %r15
	movq	(%rdi), %rdi
	movq	(%r8), %r8
	movq	(%r9), %rsi
	movq	(%rcx), %r9
	movq	(%r10), %r10
	movq	(%r11), %r11
	movq	(%rbx), %rbx
	movq	0(%rbp), %rbp
	movq	(%r12), %r12
	movq	0(%r13), %r13
	movq	(%r14), %r14
	movq	(%r15), %r15
	movq	(%rdi), %rdi
	movq	(%r8), %rcx
	movq	(%rsi), %r8
	movq	(%r9), %r9
	movq	(%r10), %r10
	movq	(%r11), %r11
	movq	(%rbx), %rbx
	movq	0(%rbp), %rbp
	movq	(%r12), %r12
	movq	0(%r13), %r13
	movq	(%r14), %r14
	movq	(%r15), %r15
	movq	(%rdi), %rsi
	movq	(%rcx), %rdi
	movq	(%r8), %r8
	movq	(%r9), %r9
	movq	(%r10), %r10
	movq	(%r11), %r11
	movq	(%rbx), %rbx
	movq	0(%rbp), %rbp
	movq	(%r12), %r12
	movq	0(%r13), %r13
	movq	(%r14), %r14
	movq	(%r15), %rcx
	movq	(%rsi), %r15
	movq	(%rdi), %rdi
	movq	(%r8), %r8
	movq	(%r9), %r9
	movq	(%r10), %r10
	movq	(%r11), %r11
	movq	(%rbx), %rbx
	movq	0(%rbp), %rbp
	movq	(%r12), %r12
	movq	0(%r13), %r13
	movq	(%r14), %rsi
	movq	(%rcx), %r14
	movq	(%r15), %r15
	movq	(%rdi), %rdi
	movq	(%r8), %r8
	movq	(%r9), %r9
	movq	(%r10), %r10
	movq	(%r11), %r11
	movq	(%rbx), %rbx
	movq	0(%rbp), %rbp
	movq	(%r12), %r12
	movq	0(%r13), %rcx
	movq	(%rsi), %r13
	movq	(%r14), %r14
	movq	(%r15), %r15
	movq	(%rdi), %rdi
	movq	(%r8), %r8
	movq	(%r9), %r9
	movq	(%r10), %r10
	movq	(%r11), %r11
	movq	(%rbx), %rbx
	movq	0(%rbp), %rbp
	movq	(%r12), %rsi
	movq	(%rcx), %r12
	movq	0(%r13), %r13
	movq	(%r14), %r14
	movq	(%r15), %r15
	movq	(%rdi), %rdi
	movq	(%r8), %r8
	movq	(%r9), %r9
	movq	(%r10), %r10
	movq	(%r11), %r11
	movq	(%rbx), %rbx
	movq	0(%rbp), %rcx
	movq	(%rsi), %rbp
	movq	(%r12), %r12
	movq	0(%r13), %r13
	movq	(%r14), %r14
	movq	(%r15), %r15
	movq	(%rdi), %rdi
	movq	(%r8), %r8
	movq	(%r9), %r9
	movq	(%r10), %r10
	movq	(%r11), %r11
	movq	(%rbx), %rsi
	movq	(%rcx), %rbx
	movq	0(%rbp), %rbp
	movq	(%r12), %r12
	movq	0(%r13), %r13
	movq	(%r14), %r14
	movq	(%r15), %r15
	movq	(%rdi), %rdi
	movq	(%r8), %r8
	movq	(%r9), %r9
	movq	(%r10), %r10
	movq	(%r11), %rcx
	movq	(%rsi), %r11
	movq	(%rbx), %rbx
	movq	0(%rbp), %rbp
	movq	(%r12), %r12
	movq	0(%r13), %r13
	movq	(%r14), %r14
	movq	(%r15), %r15
	movq	(%rdi), %rdi
	movq	(%r8), %r8
	movq	(%r9), %r9
	movq	(%r10), %rsi
	movq	(%rcx), %r10
	movq	(%r11), %r11
	movq	(%rbx), %rbx
	movq	0(%rbp), %rbp
	movq	(%r12), %r12
	movq	0(%r13), %r13
	movq	(%r14), %r14
	movq	(%r15), %r15
	movq	(%rdi), %rdi
	movq	(%r8), %r8
	movq	(%r9), %rcx
	movq	(%rsi), %r9
	movq	(%r10), %r10
	movq	(%r11), %r11
	movq	(%rbx), %rbx
	movq	0(%rbp), %rbp
	movq	(%r12), %r12
	movq	0(%r13), %r13
	movq	(%r14), %r14
	movq	(%r15), %r15
	movq	(%rdi), %rdi
	movq	(%r8), %rsi
	movq	(%rcx), %r8
	movq	(%r9), %r9
	movq	(%r10), %r10
	movq	(%r11), %r11
	movq	(%rbx), %rbx
	movq	0(%rbp), %rbp
	movq	(%r12), %r12
	movq	0(%r13), %r13
	movq	(%r14), %r14
	movq	(%r15), %r15
	movq	(%rdi), %rcx
	movq	(%rsi), %rdi
	movq	(%r8), %r8
	movq	(%r9), %r9
	movq	(%r10), %r10
	movq	(%r11), %r11
	movq	(%rbx), %rbx
	movq	0(%rbp), %rbp
	movq	(%r12), %r12
	movq	0(%r13), %r13
	movq	(%r14), %r14
	movq	(%r15), %rsi
	movq	(%rcx), %r15
	movq	(%rdi), %rdi
	movq	(%r8), %r8
	movq	(%r9), %r9
	movq	(%r10), %r10
	movq	(%r11), %r11
	movq	(%rbx), %rbx
	movq	0(%rbp), %rbp
	movq	(%r12), %r12
	movq	0(%r13), %r13
	movq	(%r14), %rcx
	movq	(%rsi), %r14
	movq	(%r15), %r15
	movq	(%rdi), %rdi
	movq	(%r8), %r8
	movq	(%r9), %r9
	movq	(%r10), %r10
	movq	(%r11), %r11
	movq	(%rbx), %rbx
	movq	0(%rbp), %rbp
	movq	(%r12), %r12
	movq	0(%r13), %rsi
	movq	(%rcx), %r13
	movq	(%r14), %r14
	movq	(%r15), %r15
	movq	(%rdi), %rdi
	movq	(%r8), %r8
	movq	(%r9), %r9
	movq	(%r10), %r10
	movq	(%r11), %r11
	movq	(%rbx), %rbx
	movq	0(%rbp), %rbp
	movq	(%r12), %rcx
	movq	(%rsi), %r12
	movq	0(%r13), %r13
	movq	(%r14), %r14
	movq	(%r15), %r15
	movq	(%rdi), %rdi
	movq	(%r8), %r8
	movq	(%r9), %r9
	movq	(%r10), %r10
	movq	(%r11), %r11
	movq	(%rbx), %rbx
	movq	0(%rbp), %rsi
	movq	(%rcx), %rbp
	movq	(%r12), %r12
	movq	0(%r13), %r13
	movq	(%r14), %r14
	movq	(%r15), %r15
	movq	(%rdi), %rdi
	movq	(%r8), %r8
	movq	(%r9), %r9
	movq	(%r10), %r10
	movq	(%r11), %r11
	movq	(%rbx), %rcx
	movq	(%rsi), %rbx
	movq	0(%rbp), %rbp
	movq	(%r12), %r12
	movq	0(%r13), %r13
	movq	(%r14), %r14
	movq	(%r15), %r15
	movq	(%rdi), %rdi
	movq	(%r8), %r8
	movq	(%r9), %r9
	movq	(%r10), %r10
	movq	(%r11), %rsi
	movq	(%rcx), %r11
	movq	(%rbx), %rbx
	movq	0(%rbp), %rbp
	movq	(%r12), %r12
	movq	0(%r13), %r13
	movq	(%r14), %r14
	movq	(%r15), %r15
	movq	(%rdi), %rdi
	movq	(%r8), %r8
	movq	(%r9), %r9
	movq	(%r10), %rcx
	movq	(%rsi), %r10
	movq	(%r11), %r11
	movq	(%rbx), %rbx
	movq	0(%rbp), %rbp
	movq	(%r12), %r12
	movq	0(%r13), %r13
	movq	(%r14), %r14
	movq	(%r15), %r15
	movq	(%rdi), %rdi
	movq	(%r8), %r8
	movq	(%r9), %rsi
	movq	(%rcx), %r9
	movq	(%r10), %r10
	movq	(%r11), %r11
	movq	(%rbx), %rbx
	movq	0(%rbp), %rbp
	movq	(%r12), %r12
	movq	0(%r13), %r13
	movq	(%r14), %r14
	movq	(%r15), %r15
	movq	(%rdi), %rdi
	movq	(%r8), %rcx
	movq	(%rsi), %r8
	movq	(%r9), %r9
	movq	(%r10), %r10
	movq	(%r11), %r11
	movq	(%rbx), %rbx
	movq	0(%rbp), %rbp
	movq	(%r12), %r12
	movq	0(%r13), %r13
	movq	(%r14), %r14
	movq	(%r15), %r15
	movq	(%rdi), %rsi
	movq	(%rcx), %rdi
	movq	(%r8), %r8
	movq	(%r9), %r9
	movq	(%r10), %r10
	movq	(%r11), %r11
	movq	(%rbx), %rbx
	movq	0(%rbp), %rbp
	movq	(%r12), %r12
	movq	0(%r13), %r13
	movq	(%r14), %r14
	movq	(%r15), %rcx
	movq	(%rsi), %r15
	movq	(%rdi), %rdi
	movq	(%r8), %r8
	movq	(%r9), %r9
	movq	(%r10), %r10
	movq	(%r11), %r11
	movq	(%rbx), %rbx
	movq	0(%rbp), %rbp
	movq	(%r12), %r12
	movq	0(%r13), %r13
	movq	(%r14), %rsi
	movq	(%rcx), %r14
	movq	(%r15), %r15
	movq	(%rdi), %rdi
	movq	(%r8), %r8
	movq	(%r9), %r9
	movq	(%r10), %r10
	movq	(%r11), %r11
	movq	(%rbx), %rbx
	movq	0(%rbp), %rbp
	movq	(%r12), %r12
	movq	0(%r13), %rcx
	movq	(%rsi), %r13
	movq	(%r14), %r14
	movq	(%r15), %r15
	movq	(%rdi), %rdi
	movq	(%r8), %r8
	movq	(%r9), %r9
	movq	(%r10), %r10
	movq	(%r11), %r11
	movq	(%rbx), %rbx
	movq	0(%rbp), %rbp
	movq	(%r12), %rsi
	movq	(%rcx), %r12
	movq	0(%r13), %r13
	movq	(%r14), %r14
	movq	(%r15), %r15
	movq	(%rdi), %rdi
	movq	(%r8), %r8
	movq	(%r9), %r9
	movq	(%r10), %r10
	movq	(%r11), %r11
	movq	(%rbx), %rbx
	movq	0(%rbp), %rcx
	movq	(%rsi), %rbp
	movq	(%r12), %r12
	movq	0(%r13), %r13
	movq	(%r14), %r14
	movq	(%r15), %r15
	movq	(%rdi), %rdi
	movq	(%r8), %r8
	movq	(%r9), %r9
	movq	(%r10), %r10
	movq	(%r11), %r11
	movq	(%rbx), %rsi
	movq	(%rcx), %rbx
	movq	0(%rbp), %rbp
	movq	(%r12), %r12
	movq	0(%r13), %r13
	movq	(%r14), %r14
	movq	(%r15), %r15
	movq	(%rdi), %rdi
	movq	(%r8), %r8
	movq	(%r9), %r9
	movq	(%r10), %r10
	movq	(%r11), %rcx
	movq	(%rsi), %r11
	movq	(%rbx), %rbx
	movq	0(%rbp), %rbp
	movq	(%r12), %r12
	movq	0(%r13), %r13
	movq	(%r14), %r14
	movq	(%r15), %r15
	movq	(%rdi), %rdi
	movq	(%r8), %r8
	movq	(%r9), %r9
	movq	(%r10), %rsi
	movq	(%rcx), %r10
	movq	(%r11), %r11
	movq	(%rbx), %rbx
	movq	0(%rbp), %rbp
	movq	(%r12), %r12
	movq	0(%r13), %r13
	movq	(%r14), %r14
	movq	(%r15), %r15
	movq	(%rdi), %rdi
	movq	(%r8), %r8
	movq	(%r9), %rcx
	movq	(%rsi), %r9
	movq	(%r10), %r10
	movq	(%r11), %r11
	movq	(%rbx), %rbx
	movq	0(%rbp), %rbp
	movq	(%r12), %r12
	movq	0(%r13), %r13
	movq	(%r14), %r14
	movq	(%r15), %r15
	movq	(%rdi), %rsi
	movq	%rsi, -8(%rsp)
	movq	(%r8), %rsi
	movq	(%rcx), %rcx
	movq	(%r9), %rdi
	movq	(%r10), %r8
	movq	(%r11), %r9
	movq	(%rbx), %r10
	movq	0(%rbp), %r11
	movq	(%r12), %rbx
	movq	0(%r13), %rbp
	movq	(%r14), %r12
	movq	(%r15), %r13
	movq	-8(%rsp), %r14
	movq	(%r14), %r14
	subq	$1, %rax
	cmpq	$-1, %rax
	jne	.L325
.L326:
	movq	%rsi, sp0.75(%rip)
	movq	%rcx, sp1.74(%rip)
	movq	%rdi, sp2.73(%rip)
	movq	%r8, sp3.72(%rip)
	movq	%r9, sp4.71(%rip)
	movq	%r10, sp5.70(%rip)
	movq	%r11, sp6.69(%rip)
	movq	%rbx, sp7.68(%rip)
	movq	%rbp, sp8.67(%rip)
	movq	%r12, sp9.66(%rip)
	movq	%r13, sp10.65(%rip)
	movq	%r14, sp11.64(%rip)
	movq	(%rdx), %rax
	movq	%rax, addr_save.76(%rip)
	movl	$1, mem_benchmark_rerun(%rip)
	popq	%rbx
	.cfi_def_cfa_offset 48
	popq	%rbp
	.cfi_def_cfa_offset 40
	popq	%r12
	.cfi_def_cfa_offset 32
	popq	%r13
	.cfi_def_cfa_offset 24
	popq	%r14
	.cfi_def_cfa_offset 16
	popq	%r15
	.cfi_def_cfa_offset 8
	ret
	.cfi_endproc
.LFE83:
	.size	mem_benchmark_11, .-mem_benchmark_11
	.globl	mem_benchmark_12
	.type	mem_benchmark_12, @function
mem_benchmark_12:
.LFB84:
	.cfi_startproc
	endbr64
	pushq	%r15
	.cfi_def_cfa_offset 16
	.cfi_offset 15, -16
	pushq	%r14
	.cfi_def_cfa_offset 24
	.cfi_offset 14, -24
	pushq	%r13
	.cfi_def_cfa_offset 32
	.cfi_offset 13, -32
	pushq	%r12
	.cfi_def_cfa_offset 40
	.cfi_offset 12, -40
	pushq	%rbp
	.cfi_def_cfa_offset 48
	.cfi_offset 6, -48
	pushq	%rbx
	.cfi_def_cfa_offset 56
	.cfi_offset 3, -56
	movq	%rdi, %rbp
	movq	%rsi, -8(%rsp)
	movl	mem_benchmark_rerun(%rip), %eax
	testl	%eax, %eax
	je	.L350
	movq	addr_save.63(%rip), %rcx
	movq	sp0.62(%rip), %r12
	cmpq	%rcx, (%rsi)
	je	.L352
	movq	-8(%rsp), %rdx
	movq	16(%rdx), %r12
	movq	addr_save.63(%rip), %rcx
	cmpq	%rcx, (%rdx)
	je	.L352
	movq	-8(%rsp), %rdx
	movq	24(%rdx), %r13
	testl	%eax, %eax
	je	.L353
	movq	-8(%rsp), %rcx
	movq	addr_save.63(%rip), %rdx
	cmpq	%rdx, (%rcx)
	je	.L355
	movq	32(%rcx), %r15
	testl	%eax, %eax
	je	.L356
	movq	-8(%rsp), %rdx
	movq	addr_save.63(%rip), %rcx
	cmpq	%rcx, (%rdx)
	je	.L358
	movq	40(%rdx), %rcx
	movq	%rcx, -48(%rsp)
	testl	%eax, %eax
	je	.L359
	movq	-8(%rsp), %rcx
	movq	addr_save.63(%rip), %rdx
	cmpq	%rdx, (%rcx)
	je	.L361
	movq	48(%rcx), %rbx
	testl	%eax, %eax
	je	.L362
	movq	-8(%rsp), %rdx
	movq	addr_save.63(%rip), %rcx
	cmpq	%rcx, (%rdx)
	je	.L364
	movq	56(%rdx), %r11
	testl	%eax, %eax
	je	.L365
	movq	-8(%rsp), %rcx
	movq	addr_save.63(%rip), %rdx
	cmpq	%rdx, (%rcx)
	je	.L367
	movq	64(%rcx), %r10
	testl	%eax, %eax
	je	.L368
	movq	-8(%rsp), %rcx
	movq	addr_save.63(%rip), %rdx
	cmpq	%rdx, (%rcx)
	je	.L388
	movq	-8(%rsp), %rcx
	movq	72(%rcx), %r9
	movq	addr_save.63(%rip), %rdx
	cmpq	%rdx, (%rcx)
	je	.L370
	movq	-8(%rsp), %rcx
	movq	80(%rcx), %r8
	testl	%eax, %eax
	je	.L371
	movq	-8(%rsp), %rdx
	movq	addr_save.63(%rip), %rcx
	cmpq	%rcx, (%rdx)
	je	.L385
	movq	-8(%rsp), %rdx
	movq	88(%rdx), %rdi
	movq	addr_save.63(%rip), %rcx
	cmpq	%rcx, (%rdx)
	je	.L373
	movq	-8(%rsp), %rdx
	movq	96(%rdx), %rsi
	testl	%eax, %eax
	je	.L374
	movq	-8(%rsp), %rax
	movq	addr_save.63(%rip), %rdx
	cmpq	%rdx, (%rax)
	je	.L382
	movq	-8(%rsp), %rax
	movq	104(%rax), %rdx
	movq	addr_save.63(%rip), %rcx
	cmpq	%rcx, (%rax)
	jne	.L380
	jmp	.L376
.L352:
	movq	sp1.61(%rip), %r13
.L355:
	movq	sp2.60(%rip), %r15
.L358:
	movq	sp3.59(%rip), %rax
	movq	%rax, -48(%rsp)
.L361:
	movq	sp4.58(%rip), %rbx
.L364:
	movq	sp5.57(%rip), %r11
.L367:
	movq	sp6.56(%rip), %r10
.L388:
	movq	sp7.55(%rip), %r9
.L370:
	movq	sp8.54(%rip), %r8
.L385:
	movq	sp9.53(%rip), %rdi
.L373:
	movq	sp10.52(%rip), %rsi
.L382:
	movq	sp11.51(%rip), %rdx
.L376:
	movq	sp12.50(%rip), %rcx
	jmp	.L379
.L350:
	movq	-8(%rsp), %rax
	movq	16(%rax), %r12
	movq	24(%rax), %r13
.L353:
	movq	-8(%rsp), %rax
	movq	32(%rax), %r15
.L356:
	movq	-8(%rsp), %rax
	movq	40(%rax), %rax
	movq	%rax, -48(%rsp)
.L359:
	movq	-8(%rsp), %rax
	movq	48(%rax), %rbx
.L362:
	movq	-8(%rsp), %rax
	movq	56(%rax), %r11
.L365:
	movq	-8(%rsp), %rax
	movq	64(%rax), %r10
.L368:
	movq	-8(%rsp), %rax
	movq	72(%rax), %r9
	movq	80(%rax), %r8
.L371:
	movq	-8(%rsp), %rax
	movq	88(%rax), %rdi
	movq	96(%rax), %rsi
.L374:
	movq	-8(%rsp), %rax
	movq	104(%rax), %rdx
.L380:
	movq	-8(%rsp), %rax
	movq	112(%rax), %rcx
.L379:
	leaq	-1(%rbp), %rax
	testq	%rbp, %rbp
	je	.L378
.L377:
	movq	(%r12), %r14
	movq	0(%r13), %r13
	movq	(%r15), %r12
	movq	-48(%rsp), %r15
	movq	(%r15), %rbp
	movq	(%rbx), %rbx
	movq	(%r11), %r11
	movq	(%r10), %r10
	movq	(%r9), %r9
	movq	(%r8), %r8
	movq	(%rdi), %rdi
	movq	(%rsi), %rsi
	movq	(%rdx), %rdx
	movq	(%rcx), %r15
	movq	(%r14), %r14
	movq	0(%r13), %r13
	movq	(%r12), %rcx
	movq	0(%rbp), %rbp
	movq	(%rbx), %rbx
	movq	(%r11), %r11
	movq	(%r10), %r10
	movq	(%r9), %r9
	movq	(%r8), %r8
	movq	(%rdi), %rdi
	movq	(%rsi), %rsi
	movq	(%rdx), %r12
	movq	(%r15), %r15
	movq	(%r14), %r14
	movq	0(%r13), %rdx
	movq	(%rcx), %r13
	movq	0(%rbp), %rbp
	movq	(%rbx), %rbx
	movq	(%r11), %r11
	movq	(%r10), %r10
	movq	(%r9), %r9
	movq	(%r8), %r8
	movq	(%rdi), %rdi
	movq	(%rsi), %rsi
	movq	(%r12), %r12
	movq	(%r15), %r15
	movq	(%r14), %rcx
	movq	(%rdx), %r14
	movq	0(%r13), %r13
	movq	0(%rbp), %rbp
	movq	(%rbx), %rbx
	movq	(%r11), %r11
	movq	(%r10), %r10
	movq	(%r9), %r9
	movq	(%r8), %r8
	movq	(%rdi), %rdi
	movq	(%rsi), %rsi
	movq	(%r12), %r12
	movq	(%r15), %rdx
	movq	(%rcx), %r15
	movq	(%r14), %r14
	movq	0(%r13), %r13
	movq	0(%rbp), %rbp
	movq	(%rbx), %rbx
	movq	(%r11), %r11
	movq	(%r10), %r10
	movq	(%r9), %r9
	movq	(%r8), %r8
	movq	(%rdi), %rdi
	movq	(%rsi), %rsi
	movq	(%r12), %rcx
	movq	(%rdx), %r12
	movq	(%r15), %r15
	movq	(%r14), %r14
	movq	0(%r13), %r13
	movq	0(%rbp), %rbp
	movq	(%rbx), %rbx
	movq	(%r11), %r11
	movq	(%r10), %r10
	movq	(%r9), %r9
	movq	(%r8), %r8
	movq	(%rdi), %rdi
	movq	(%rsi), %rdx
	movq	(%rcx), %rsi
	movq	(%r12), %r12
	movq	(%r15), %r15
	movq	(%r14), %r14
	movq	0(%r13), %r13
	movq	0(%rbp), %rbp
	movq	(%rbx), %rbx
	movq	(%r11), %r11
	movq	(%r10), %r10
	movq	(%r9), %r9
	movq	(%r8), %r8
	movq	(%rdi), %rcx
	movq	(%rdx), %rdi
	movq	(%rsi), %rsi
	movq	(%r12), %r12
	movq	(%r15), %r15
	movq	(%r14), %r14
	movq	0(%r13), %r13
	movq	0(%rbp), %rbp
	movq	(%rbx), %rbx
	movq	(%r11), %r11
	movq	(%r10), %r10
	movq	(%r9), %r9
	movq	(%r8), %rdx
	movq	(%rcx), %r8
	movq	(%rdi), %rdi
	movq	(%rsi), %rsi
	movq	(%r12), %r12
	movq	(%r15), %r15
	movq	(%r14), %r14
	movq	0(%r13), %r13
	movq	0(%rbp), %rbp
	movq	(%rbx), %rbx
	movq	(%r11), %r11
	movq	(%r10), %r10
	movq	(%r9), %rcx
	movq	(%rdx), %r9
	movq	(%r8), %r8
	movq	(%rdi), %rdi
	movq	(%rsi), %rsi
	movq	(%r12), %r12
	movq	(%r15), %r15
	movq	(%r14), %r14
	movq	0(%r13), %r13
	movq	0(%rbp), %rbp
	movq	(%rbx), %rbx
	movq	(%r11), %r11
	movq	(%r10), %rdx
	movq	(%rcx), %r10
	movq	(%r9), %r9
	movq	(%r8), %r8
	movq	(%rdi), %rdi
	movq	(%rsi), %rsi
	movq	(%r12), %r12
	movq	(%r15), %r15
	movq	(%r14), %r14
	movq	0(%r13), %r13
	movq	0(%rbp), %rbp
	movq	(%rbx), %rbx
	movq	(%r11), %rcx
	movq	(%rdx), %r11
	movq	(%r10), %r10
	movq	(%r9), %r9
	movq	(%r8), %r8
	movq	(%rdi), %rdi
	movq	(%rsi), %rsi
	movq	(%r12), %r12
	movq	(%r15), %r15
	movq	(%r14), %r14
	movq	0(%r13), %r13
	movq	0(%rbp), %rbp
	movq	(%rbx), %rdx
	movq	(%rcx), %rbx
	movq	(%r11), %r11
	movq	(%r10), %r10
	movq	(%r9), %r9
	movq	(%r8), %r8
	movq	(%rdi), %rdi
	movq	(%rsi), %rsi
	movq	(%r12), %r12
	movq	(%r15), %r15
	movq	(%r14), %r14
	movq	0(%r13), %r13
	movq	0(%rbp), %rcx
	movq	(%rdx), %rbp
	movq	(%rbx), %rbx
	movq	(%r11), %r11
	movq	(%r10), %r10
	movq	(%r9), %r9
	movq	(%r8), %r8
	movq	(%rdi), %rdi
	movq	(%rsi), %rsi
	movq	(%r12), %r12
	movq	(%r15), %r15
	movq	(%r14), %r14
	movq	0(%r13), %rdx
	movq	(%rcx), %r13
	movq	0(%rbp), %rbp
	movq	(%rbx), %rbx
	movq	(%r11), %r11
	movq	(%r10), %r10
	movq	(%r9), %r9
	movq	(%r8), %r8
	movq	(%rdi), %rdi
	movq	(%rsi), %rsi
	movq	(%r12), %r12
	movq	(%r15), %r15
	movq	(%r14), %rcx
	movq	(%rdx), %r14
	movq	0(%r13), %r13
	movq	0(%rbp), %rbp
	movq	(%rbx), %rbx
	movq	(%r11), %r11
	movq	(%r10), %r10
	movq	(%r9), %r9
	movq	(%r8), %r8
	movq	(%rdi), %rdi
	movq	(%rsi), %rsi
	movq	(%r12), %r12
	movq	(%r15), %rdx
	movq	(%rcx), %r15
	movq	(%r14), %r14
	movq	0(%r13), %r13
	movq	0(%rbp), %rbp
	movq	(%rbx), %rbx
	movq	(%r11), %r11
	movq	(%r10), %r10
	movq	(%r9), %r9
	movq	(%r8), %r8
	movq	(%rdi), %rdi
	movq	(%rsi), %rsi
	movq	(%r12), %rcx
	movq	(%rdx), %r12
	movq	(%r15), %r15
	movq	(%r14), %r14
	movq	0(%r13), %r13
	movq	0(%rbp), %rbp
	movq	(%rbx), %rbx
	movq	(%r11), %r11
	movq	(%r10), %r10
	movq	(%r9), %r9
	movq	(%r8), %r8
	movq	(%rdi), %rdi
	movq	(%rsi), %rdx
	movq	(%rcx), %rsi
	movq	(%r12), %r12
	movq	(%r15), %r15
	movq	(%r14), %r14
	movq	0(%r13), %r13
	movq	0(%rbp), %rbp
	movq	(%rbx), %rbx
	movq	(%r11), %r11
	movq	(%r10), %r10
	movq	(%r9), %r9
	movq	(%r8), %r8
	movq	(%rdi), %rcx
	movq	(%rdx), %rdi
	movq	(%rsi), %rsi
	movq	(%r12), %r12
	movq	(%r15), %r15
	movq	(%r14), %r14
	movq	0(%r13), %r13
	movq	0(%rbp), %rbp
	movq	(%rbx), %rbx
	movq	(%r11), %r11
	movq	(%r10), %r10
	movq	(%r9), %r9
	movq	(%r8), %rdx
	movq	(%rcx), %r8
	movq	(%rdi), %rdi
	movq	(%rsi), %rsi
	movq	(%r12), %r12
	movq	(%r15), %r15
	movq	(%r14), %r14
	movq	0(%r13), %r13
	movq	0(%rbp), %rbp
	movq	(%rbx), %rbx
	movq	(%r11), %r11
	movq	(%r10), %r10
	movq	(%r9), %rcx
	movq	(%rdx), %r9
	movq	(%r8), %r8
	movq	(%rdi), %rdi
	movq	(%rsi), %rsi
	movq	(%r12), %r12
	movq	(%r15), %r15
	movq	(%r14), %r14
	movq	0(%r13), %r13
	movq	0(%rbp), %rbp
	movq	(%rbx), %rbx
	movq	(%r11), %r11
	movq	(%r10), %rdx
	movq	(%rcx), %r10
	movq	(%r9), %r9
	movq	(%r8), %r8
	movq	(%rdi), %rdi
	movq	(%rsi), %rsi
	movq	(%r12), %r12
	movq	(%r15), %r15
	movq	(%r14), %r14
	movq	0(%r13), %r13
	movq	0(%rbp), %rbp
	movq	(%rbx), %rbx
	movq	(%r11), %rcx
	movq	(%rdx), %r11
	movq	(%r10), %r10
	movq	(%r9), %r9
	movq	(%r8), %r8
	movq	(%rdi), %rdi
	movq	(%rsi), %rsi
	movq	(%r12), %r12
	movq	(%r15), %r15
	movq	(%r14), %r14
	movq	0(%r13), %r13
	movq	0(%rbp), %rbp
	movq	(%rbx), %rdx
	movq	(%rcx), %rbx
	movq	(%r11), %r11
	movq	(%r10), %r10
	movq	(%r9), %r9
	movq	(%r8), %r8
	movq	(%rdi), %rdi
	movq	(%rsi), %rsi
	movq	(%r12), %r12
	movq	(%r15), %r15
	movq	(%r14), %r14
	movq	0(%r13), %r13
	movq	0(%rbp), %rcx
	movq	(%rdx), %rbp
	movq	(%rbx), %rbx
	movq	(%r11), %r11
	movq	(%r10), %r10
	movq	(%r9), %r9
	movq	(%r8), %r8
	movq	(%rdi), %rdi
	movq	(%rsi), %rsi
	movq	(%r12), %r12
	movq	(%r15), %r15
	movq	(%r14), %r14
	movq	0(%r13), %rdx
	movq	(%rcx), %r13
	movq	0(%rbp), %rbp
	movq	(%rbx), %rbx
	movq	(%r11), %r11
	movq	(%r10), %r10
	movq	(%r9), %r9
	movq	(%r8), %r8
	movq	(%rdi), %rdi
	movq	(%rsi), %rsi
	movq	(%r12), %r12
	movq	(%r15), %r15
	movq	(%r14), %rcx
	movq	(%rdx), %r14
	movq	0(%r13), %r13
	movq	0(%rbp), %rbp
	movq	(%rbx), %rbx
	movq	(%r11), %r11
	movq	(%r10), %r10
	movq	(%r9), %r9
	movq	(%r8), %r8
	movq	(%rdi), %rdi
	movq	(%rsi), %rsi
	movq	(%r12), %r12
	movq	(%r15), %rdx
	movq	(%rcx), %r15
	movq	(%r14), %r14
	movq	0(%r13), %r13
	movq	0(%rbp), %rbp
	movq	(%rbx), %rbx
	movq	(%r11), %r11
	movq	(%r10), %r10
	movq	(%r9), %r9
	movq	(%r8), %r8
	movq	(%rdi), %rdi
	movq	(%rsi), %rsi
	movq	(%r12), %rcx
	movq	(%rdx), %r12
	movq	(%r15), %r15
	movq	(%r14), %r14
	movq	0(%r13), %r13
	movq	0(%rbp), %rbp
	movq	(%rbx), %rbx
	movq	(%r11), %r11
	movq	(%r10), %r10
	movq	(%r9), %r9
	movq	(%r8), %r8
	movq	(%rdi), %rdi
	movq	(%rsi), %rdx
	movq	(%rcx), %rsi
	movq	(%r12), %r12
	movq	(%r15), %r15
	movq	(%r14), %r14
	movq	0(%r13), %r13
	movq	0(%rbp), %rbp
	movq	(%rbx), %rbx
	movq	(%r11), %r11
	movq	(%r10), %r10
	movq	(%r9), %r9
	movq	(%r8), %r8
	movq	(%rdi), %rcx
	movq	(%rdx), %rdi
	movq	(%rsi), %rsi
	movq	(%r12), %r12
	movq	(%r15), %r15
	movq	(%r14), %r14
	movq	0(%r13), %r13
	movq	0(%rbp), %rbp
	movq	(%rbx), %rbx
	movq	(%r11), %r11
	movq	(%r10), %r10
	movq	(%r9), %r9
	movq	(%r8), %rdx
	movq	(%rcx), %r8
	movq	(%rdi), %rdi
	movq	(%rsi), %rsi
	movq	(%r12), %r12
	movq	(%r15), %r15
	movq	(%r14), %r14
	movq	0(%r13), %r13
	movq	0(%rbp), %rbp
	movq	(%rbx), %rbx
	movq	(%r11), %r11
	movq	(%r10), %r10
	movq	(%r9), %rcx
	movq	(%rdx), %r9
	movq	(%r8), %r8
	movq	(%rdi), %rdi
	movq	(%rsi), %rsi
	movq	(%r12), %r12
	movq	(%r15), %r15
	movq	(%r14), %r14
	movq	0(%r13), %r13
	movq	0(%rbp), %rbp
	movq	(%rbx), %rbx
	movq	(%r11), %r11
	movq	(%r10), %rdx
	movq	(%rcx), %r10
	movq	(%r9), %r9
	movq	(%r8), %r8
	movq	(%rdi), %rdi
	movq	(%rsi), %rsi
	movq	(%r12), %r12
	movq	(%r15), %r15
	movq	(%r14), %r14
	movq	0(%r13), %r13
	movq	0(%rbp), %rbp
	movq	(%rbx), %rbx
	movq	(%r11), %rcx
	movq	(%rdx), %r11
	movq	(%r10), %r10
	movq	(%r9), %r9
	movq	(%r8), %r8
	movq	(%rdi), %rdi
	movq	(%rsi), %rsi
	movq	(%r12), %r12
	movq	(%r15), %r15
	movq	(%r14), %r14
	movq	0(%r13), %r13
	movq	0(%rbp), %rbp
	movq	(%rbx), %rdx
	movq	(%rcx), %rbx
	movq	(%r11), %r11
	movq	(%r10), %r10
	movq	(%r9), %r9
	movq	(%r8), %r8
	movq	(%rdi), %rdi
	movq	(%rsi), %rsi
	movq	(%r12), %r12
	movq	(%r15), %r15
	movq	(%r14), %r14
	movq	0(%r13), %r13
	movq	0(%rbp), %rcx
	movq	(%rdx), %rbp
	movq	(%rbx), %rbx
	movq	(%r11), %r11
	movq	(%r10), %r10
	movq	(%r9), %r9
	movq	(%r8), %r8
	movq	(%rdi), %rdi
	movq	(%rsi), %rsi
	movq	(%r12), %r12
	movq	(%r15), %r15
	movq	(%r14), %r14
	movq	0(%r13), %rdx
	movq	(%rcx), %r13
	movq	0(%rbp), %rbp
	movq	(%rbx), %rbx
	movq	(%r11), %r11
	movq	(%r10), %r10
	movq	(%r9), %r9
	movq	(%r8), %r8
	movq	(%rdi), %rdi
	movq	(%rsi), %rsi
	movq	(%r12), %r12
	movq	(%r15), %r15
	movq	(%r14), %rcx
	movq	(%rdx), %r14
	movq	0(%r13), %r13
	movq	0(%rbp), %rbp
	movq	(%rbx), %rbx
	movq	(%r11), %r11
	movq	(%r10), %r10
	movq	(%r9), %r9
	movq	(%r8), %r8
	movq	(%rdi), %rdi
	movq	(%rsi), %rsi
	movq	(%r12), %r12
	movq	(%r15), %rdx
	movq	(%rcx), %r15
	movq	(%r14), %r14
	movq	0(%r13), %r13
	movq	0(%rbp), %rbp
	movq	(%rbx), %rbx
	movq	(%r11), %r11
	movq	(%r10), %r10
	movq	(%r9), %r9
	movq	(%r8), %r8
	movq	(%rdi), %rdi
	movq	(%rsi), %rsi
	movq	(%r12), %rcx
	movq	(%rdx), %r12
	movq	(%r15), %r15
	movq	(%r14), %r14
	movq	0(%r13), %r13
	movq	0(%rbp), %rbp
	movq	(%rbx), %rbx
	movq	(%r11), %r11
	movq	(%r10), %r10
	movq	(%r9), %r9
	movq	(%r8), %r8
	movq	(%rdi), %rdi
	movq	(%rsi), %rdx
	movq	(%rcx), %rsi
	movq	(%r12), %r12
	movq	(%r15), %r15
	movq	(%r14), %r14
	movq	0(%r13), %r13
	movq	0(%rbp), %rbp
	movq	(%rbx), %rbx
	movq	(%r11), %r11
	movq	(%r10), %r10
	movq	(%r9), %r9
	movq	(%r8), %r8
	movq	(%rdi), %rcx
	movq	(%rdx), %rdi
	movq	(%rsi), %rsi
	movq	(%r12), %r12
	movq	(%r15), %r15
	movq	(%r14), %r14
	movq	0(%r13), %r13
	movq	0(%rbp), %rbp
	movq	(%rbx), %rbx
	movq	(%r11), %r11
	movq	(%r10), %r10
	movq	(%r9), %r9
	movq	(%r8), %rdx
	movq	(%rcx), %r8
	movq	(%rdi), %rdi
	movq	(%rsi), %rsi
	movq	(%r12), %r12
	movq	(%r15), %r15
	movq	(%r14), %r14
	movq	0(%r13), %r13
	movq	0(%rbp), %rbp
	movq	(%rbx), %rbx
	movq	(%r11), %r11
	movq	(%r10), %r10
	movq	(%r9), %rcx
	movq	(%rdx), %r9
	movq	(%r8), %r8
	movq	(%rdi), %rdi
	movq	(%rsi), %rsi
	movq	(%r12), %r12
	movq	(%r15), %r15
	movq	(%r14), %r14
	movq	0(%r13), %r13
	movq	0(%rbp), %rbp
	movq	(%rbx), %rbx
	movq	(%r11), %r11
	movq	(%r10), %rdx
	movq	(%rcx), %r10
	movq	(%r9), %r9
	movq	(%r8), %r8
	movq	(%rdi), %rdi
	movq	(%rsi), %rsi
	movq	(%r12), %r12
	movq	(%r15), %r15
	movq	(%r14), %r14
	movq	0(%r13), %r13
	movq	0(%rbp), %rbp
	movq	(%rbx), %rbx
	movq	(%r11), %rcx
	movq	(%rdx), %r11
	movq	(%r10), %r10
	movq	(%r9), %r9
	movq	(%r8), %r8
	movq	(%rdi), %rdi
	movq	(%rsi), %rsi
	movq	(%r12), %r12
	movq	(%r15), %r15
	movq	(%r14), %r14
	movq	0(%r13), %r13
	movq	0(%rbp), %rbp
	movq	(%rbx), %rdx
	movq	(%rcx), %rbx
	movq	(%r11), %r11
	movq	(%r10), %r10
	movq	(%r9), %r9
	movq	(%r8), %r8
	movq	(%rdi), %rdi
	movq	(%rsi), %rsi
	movq	(%r12), %r12
	movq	(%r15), %r15
	movq	(%r14), %r14
	movq	0(%r13), %r13
	movq	0(%rbp), %rcx
	movq	(%rdx), %rbp
	movq	(%rbx), %rbx
	movq	(%r11), %r11
	movq	(%r10), %r10
	movq	(%r9), %r9
	movq	(%r8), %r8
	movq	(%rdi), %rdi
	movq	(%rsi), %rsi
	movq	(%r12), %r12
	movq	(%r15), %r15
	movq	(%r14), %r14
	movq	0(%r13), %rdx
	movq	(%rcx), %r13
	movq	0(%rbp), %rbp
	movq	(%rbx), %rbx
	movq	(%r11), %r11
	movq	(%r10), %r10
	movq	(%r9), %r9
	movq	(%r8), %r8
	movq	(%rdi), %rdi
	movq	(%rsi), %rsi
	movq	(%r12), %r12
	movq	(%r15), %r15
	movq	(%r14), %rcx
	movq	(%rdx), %r14
	movq	0(%r13), %r13
	movq	0(%rbp), %rbp
	movq	(%rbx), %rbx
	movq	(%r11), %r11
	movq	(%r10), %r10
	movq	(%r9), %r9
	movq	(%r8), %r8
	movq	(%rdi), %rdi
	movq	(%rsi), %rsi
	movq	(%r12), %r12
	movq	(%r15), %rdx
	movq	(%rcx), %r15
	movq	(%r14), %r14
	movq	0(%r13), %r13
	movq	0(%rbp), %rbp
	movq	(%rbx), %rbx
	movq	(%r11), %r11
	movq	(%r10), %r10
	movq	(%r9), %r9
	movq	(%r8), %r8
	movq	(%rdi), %rdi
	movq	(%rsi), %rsi
	movq	(%r12), %rcx
	movq	(%rdx), %r12
	movq	(%r15), %r15
	movq	(%r14), %r14
	movq	0(%r13), %r13
	movq	0(%rbp), %rbp
	movq	(%rbx), %rbx
	movq	(%r11), %r11
	movq	(%r10), %r10
	movq	(%r9), %r9
	movq	(%r8), %r8
	movq	(%rdi), %rdi
	movq	(%rsi), %rdx
	movq	(%rcx), %rsi
	movq	(%r12), %r12
	movq	(%r15), %r15
	movq	(%r14), %r14
	movq	0(%r13), %r13
	movq	0(%rbp), %rbp
	movq	(%rbx), %rbx
	movq	(%r11), %r11
	movq	(%r10), %r10
	movq	(%r9), %r9
	movq	(%r8), %r8
	movq	(%rdi), %rcx
	movq	(%rdx), %rdi
	movq	(%rsi), %rsi
	movq	(%r12), %r12
	movq	(%r15), %r15
	movq	(%r14), %r14
	movq	0(%r13), %r13
	movq	0(%rbp), %rbp
	movq	(%rbx), %rbx
	movq	(%r11), %r11
	movq	(%r10), %r10
	movq	(%r9), %r9
	movq	(%r8), %rdx
	movq	(%rcx), %r8
	movq	(%rdi), %rdi
	movq	(%rsi), %rsi
	movq	(%r12), %r12
	movq	(%r15), %r15
	movq	(%r14), %r14
	movq	0(%r13), %r13
	movq	0(%rbp), %rbp
	movq	(%rbx), %rbx
	movq	(%r11), %r11
	movq	(%r10), %r10
	movq	(%r9), %rcx
	movq	(%rdx), %r9
	movq	(%r8), %r8
	movq	(%rdi), %rdi
	movq	(%rsi), %rsi
	movq	(%r12), %r12
	movq	(%r15), %r15
	movq	(%r14), %r14
	movq	0(%r13), %r13
	movq	0(%rbp), %rbp
	movq	(%rbx), %rbx
	movq	(%r11), %r11
	movq	(%r10), %rdx
	movq	(%rcx), %r10
	movq	(%r9), %r9
	movq	(%r8), %r8
	movq	(%rdi), %rdi
	movq	(%rsi), %rsi
	movq	(%r12), %r12
	movq	(%r15), %r15
	movq	(%r14), %r14
	movq	0(%r13), %r13
	movq	0(%rbp), %rbp
	movq	(%rbx), %rbx
	movq	(%r11), %rcx
	movq	(%rdx), %r11
	movq	(%r10), %r10
	movq	(%r9), %r9
	movq	(%r8), %r8
	movq	(%rdi), %rdi
	movq	(%rsi), %rsi
	movq	(%r12), %r12
	movq	(%r15), %r15
	movq	(%r14), %r14
	movq	0(%r13), %r13
	movq	0(%rbp), %rbp
	movq	(%rbx), %rdx
	movq	(%rcx), %rbx
	movq	(%r11), %r11
	movq	(%r10), %r10
	movq	(%r9), %r9
	movq	(%r8), %r8
	movq	(%rdi), %rdi
	movq	(%rsi), %rsi
	movq	(%r12), %r12
	movq	(%r15), %r15
	movq	(%r14), %r14
	movq	0(%r13), %r13
	movq	0(%rbp), %rcx
	movq	(%rdx), %rbp
	movq	(%rbx), %rbx
	movq	(%r11), %r11
	movq	(%r10), %r10
	movq	(%r9), %r9
	movq	(%r8), %r8
	movq	(%rdi), %rdi
	movq	(%rsi), %rsi
	movq	(%r12), %r12
	movq	(%r15), %r15
	movq	(%r14), %r14
	movq	0(%r13), %rdx
	movq	(%rcx), %r13
	movq	0(%rbp), %rbp
	movq	(%rbx), %rbx
	movq	(%r11), %r11
	movq	(%r10), %r10
	movq	(%r9), %r9
	movq	(%r8), %r8
	movq	(%rdi), %rdi
	movq	(%rsi), %rsi
	movq	(%r12), %r12
	movq	(%r15), %r15
	movq	(%r14), %rcx
	movq	(%rdx), %r14
	movq	0(%r13), %r13
	movq	0(%rbp), %rbp
	movq	(%rbx), %rbx
	movq	(%r11), %r11
	movq	(%r10), %r10
	movq	(%r9), %r9
	movq	(%r8), %r8
	movq	(%rdi), %rdi
	movq	(%rsi), %rsi
	movq	(%r12), %r12
	movq	(%r15), %rdx
	movq	(%rcx), %r15
	movq	(%r14), %r14
	movq	0(%r13), %r13
	movq	0(%rbp), %rbp
	movq	(%rbx), %rbx
	movq	(%r11), %r11
	movq	(%r10), %r10
	movq	(%r9), %r9
	movq	(%r8), %r8
	movq	(%rdi), %rdi
	movq	(%rsi), %rsi
	movq	(%r12), %rcx
	movq	(%rdx), %r12
	movq	(%r15), %r15
	movq	(%r14), %r14
	movq	0(%r13), %r13
	movq	0(%rbp), %rbp
	movq	(%rbx), %rbx
	movq	(%r11), %r11
	movq	(%r10), %r10
	movq	(%r9), %r9
	movq	(%r8), %r8
	movq	(%rdi), %rdi
	movq	(%rsi), %rdx
	movq	(%rcx), %rsi
	movq	(%r12), %r12
	movq	(%r15), %r15
	movq	(%r14), %r14
	movq	0(%r13), %r13
	movq	0(%rbp), %rbp
	movq	(%rbx), %rbx
	movq	(%r11), %r11
	movq	(%r10), %r10
	movq	(%r9), %r9
	movq	(%r8), %r8
	movq	(%rdi), %rcx
	movq	(%rdx), %rdi
	movq	(%rsi), %rsi
	movq	(%r12), %r12
	movq	(%r15), %r15
	movq	(%r14), %r14
	movq	0(%r13), %r13
	movq	0(%rbp), %rbp
	movq	(%rbx), %rbx
	movq	(%r11), %r11
	movq	(%r10), %r10
	movq	(%r9), %r9
	movq	(%r8), %rdx
	movq	(%rcx), %r8
	movq	(%rdi), %rdi
	movq	(%rsi), %rsi
	movq	(%r12), %r12
	movq	(%r15), %r15
	movq	(%r14), %r14
	movq	0(%r13), %r13
	movq	0(%rbp), %rbp
	movq	(%rbx), %rbx
	movq	(%r11), %r11
	movq	(%r10), %r10
	movq	(%r9), %rcx
	movq	(%rdx), %r9
	movq	(%r8), %r8
	movq	(%rdi), %rdi
	movq	(%rsi), %rsi
	movq	(%r12), %r12
	movq	(%r15), %r15
	movq	(%r14), %r14
	movq	0(%r13), %r13
	movq	0(%rbp), %rbp
	movq	(%rbx), %rbx
	movq	(%r11), %r11
	movq	(%r10), %rdx
	movq	(%rcx), %r10
	movq	(%r9), %r9
	movq	(%r8), %r8
	movq	(%rdi), %rdi
	movq	(%rsi), %rsi
	movq	(%r12), %r12
	movq	(%r15), %r15
	movq	(%r14), %r14
	movq	0(%r13), %r13
	movq	0(%rbp), %rbp
	movq	(%rbx), %rbx
	movq	(%r11), %rcx
	movq	(%rdx), %r11
	movq	(%r10), %r10
	movq	(%r9), %r9
	movq	(%r8), %r8
	movq	(%rdi), %rdi
	movq	(%rsi), %rsi
	movq	(%r12), %r12
	movq	(%r15), %r15
	movq	(%r14), %r14
	movq	0(%r13), %r13
	movq	0(%rbp), %rbp
	movq	(%rbx), %rdx
	movq	(%rcx), %rbx
	movq	(%r11), %r11
	movq	(%r10), %r10
	movq	(%r9), %r9
	movq	(%r8), %r8
	movq	(%rdi), %rdi
	movq	(%rsi), %rsi
	movq	(%r12), %r12
	movq	(%r15), %r15
	movq	(%r14), %r14
	movq	0(%r13), %r13
	movq	0(%rbp), %rcx
	movq	(%rdx), %rbp
	movq	(%rbx), %rbx
	movq	(%r11), %r11
	movq	(%r10), %r10
	movq	(%r9), %r9
	movq	(%r8), %r8
	movq	(%rdi), %rdi
	movq	(%rsi), %rsi
	movq	(%r12), %r12
	movq	(%r15), %r15
	movq	(%r14), %r14
	movq	0(%r13), %rdx
	movq	(%rcx), %r13
	movq	0(%rbp), %rbp
	movq	(%rbx), %rbx
	movq	(%r11), %r11
	movq	(%r10), %r10
	movq	(%r9), %r9
	movq	(%r8), %r8
	movq	(%rdi), %rdi
	movq	(%rsi), %rsi
	movq	(%r12), %r12
	movq	(%r15), %r15
	movq	(%r14), %rcx
	movq	(%rdx), %r14
	movq	0(%r13), %r13
	movq	0(%rbp), %rbp
	movq	(%rbx), %rbx
	movq	(%r11), %r11
	movq	(%r10), %r10
	movq	(%r9), %r9
	movq	(%r8), %r8
	movq	(%rdi), %rdi
	movq	(%rsi), %rsi
	movq	(%r12), %r12
	movq	(%r15), %rdx
	movq	(%rcx), %r15
	movq	(%r14), %r14
	movq	0(%r13), %r13
	movq	0(%rbp), %rbp
	movq	(%rbx), %rbx
	movq	(%r11), %r11
	movq	(%r10), %r10
	movq	(%r9), %r9
	movq	(%r8), %r8
	movq	(%rdi), %rdi
	movq	(%rsi), %rsi
	movq	(%r12), %rcx
	movq	(%rdx), %r12
	movq	(%r15), %r15
	movq	(%r14), %r14
	movq	0(%r13), %r13
	movq	0(%rbp), %rbp
	movq	(%rbx), %rbx
	movq	(%r11), %r11
	movq	(%r10), %r10
	movq	(%r9), %r9
	movq	(%r8), %r8
	movq	(%rdi), %rdi
	movq	(%rsi), %rdx
	movq	(%rcx), %rsi
	movq	(%r12), %r12
	movq	(%r15), %r15
	movq	(%r14), %r14
	movq	0(%r13), %r13
	movq	0(%rbp), %rbp
	movq	(%rbx), %rbx
	movq	(%r11), %r11
	movq	(%r10), %r10
	movq	(%r9), %r9
	movq	(%r8), %r8
	movq	(%rdi), %rcx
	movq	(%rdx), %rdi
	movq	(%rsi), %rsi
	movq	(%r12), %r12
	movq	(%r15), %r15
	movq	(%r14), %r14
	movq	0(%r13), %r13
	movq	0(%rbp), %rbp
	movq	(%rbx), %rbx
	movq	(%r11), %r11
	movq	(%r10), %r10
	movq	(%r9), %r9
	movq	(%r8), %rdx
	movq	(%rcx), %r8
	movq	(%rdi), %rdi
	movq	(%rsi), %rsi
	movq	(%r12), %r12
	movq	(%r15), %r15
	movq	(%r14), %r14
	movq	0(%r13), %r13
	movq	0(%rbp), %rbp
	movq	(%rbx), %rbx
	movq	(%r11), %r11
	movq	(%r10), %r10
	movq	(%r9), %rcx
	movq	(%rdx), %r9
	movq	(%r8), %r8
	movq	(%rdi), %rdi
	movq	(%rsi), %rsi
	movq	(%r12), %r12
	movq	(%r15), %r15
	movq	(%r14), %r14
	movq	0(%r13), %r13
	movq	0(%rbp), %rbp
	movq	(%rbx), %rbx
	movq	(%r11), %r11
	movq	(%r10), %rdx
	movq	(%rcx), %r10
	movq	(%r9), %r9
	movq	(%r8), %r8
	movq	(%rdi), %rdi
	movq	(%rsi), %rsi
	movq	(%r12), %r12
	movq	(%r15), %r15
	movq	(%r14), %r14
	movq	0(%r13), %r13
	movq	0(%rbp), %rbp
	movq	(%rbx), %rbx
	movq	(%r11), %rcx
	movq	(%rdx), %r11
	movq	(%r10), %r10
	movq	(%r9), %r9
	movq	(%r8), %r8
	movq	(%rdi), %rdi
	movq	(%rsi), %rsi
	movq	(%r12), %r12
	movq	(%r15), %r15
	movq	(%r14), %r14
	movq	0(%r13), %r13
	movq	0(%rbp), %rbp
	movq	(%rbx), %rdx
	movq	(%rcx), %rbx
	movq	(%r11), %r11
	movq	(%r10), %r10
	movq	(%r9), %r9
	movq	(%r8), %r8
	movq	(%rdi), %rdi
	movq	(%rsi), %rsi
	movq	(%r12), %r12
	movq	(%r15), %r15
	movq	(%r14), %r14
	movq	0(%r13), %r13
	movq	0(%rbp), %rcx
	movq	(%rdx), %rbp
	movq	(%rbx), %rbx
	movq	(%r11), %r11
	movq	(%r10), %r10
	movq	(%r9), %r9
	movq	(%r8), %r8
	movq	(%rdi), %rdi
	movq	(%rsi), %rsi
	movq	(%r12), %r12
	movq	(%r15), %r15
	movq	(%r14), %r14
	movq	0(%r13), %rdx
	movq	(%rcx), %r13
	movq	0(%rbp), %rbp
	movq	(%rbx), %rbx
	movq	(%r11), %r11
	movq	(%r10), %r10
	movq	(%r9), %r9
	movq	(%r8), %r8
	movq	(%rdi), %rdi
	movq	(%rsi), %rsi
	movq	(%r12), %r12
	movq	(%r15), %r15
	movq	(%r14), %rcx
	movq	(%rdx), %r14
	movq	0(%r13), %r13
	movq	0(%rbp), %rbp
	movq	(%rbx), %rbx
	movq	(%r11), %r11
	movq	(%r10), %r10
	movq	(%r9), %r9
	movq	(%r8), %r8
	movq	(%rdi), %rdi
	movq	(%rsi), %rsi
	movq	(%r12), %r12
	movq	(%r15), %rdx
	movq	(%rcx), %r15
	movq	(%r14), %r14
	movq	0(%r13), %r13
	movq	0(%rbp), %rbp
	movq	(%rbx), %rbx
	movq	(%r11), %r11
	movq	(%r10), %r10
	movq	(%r9), %r9
	movq	(%r8), %r8
	movq	(%rdi), %rdi
	movq	(%rsi), %rsi
	movq	(%r12), %rcx
	movq	(%rdx), %r12
	movq	(%r15), %r15
	movq	(%r14), %r14
	movq	0(%r13), %r13
	movq	0(%rbp), %rbp
	movq	(%rbx), %rbx
	movq	(%r11), %r11
	movq	(%r10), %r10
	movq	(%r9), %r9
	movq	(%r8), %r8
	movq	(%rdi), %rdi
	movq	(%rsi), %rdx
	movq	(%rcx), %rsi
	movq	(%r12), %r12
	movq	(%r15), %r15
	movq	(%r14), %r14
	movq	0(%r13), %r13
	movq	0(%rbp), %rbp
	movq	(%rbx), %rbx
	movq	(%r11), %r11
	movq	(%r10), %r10
	movq	(%r9), %r9
	movq	(%r8), %r8
	movq	(%rdi), %rcx
	movq	(%rdx), %rdi
	movq	(%rsi), %rsi
	movq	(%r12), %r12
	movq	(%r15), %r15
	movq	(%r14), %r14
	movq	0(%r13), %r13
	movq	0(%rbp), %rbp
	movq	(%rbx), %rbx
	movq	(%r11), %r11
	movq	(%r10), %r10
	movq	(%r9), %r9
	movq	(%r8), %rdx
	movq	(%rcx), %r8
	movq	(%rdi), %rdi
	movq	(%rsi), %rsi
	movq	(%r12), %r12
	movq	(%r15), %r15
	movq	(%r14), %r14
	movq	0(%r13), %r13
	movq	0(%rbp), %rbp
	movq	(%rbx), %rbx
	movq	(%r11), %r11
	movq	(%r10), %r10
	movq	(%r9), %rcx
	movq	(%rdx), %r9
	movq	(%r8), %r8
	movq	(%rdi), %rdi
	movq	(%rsi), %rsi
	movq	(%r12), %r12
	movq	(%r15), %r15
	movq	(%r14), %r14
	movq	0(%r13), %r13
	movq	0(%rbp), %rbp
	movq	(%rbx), %rbx
	movq	(%r11), %r11
	movq	(%r10), %rdx
	movq	(%rcx), %r10
	movq	(%r9), %r9
	movq	(%r8), %r8
	movq	(%rdi), %rdi
	movq	(%rsi), %rsi
	movq	(%r12), %r12
	movq	(%r15), %r15
	movq	(%r14), %r14
	movq	0(%r13), %r13
	movq	0(%rbp), %rbp
	movq	(%rbx), %rbx
	movq	(%r11), %rcx
	movq	(%rdx), %r11
	movq	(%r10), %r10
	movq	(%r9), %r9
	movq	(%r8), %r8
	movq	(%rdi), %rdi
	movq	(%rsi), %rsi
	movq	(%r12), %r12
	movq	(%r15), %r15
	movq	(%r14), %r14
	movq	0(%r13), %r13
	movq	0(%rbp), %rbp
	movq	(%rbx), %rdx
	movq	(%rcx), %rbx
	movq	(%r11), %r11
	movq	(%r10), %r10
	movq	(%r9), %r9
	movq	(%r8), %r8
	movq	(%rdi), %rdi
	movq	(%rsi), %rsi
	movq	(%r12), %r12
	movq	(%r15), %r15
	movq	(%r14), %r14
	movq	0(%r13), %r13
	movq	0(%rbp), %rcx
	movq	(%rdx), %rbp
	movq	(%rbx), %rbx
	movq	(%r11), %r11
	movq	(%r10), %r10
	movq	(%r9), %r9
	movq	(%r8), %r8
	movq	(%rdi), %rdi
	movq	(%rsi), %rsi
	movq	(%r12), %r12
	movq	(%r15), %r15
	movq	(%r14), %r14
	movq	0(%r13), %rdx
	movq	(%rcx), %r13
	movq	0(%rbp), %rbp
	movq	(%rbx), %rbx
	movq	(%r11), %r11
	movq	(%r10), %r10
	movq	(%r9), %r9
	movq	(%r8), %r8
	movq	(%rdi), %rdi
	movq	(%rsi), %rsi
	movq	(%r12), %r12
	movq	(%r15), %r15
	movq	(%r14), %rcx
	movq	(%rdx), %r14
	movq	0(%r13), %r13
	movq	0(%rbp), %rbp
	movq	(%rbx), %rbx
	movq	(%r11), %r11
	movq	(%r10), %r10
	movq	(%r9), %r9
	movq	(%r8), %r8
	movq	(%rdi), %rdi
	movq	(%rsi), %rsi
	movq	(%r12), %r12
	movq	(%r15), %rdx
	movq	(%rcx), %r15
	movq	(%r14), %r14
	movq	0(%r13), %r13
	movq	0(%rbp), %rbp
	movq	(%rbx), %rbx
	movq	(%r11), %r11
	movq	(%r10), %r10
	movq	(%r9), %r9
	movq	(%r8), %r8
	movq	(%rdi), %rdi
	movq	(%rsi), %rsi
	movq	(%r12), %rcx
	movq	(%rdx), %r12
	movq	(%r15), %r15
	movq	(%r14), %r14
	movq	0(%r13), %r13
	movq	0(%rbp), %rbp
	movq	(%rbx), %rbx
	movq	(%r11), %r11
	movq	(%r10), %r10
	movq	(%r9), %r9
	movq	(%r8), %r8
	movq	(%rdi), %rdi
	movq	(%rsi), %rdx
	movq	(%rcx), %rsi
	movq	(%r12), %r12
	movq	(%r15), %r15
	movq	(%r14), %r14
	movq	0(%r13), %r13
	movq	0(%rbp), %rbp
	movq	(%rbx), %rbx
	movq	(%r11), %r11
	movq	(%r10), %r10
	movq	(%r9), %r9
	movq	(%r8), %r8
	movq	(%rdi), %rcx
	movq	(%rdx), %rdi
	movq	(%rsi), %rsi
	movq	(%r12), %r12
	movq	(%r15), %r15
	movq	(%r14), %r14
	movq	0(%r13), %r13
	movq	0(%rbp), %rbp
	movq	(%rbx), %rbx
	movq	(%r11), %r11
	movq	(%r10), %r10
	movq	(%r9), %r9
	movq	(%r8), %rdx
	movq	(%rcx), %r8
	movq	(%rdi), %rdi
	movq	(%rsi), %rsi
	movq	(%r12), %r12
	movq	(%r15), %r15
	movq	(%r14), %r14
	movq	0(%r13), %r13
	movq	0(%rbp), %rbp
	movq	(%rbx), %rbx
	movq	(%r11), %r11
	movq	(%r10), %r10
	movq	(%r9), %rcx
	movq	(%rdx), %r9
	movq	(%r8), %r8
	movq	(%rdi), %rdi
	movq	(%rsi), %rsi
	movq	(%r12), %r12
	movq	(%r15), %r15
	movq	(%r14), %r14
	movq	0(%r13), %r13
	movq	0(%rbp), %rbp
	movq	(%rbx), %rbx
	movq	(%r11), %r11
	movq	(%r10), %rdx
	movq	(%rcx), %rcx
	movq	(%r9), %r9
	movq	(%r8), %r8
	movq	(%rdi), %rdi
	movq	(%rsi), %rsi
	movq	(%r12), %r10
	movq	%r10, -40(%rsp)
	movq	(%r15), %r15
	movq	%r15, -32(%rsp)
	movq	(%r14), %r14
	movq	0(%r13), %r12
	movq	%r12, -24(%rsp)
	movq	0(%rbp), %rbp
	movq	(%rbx), %rbx
	movq	%rbx, -16(%rsp)
	movq	(%r11), %r12
	movq	(%rdx), %r13
	movq	(%rcx), %r15
	movq	(%r9), %r9
	movq	%r9, -48(%rsp)
	movq	(%r8), %rbx
	movq	(%rdi), %r11
	movq	(%rsi), %r10
	movq	-40(%rsp), %rdx
	movq	(%rdx), %r9
	movq	-32(%rsp), %rcx
	movq	(%rcx), %r8
	movq	(%r14), %rdi
	movq	-24(%rsp), %rdx
	movq	(%rdx), %rsi
	movq	0(%rbp), %rdx
	movq	-16(%rsp), %rcx
	movq	(%rcx), %rcx
	subq	$1, %rax
	cmpq	$-1, %rax
	jne	.L377
.L378:
	movq	%r12, sp0.62(%rip)
	movq	%r13, sp1.61(%rip)
	movq	%r15, sp2.60(%rip)
	movq	-48(%rsp), %rax
	movq	%rax, sp3.59(%rip)
	movq	%rbx, sp4.58(%rip)
	movq	%r11, sp5.57(%rip)
	movq	%r10, sp6.56(%rip)
	movq	%r9, sp7.55(%rip)
	movq	%r8, sp8.54(%rip)
	movq	%rdi, sp9.53(%rip)
	movq	%rsi, sp10.52(%rip)
	movq	%rdx, sp11.51(%rip)
	movq	%rcx, sp12.50(%rip)
	movq	-8(%rsp), %rax
	movq	(%rax), %rax
	movq	%rax, addr_save.63(%rip)
	movl	$1, mem_benchmark_rerun(%rip)
	popq	%rbx
	.cfi_def_cfa_offset 48
	popq	%rbp
	.cfi_def_cfa_offset 40
	popq	%r12
	.cfi_def_cfa_offset 32
	popq	%r13
	.cfi_def_cfa_offset 24
	popq	%r14
	.cfi_def_cfa_offset 16
	popq	%r15
	.cfi_def_cfa_offset 8
	ret
	.cfi_endproc
.LFE84:
	.size	mem_benchmark_12, .-mem_benchmark_12
	.globl	mem_benchmark_13
	.type	mem_benchmark_13, @function
mem_benchmark_13:
.LFB85:
	.cfi_startproc
	endbr64
	pushq	%r15
	.cfi_def_cfa_offset 16
	.cfi_offset 15, -16
	pushq	%r14
	.cfi_def_cfa_offset 24
	.cfi_offset 14, -24
	pushq	%r13
	.cfi_def_cfa_offset 32
	.cfi_offset 13, -32
	pushq	%r12
	.cfi_def_cfa_offset 40
	.cfi_offset 12, -40
	pushq	%rbp
	.cfi_def_cfa_offset 48
	.cfi_offset 6, -48
	pushq	%rbx
	.cfi_def_cfa_offset 56
	.cfi_offset 3, -56
	movq	%rdi, %r11
	movq	%rsi, -8(%rsp)
	movl	mem_benchmark_rerun(%rip), %edx
	testl	%edx, %edx
	je	.L404
	movq	addr_save.49(%rip), %rcx
	movq	sp0.48(%rip), %rbp
	cmpq	%rcx, (%rsi)
	je	.L406
	movq	-8(%rsp), %rax
	movq	16(%rax), %rbp
	movq	addr_save.49(%rip), %rcx
	cmpq	%rcx, (%rax)
	je	.L406
	movq	-8(%rsp), %rax
	movq	24(%rax), %r12
	testl	%edx, %edx
	je	.L407
	movq	-8(%rsp), %rax
	movq	addr_save.49(%rip), %rcx
	cmpq	%rcx, (%rax)
	je	.L409
	movq	32(%rax), %r13
	testl	%edx, %edx
	je	.L410
	movq	-8(%rsp), %rax
	movq	addr_save.49(%rip), %rcx
	cmpq	%rcx, (%rax)
	je	.L412
	movq	40(%rax), %rax
	movq	%rax, -48(%rsp)
	testl	%edx, %edx
	je	.L413
	movq	-8(%rsp), %rax
	movq	addr_save.49(%rip), %rcx
	cmpq	%rcx, (%rax)
	je	.L415
	movq	48(%rax), %rax
	movq	%rax, -40(%rsp)
	testl	%edx, %edx
	je	.L416
	movq	-8(%rsp), %rax
	movq	addr_save.49(%rip), %rcx
	cmpq	%rcx, (%rax)
	je	.L418
	movq	56(%rax), %rbx
	testl	%edx, %edx
	je	.L419
	movq	-8(%rsp), %rax
	movq	addr_save.49(%rip), %rcx
	cmpq	%rcx, (%rax)
	je	.L421
	movq	64(%rax), %r10
	testl	%edx, %edx
	je	.L422
	movq	-8(%rsp), %rax
	movq	addr_save.49(%rip), %rcx
	cmpq	%rcx, (%rax)
	je	.L424
	movq	72(%rax), %r9
	testl	%edx, %edx
	je	.L425
	movq	-8(%rsp), %rax
	movq	addr_save.49(%rip), %rsi
	cmpq	%rsi, (%rax)
	je	.L445
	movq	-8(%rsp), %rax
	movq	80(%rax), %r8
	movq	addr_save.49(%rip), %rcx
	cmpq	%rcx, (%rax)
	je	.L427
	movq	-8(%rsp), %rax
	movq	88(%rax), %rdi
	testl	%edx, %edx
	je	.L428
	movq	-8(%rsp), %rax
	movq	addr_save.49(%rip), %rsi
	cmpq	%rsi, (%rax)
	je	.L442
	movq	-8(%rsp), %rax
	movq	96(%rax), %rsi
	movq	addr_save.49(%rip), %rcx
	cmpq	%rcx, (%rax)
	je	.L430
	movq	-8(%rsp), %rax
	movq	104(%rax), %rcx
	testl	%edx, %edx
	je	.L431
	movq	-8(%rsp), %rax
	movq	addr_save.49(%rip), %r15
	cmpq	%r15, (%rax)
	je	.L433
	movq	112(%rax), %rax
	testl	%edx, %edx
	je	.L434
	movq	-8(%rsp), %rdx
	movq	addr_save.49(%rip), %r15
	cmpq	%r15, (%rdx)
	jne	.L434
	jmp	.L436
.L406:
	movq	sp1.47(%rip), %r12
.L409:
	movq	sp2.46(%rip), %r13
.L412:
	movq	sp3.45(%rip), %rax
	movq	%rax, -48(%rsp)
.L415:
	movq	sp4.44(%rip), %rax
	movq	%rax, -40(%rsp)
.L418:
	movq	sp5.43(%rip), %rbx
.L421:
	movq	sp6.42(%rip), %r10
.L424:
	movq	sp7.41(%rip), %r9
.L445:
	movq	sp8.40(%rip), %r8
.L427:
	movq	sp9.39(%rip), %rdi
.L442:
	movq	sp10.38(%rip), %rsi
.L430:
	movq	sp11.37(%rip), %rcx
.L433:
	movq	sp12.36(%rip), %rax
.L436:
	movq	sp13.35(%rip), %rdx
	jmp	.L439
.L404:
	movq	-8(%rsp), %rax
	movq	16(%rax), %rbp
	movq	24(%rax), %r12
.L407:
	movq	-8(%rsp), %rax
	movq	32(%rax), %r13
.L410:
	movq	-8(%rsp), %rax
	movq	40(%rax), %rax
	movq	%rax, -48(%rsp)
.L413:
	movq	-8(%rsp), %rax
	movq	48(%rax), %rax
	movq	%rax, -40(%rsp)
.L416:
	movq	-8(%rsp), %rax
	movq	56(%rax), %rbx
.L419:
	movq	-8(%rsp), %rax
	movq	64(%rax), %r10
.L422:
	movq	-8(%rsp), %rax
	movq	72(%rax), %r9
.L425:
	movq	-8(%rsp), %rax
	movq	80(%rax), %r8
	movq	88(%rax), %rdi
.L428:
	movq	-8(%rsp), %rax
	movq	96(%rax), %rsi
	movq	104(%rax), %rcx
.L431:
	movq	-8(%rsp), %rax
	movq	112(%rax), %rax
.L434:
	movq	-8(%rsp), %rdx
	movq	120(%rdx), %rdx
.L439:
	leaq	-1(%r11), %r15
	movq	%r15, -56(%rsp)
	testq	%r11, %r11
	je	.L438
	movq	%rbp, %r11
	movq	%r12, %rbp
	movq	%r13, %r12
.L437:
	movq	(%r11), %r15
	movq	0(%rbp), %r14
	movq	(%r12), %r13
	movq	-48(%rsp), %r11
	movq	(%r11), %r12
	movq	-40(%rsp), %r11
	movq	(%r11), %rbp
	movq	(%rbx), %rbx
	movq	(%r10), %r11
	movq	(%r9), %r10
	movq	(%r8), %r9
	movq	(%rdi), %r8
	movq	(%rsi), %rdi
	movq	(%rcx), %rsi
	movq	(%rax), %rcx
	movq	(%rdx), %rdx
	movq	(%r15), %r15
	movq	(%r14), %r14
	movq	0(%r13), %r13
	movq	(%r12), %r12
	movq	0(%rbp), %rbp
	movq	(%rbx), %rbx
	movq	(%r11), %rax
	movq	(%r10), %r10
	movq	(%r9), %r9
	movq	(%r8), %r8
	movq	(%rdi), %rdi
	movq	(%rsi), %rsi
	movq	(%rcx), %rcx
	movq	(%rdx), %r11
	movq	(%r15), %r15
	movq	(%r14), %r14
	movq	0(%r13), %r13
	movq	(%r12), %r12
	movq	0(%rbp), %rbp
	movq	(%rbx), %rdx
	movq	(%rax), %rbx
	movq	(%r10), %r10
	movq	(%r9), %r9
	movq	(%r8), %r8
	movq	(%rdi), %rdi
	movq	(%rsi), %rsi
	movq	(%rcx), %rcx
	movq	(%r11), %r11
	movq	(%r15), %r15
	movq	(%r14), %r14
	movq	0(%r13), %r13
	movq	(%r12), %r12
	movq	0(%rbp), %rax
	movq	(%rdx), %rbp
	movq	(%rbx), %rbx
	movq	(%r10), %r10
	movq	(%r9), %r9
	movq	(%r8), %r8
	movq	(%rdi), %rdi
	movq	(%rsi), %rsi
	movq	(%rcx), %rcx
	movq	(%r11), %r11
	movq	(%r15), %r15
	movq	(%r14), %r14
	movq	0(%r13), %r13
	movq	(%r12), %rdx
	movq	(%rax), %r12
	movq	0(%rbp), %rbp
	movq	(%rbx), %rbx
	movq	(%r10), %r10
	movq	(%r9), %r9
	movq	(%r8), %r8
	movq	(%rdi), %rdi
	movq	(%rsi), %rsi
	movq	(%rcx), %rcx
	movq	(%r11), %r11
	movq	(%r15), %r15
	movq	(%r14), %r14
	movq	0(%r13), %rax
	movq	(%rdx), %r13
	movq	(%r12), %r12
	movq	0(%rbp), %rbp
	movq	(%rbx), %rbx
	movq	(%r10), %r10
	movq	(%r9), %r9
	movq	(%r8), %r8
	movq	(%rdi), %rdi
	movq	(%rsi), %rsi
	movq	(%rcx), %rcx
	movq	(%r11), %r11
	movq	(%r15), %r15
	movq	(%r14), %rdx
	movq	(%rax), %r14
	movq	0(%r13), %r13
	movq	(%r12), %r12
	movq	0(%rbp), %rbp
	movq	(%rbx), %rbx
	movq	(%r10), %r10
	movq	(%r9), %r9
	movq	(%r8), %r8
	movq	(%rdi), %rdi
	movq	(%rsi), %rsi
	movq	(%rcx), %rcx
	movq	(%r11), %r11
	movq	(%r15), %rax
	movq	(%rdx), %r15
	movq	(%r14), %r14
	movq	0(%r13), %r13
	movq	(%r12), %r12
	movq	0(%rbp), %rbp
	movq	(%rbx), %rbx
	movq	(%r10), %r10
	movq	(%r9), %r9
	movq	(%r8), %r8
	movq	(%rdi), %rdi
	movq	(%rsi), %rsi
	movq	(%rcx), %rcx
	movq	(%r11), %rdx
	movq	(%rax), %r11
	movq	(%r15), %r15
	movq	(%r14), %r14
	movq	0(%r13), %r13
	movq	(%r12), %r12
	movq	0(%rbp), %rbp
	movq	(%rbx), %rbx
	movq	(%r10), %r10
	movq	(%r9), %r9
	movq	(%r8), %r8
	movq	(%rdi), %rdi
	movq	(%rsi), %rsi
	movq	(%rcx), %rax
	movq	(%rdx), %rcx
	movq	(%r11), %r11
	movq	(%r15), %r15
	movq	(%r14), %r14
	movq	0(%r13), %r13
	movq	(%r12), %r12
	movq	0(%rbp), %rbp
	movq	(%rbx), %rbx
	movq	(%r10), %r10
	movq	(%r9), %r9
	movq	(%r8), %r8
	movq	(%rdi), %rdi
	movq	(%rsi), %rdx
	movq	(%rax), %rsi
	movq	(%rcx), %rcx
	movq	(%r11), %r11
	movq	(%r15), %r15
	movq	(%r14), %r14
	movq	0(%r13), %r13
	movq	(%r12), %r12
	movq	0(%rbp), %rbp
	movq	(%rbx), %rbx
	movq	(%r10), %r10
	movq	(%r9), %r9
	movq	(%r8), %r8
	movq	(%rdi), %rax
	movq	(%rdx), %rdi
	movq	(%rsi), %rsi
	movq	(%rcx), %rcx
	movq	(%r11), %r11
	movq	(%r15), %r15
	movq	(%r14), %r14
	movq	0(%r13), %r13
	movq	(%r12), %r12
	movq	0(%rbp), %rbp
	movq	(%rbx), %rbx
	movq	(%r10), %r10
	movq	(%r9), %r9
	movq	(%r8), %rdx
	movq	(%rax), %r8
	movq	(%rdi), %rdi
	movq	(%rsi), %rsi
	movq	(%rcx), %rcx
	movq	(%r11), %r11
	movq	(%r15), %r15
	movq	(%r14), %r14
	movq	0(%r13), %r13
	movq	(%r12), %r12
	movq	0(%rbp), %rbp
	movq	(%rbx), %rbx
	movq	(%r10), %r10
	movq	(%r9), %rax
	movq	(%rdx), %r9
	movq	(%r8), %r8
	movq	(%rdi), %rdi
	movq	(%rsi), %rsi
	movq	(%rcx), %rcx
	movq	(%r11), %r11
	movq	(%r15), %r15
	movq	(%r14), %r14
	movq	0(%r13), %r13
	movq	(%r12), %r12
	movq	0(%rbp), %rbp
	movq	(%rbx), %rbx
	movq	(%r10), %rdx
	movq	(%rax), %r10
	movq	(%r9), %r9
	movq	(%r8), %r8
	movq	(%rdi), %rdi
	movq	(%rsi), %rsi
	movq	(%rcx), %rcx
	movq	(%r11), %r11
	movq	(%r15), %r15
	movq	(%r14), %r14
	movq	0(%r13), %r13
	movq	(%r12), %r12
	movq	0(%rbp), %rbp
	movq	(%rbx), %rax
	movq	(%rdx), %rbx
	movq	(%r10), %r10
	movq	(%r9), %r9
	movq	(%r8), %r8
	movq	(%rdi), %rdi
	movq	(%rsi), %rsi
	movq	(%rcx), %rcx
	movq	(%r11), %r11
	movq	(%r15), %r15
	movq	(%r14), %r14
	movq	0(%r13), %r13
	movq	(%r12), %r12
	movq	0(%rbp), %rdx
	movq	(%rax), %rbp
	movq	(%rbx), %rbx
	movq	(%r10), %r10
	movq	(%r9), %r9
	movq	(%r8), %r8
	movq	(%rdi), %rdi
	movq	(%rsi), %rsi
	movq	(%rcx), %rcx
	movq	(%r11), %r11
	movq	(%r15), %r15
	movq	(%r14), %r14
	movq	0(%r13), %r13
	movq	(%r12), %rax
	movq	(%rdx), %r12
	movq	0(%rbp), %rbp
	movq	(%rbx), %rbx
	movq	(%r10), %r10
	movq	(%r9), %r9
	movq	(%r8), %r8
	movq	(%rdi), %rdi
	movq	(%rsi), %rsi
	movq	(%rcx), %rcx
	movq	(%r11), %r11
	movq	(%r15), %r15
	movq	(%r14), %r14
	movq	0(%r13), %rdx
	movq	(%rax), %r13
	movq	(%r12), %r12
	movq	0(%rbp), %rbp
	movq	(%rbx), %rbx
	movq	(%r10), %r10
	movq	(%r9), %r9
	movq	(%r8), %r8
	movq	(%rdi), %rdi
	movq	(%rsi), %rsi
	movq	(%rcx), %rcx
	movq	(%r11), %r11
	movq	(%r15), %r15
	movq	(%r14), %rax
	movq	(%rdx), %r14
	movq	0(%r13), %r13
	movq	(%r12), %r12
	movq	0(%rbp), %rbp
	movq	(%rbx), %rbx
	movq	(%r10), %r10
	movq	(%r9), %r9
	movq	(%r8), %r8
	movq	(%rdi), %rdi
	movq	(%rsi), %rsi
	movq	(%rcx), %rcx
	movq	(%r11), %r11
	movq	(%r15), %rdx
	movq	(%rax), %r15
	movq	(%r14), %r14
	movq	0(%r13), %r13
	movq	(%r12), %r12
	movq	0(%rbp), %rbp
	movq	(%rbx), %rbx
	movq	(%r10), %r10
	movq	(%r9), %r9
	movq	(%r8), %r8
	movq	(%rdi), %rdi
	movq	(%rsi), %rsi
	movq	(%rcx), %rcx
	movq	(%r11), %rax
	movq	(%rdx), %r11
	movq	(%r15), %r15
	movq	(%r14), %r14
	movq	0(%r13), %r13
	movq	(%r12), %r12
	movq	0(%rbp), %rbp
	movq	(%rbx), %rbx
	movq	(%r10), %r10
	movq	(%r9), %r9
	movq	(%r8), %r8
	movq	(%rdi), %rdi
	movq	(%rsi), %rsi
	movq	(%rcx), %rdx
	movq	(%rax), %rcx
	movq	(%r11), %r11
	movq	(%r15), %r15
	movq	(%r14), %r14
	movq	0(%r13), %r13
	movq	(%r12), %r12
	movq	0(%rbp), %rbp
	movq	(%rbx), %rbx
	movq	(%r10), %r10
	movq	(%r9), %r9
	movq	(%r8), %r8
	movq	(%rdi), %rdi
	movq	(%rsi), %rax
	movq	(%rdx), %rsi
	movq	(%rcx), %rcx
	movq	(%r11), %r11
	movq	(%r15), %r15
	movq	(%r14), %r14
	movq	0(%r13), %r13
	movq	(%r12), %r12
	movq	0(%rbp), %rbp
	movq	(%rbx), %rbx
	movq	(%r10), %r10
	movq	(%r9), %r9
	movq	(%r8), %r8
	movq	(%rdi), %rdx
	movq	(%rax), %rdi
	movq	(%rsi), %rsi
	movq	(%rcx), %rcx
	movq	(%r11), %r11
	movq	(%r15), %r15
	movq	(%r14), %r14
	movq	0(%r13), %r13
	movq	(%r12), %r12
	movq	0(%rbp), %rbp
	movq	(%rbx), %rbx
	movq	(%r10), %r10
	movq	(%r9), %r9
	movq	(%r8), %rax
	movq	(%rdx), %r8
	movq	(%rdi), %rdi
	movq	(%rsi), %rsi
	movq	(%rcx), %rcx
	movq	(%r11), %r11
	movq	(%r15), %r15
	movq	(%r14), %r14
	movq	0(%r13), %r13
	movq	(%r12), %r12
	movq	0(%rbp), %rbp
	movq	(%rbx), %rbx
	movq	(%r10), %r10
	movq	(%r9), %rdx
	movq	(%rax), %r9
	movq	(%r8), %r8
	movq	(%rdi), %rdi
	movq	(%rsi), %rsi
	movq	(%rcx), %rcx
	movq	(%r11), %r11
	movq	(%r15), %r15
	movq	(%r14), %r14
	movq	0(%r13), %r13
	movq	(%r12), %r12
	movq	0(%rbp), %rbp
	movq	(%rbx), %rbx
	movq	(%r10), %rax
	movq	(%rdx), %r10
	movq	(%r9), %r9
	movq	(%r8), %r8
	movq	(%rdi), %rdi
	movq	(%rsi), %rsi
	movq	(%rcx), %rcx
	movq	(%r11), %r11
	movq	(%r15), %r15
	movq	(%r14), %r14
	movq	0(%r13), %r13
	movq	(%r12), %r12
	movq	0(%rbp), %rbp
	movq	(%rbx), %rdx
	movq	(%rax), %rbx
	movq	(%r10), %r10
	movq	(%r9), %r9
	movq	(%r8), %r8
	movq	(%rdi), %rdi
	movq	(%rsi), %rsi
	movq	(%rcx), %rcx
	movq	(%r11), %r11
	movq	(%r15), %r15
	movq	(%r14), %r14
	movq	0(%r13), %r13
	movq	(%r12), %r12
	movq	0(%rbp), %rax
	movq	(%rdx), %rbp
	movq	(%rbx), %rbx
	movq	(%r10), %r10
	movq	(%r9), %r9
	movq	(%r8), %r8
	movq	(%rdi), %rdi
	movq	(%rsi), %rsi
	movq	(%rcx), %rcx
	movq	(%r11), %r11
	movq	(%r15), %r15
	movq	(%r14), %r14
	movq	0(%r13), %r13
	movq	(%r12), %rdx
	movq	(%rax), %r12
	movq	0(%rbp), %rbp
	movq	(%rbx), %rbx
	movq	(%r10), %r10
	movq	(%r9), %r9
	movq	(%r8), %r8
	movq	(%rdi), %rdi
	movq	(%rsi), %rsi
	movq	(%rcx), %rcx
	movq	(%r11), %r11
	movq	(%r15), %r15
	movq	(%r14), %r14
	movq	0(%r13), %rax
	movq	(%rdx), %r13
	movq	(%r12), %r12
	movq	0(%rbp), %rbp
	movq	(%rbx), %rbx
	movq	(%r10), %r10
	movq	(%r9), %r9
	movq	(%r8), %r8
	movq	(%rdi), %rdi
	movq	(%rsi), %rsi
	movq	(%rcx), %rcx
	movq	(%r11), %r11
	movq	(%r15), %r15
	movq	(%r14), %rdx
	movq	(%rax), %r14
	movq	0(%r13), %r13
	movq	(%r12), %r12
	movq	0(%rbp), %rbp
	movq	(%rbx), %rbx
	movq	(%r10), %r10
	movq	(%r9), %r9
	movq	(%r8), %r8
	movq	(%rdi), %rdi
	movq	(%rsi), %rsi
	movq	(%rcx), %rcx
	movq	(%r11), %r11
	movq	(%r15), %rax
	movq	(%rdx), %r15
	movq	(%r14), %r14
	movq	0(%r13), %r13
	movq	(%r12), %r12
	movq	0(%rbp), %rbp
	movq	(%rbx), %rbx
	movq	(%r10), %r10
	movq	(%r9), %r9
	movq	(%r8), %r8
	movq	(%rdi), %rdi
	movq	(%rsi), %rsi
	movq	(%rcx), %rcx
	movq	(%r11), %rdx
	movq	(%rax), %r11
	movq	(%r15), %r15
	movq	(%r14), %r14
	movq	0(%r13), %r13
	movq	(%r12), %r12
	movq	0(%rbp), %rbp
	movq	(%rbx), %rbx
	movq	(%r10), %r10
	movq	(%r9), %r9
	movq	(%r8), %r8
	movq	(%rdi), %rdi
	movq	(%rsi), %rsi
	movq	(%rcx), %rax
	movq	(%rdx), %rcx
	movq	(%r11), %r11
	movq	(%r15), %r15
	movq	(%r14), %r14
	movq	0(%r13), %r13
	movq	(%r12), %r12
	movq	0(%rbp), %rbp
	movq	(%rbx), %rbx
	movq	(%r10), %r10
	movq	(%r9), %r9
	movq	(%r8), %r8
	movq	(%rdi), %rdi
	movq	(%rsi), %rdx
	movq	(%rax), %rsi
	movq	(%rcx), %rcx
	movq	(%r11), %r11
	movq	(%r15), %r15
	movq	(%r14), %r14
	movq	0(%r13), %r13
	movq	(%r12), %r12
	movq	0(%rbp), %rbp
	movq	(%rbx), %rbx
	movq	(%r10), %r10
	movq	(%r9), %r9
	movq	(%r8), %r8
	movq	(%rdi), %rax
	movq	(%rdx), %rdi
	movq	(%rsi), %rsi
	movq	(%rcx), %rcx
	movq	(%r11), %r11
	movq	(%r15), %r15
	movq	(%r14), %r14
	movq	0(%r13), %r13
	movq	(%r12), %r12
	movq	0(%rbp), %rbp
	movq	(%rbx), %rbx
	movq	(%r10), %r10
	movq	(%r9), %r9
	movq	(%r8), %rdx
	movq	(%rax), %r8
	movq	(%rdi), %rdi
	movq	(%rsi), %rsi
	movq	(%rcx), %rcx
	movq	(%r11), %r11
	movq	(%r15), %r15
	movq	(%r14), %r14
	movq	0(%r13), %r13
	movq	(%r12), %r12
	movq	0(%rbp), %rbp
	movq	(%rbx), %rbx
	movq	(%r10), %r10
	movq	(%r9), %rax
	movq	(%rdx), %r9
	movq	(%r8), %r8
	movq	(%rdi), %rdi
	movq	(%rsi), %rsi
	movq	(%rcx), %rcx
	movq	(%r11), %r11
	movq	(%r15), %r15
	movq	(%r14), %r14
	movq	0(%r13), %r13
	movq	(%r12), %r12
	movq	0(%rbp), %rbp
	movq	(%rbx), %rbx
	movq	(%r10), %rdx
	movq	(%rax), %r10
	movq	(%r9), %r9
	movq	(%r8), %r8
	movq	(%rdi), %rdi
	movq	(%rsi), %rsi
	movq	(%rcx), %rcx
	movq	(%r11), %r11
	movq	(%r15), %r15
	movq	(%r14), %r14
	movq	0(%r13), %r13
	movq	(%r12), %r12
	movq	0(%rbp), %rbp
	movq	(%rbx), %rax
	movq	(%rdx), %rbx
	movq	(%r10), %r10
	movq	(%r9), %r9
	movq	(%r8), %r8
	movq	(%rdi), %rdi
	movq	(%rsi), %rsi
	movq	(%rcx), %rcx
	movq	(%r11), %r11
	movq	(%r15), %r15
	movq	(%r14), %r14
	movq	0(%r13), %r13
	movq	(%r12), %r12
	movq	0(%rbp), %rdx
	movq	(%rax), %rbp
	movq	(%rbx), %rbx
	movq	(%r10), %r10
	movq	(%r9), %r9
	movq	(%r8), %r8
	movq	(%rdi), %rdi
	movq	(%rsi), %rsi
	movq	(%rcx), %rcx
	movq	(%r11), %r11
	movq	(%r15), %r15
	movq	(%r14), %r14
	movq	0(%r13), %r13
	movq	(%r12), %rax
	movq	(%rdx), %r12
	movq	0(%rbp), %rbp
	movq	(%rbx), %rbx
	movq	(%r10), %r10
	movq	(%r9), %r9
	movq	(%r8), %r8
	movq	(%rdi), %rdi
	movq	(%rsi), %rsi
	movq	(%rcx), %rcx
	movq	(%r11), %r11
	movq	(%r15), %r15
	movq	(%r14), %r14
	movq	0(%r13), %rdx
	movq	(%rax), %r13
	movq	(%r12), %r12
	movq	0(%rbp), %rbp
	movq	(%rbx), %rbx
	movq	(%r10), %r10
	movq	(%r9), %r9
	movq	(%r8), %r8
	movq	(%rdi), %rdi
	movq	(%rsi), %rsi
	movq	(%rcx), %rcx
	movq	(%r11), %r11
	movq	(%r15), %r15
	movq	(%r14), %rax
	movq	(%rdx), %r14
	movq	0(%r13), %r13
	movq	(%r12), %r12
	movq	0(%rbp), %rbp
	movq	(%rbx), %rbx
	movq	(%r10), %r10
	movq	(%r9), %r9
	movq	(%r8), %r8
	movq	(%rdi), %rdi
	movq	(%rsi), %rsi
	movq	(%rcx), %rcx
	movq	(%r11), %r11
	movq	(%r15), %rdx
	movq	(%rax), %r15
	movq	(%r14), %r14
	movq	0(%r13), %r13
	movq	(%r12), %r12
	movq	0(%rbp), %rbp
	movq	(%rbx), %rbx
	movq	(%r10), %r10
	movq	(%r9), %r9
	movq	(%r8), %r8
	movq	(%rdi), %rdi
	movq	(%rsi), %rsi
	movq	(%rcx), %rcx
	movq	(%r11), %rax
	movq	(%rdx), %r11
	movq	(%r15), %r15
	movq	(%r14), %r14
	movq	0(%r13), %r13
	movq	(%r12), %r12
	movq	0(%rbp), %rbp
	movq	(%rbx), %rbx
	movq	(%r10), %r10
	movq	(%r9), %r9
	movq	(%r8), %r8
	movq	(%rdi), %rdi
	movq	(%rsi), %rsi
	movq	(%rcx), %rdx
	movq	(%rax), %rcx
	movq	(%r11), %r11
	movq	(%r15), %r15
	movq	(%r14), %r14
	movq	0(%r13), %r13
	movq	(%r12), %r12
	movq	0(%rbp), %rbp
	movq	(%rbx), %rbx
	movq	(%r10), %r10
	movq	(%r9), %r9
	movq	(%r8), %r8
	movq	(%rdi), %rdi
	movq	(%rsi), %rax
	movq	(%rdx), %rsi
	movq	(%rcx), %rcx
	movq	(%r11), %r11
	movq	(%r15), %r15
	movq	(%r14), %r14
	movq	0(%r13), %r13
	movq	(%r12), %r12
	movq	0(%rbp), %rbp
	movq	(%rbx), %rbx
	movq	(%r10), %r10
	movq	(%r9), %r9
	movq	(%r8), %r8
	movq	(%rdi), %rdx
	movq	(%rax), %rdi
	movq	(%rsi), %rsi
	movq	(%rcx), %rcx
	movq	(%r11), %r11
	movq	(%r15), %r15
	movq	(%r14), %r14
	movq	0(%r13), %r13
	movq	(%r12), %r12
	movq	0(%rbp), %rbp
	movq	(%rbx), %rbx
	movq	(%r10), %r10
	movq	(%r9), %r9
	movq	(%r8), %rax
	movq	(%rdx), %r8
	movq	(%rdi), %rdi
	movq	(%rsi), %rsi
	movq	(%rcx), %rcx
	movq	(%r11), %r11
	movq	(%r15), %r15
	movq	(%r14), %r14
	movq	0(%r13), %r13
	movq	(%r12), %r12
	movq	0(%rbp), %rbp
	movq	(%rbx), %rbx
	movq	(%r10), %r10
	movq	(%r9), %rdx
	movq	(%rax), %r9
	movq	(%r8), %r8
	movq	(%rdi), %rdi
	movq	(%rsi), %rsi
	movq	(%rcx), %rcx
	movq	(%r11), %r11
	movq	(%r15), %r15
	movq	(%r14), %r14
	movq	0(%r13), %r13
	movq	(%r12), %r12
	movq	0(%rbp), %rbp
	movq	(%rbx), %rbx
	movq	(%r10), %rax
	movq	(%rdx), %r10
	movq	(%r9), %r9
	movq	(%r8), %r8
	movq	(%rdi), %rdi
	movq	(%rsi), %rsi
	movq	(%rcx), %rcx
	movq	(%r11), %r11
	movq	(%r15), %r15
	movq	(%r14), %r14
	movq	0(%r13), %r13
	movq	(%r12), %r12
	movq	0(%rbp), %rbp
	movq	(%rbx), %rdx
	movq	(%rax), %rbx
	movq	(%r10), %r10
	movq	(%r9), %r9
	movq	(%r8), %r8
	movq	(%rdi), %rdi
	movq	(%rsi), %rsi
	movq	(%rcx), %rcx
	movq	(%r11), %r11
	movq	(%r15), %r15
	movq	(%r14), %r14
	movq	0(%r13), %r13
	movq	(%r12), %r12
	movq	0(%rbp), %rax
	movq	(%rdx), %rbp
	movq	(%rbx), %rbx
	movq	(%r10), %r10
	movq	(%r9), %r9
	movq	(%r8), %r8
	movq	(%rdi), %rdi
	movq	(%rsi), %rsi
	movq	(%rcx), %rcx
	movq	(%r11), %r11
	movq	(%r15), %r15
	movq	(%r14), %r14
	movq	0(%r13), %r13
	movq	(%r12), %rdx
	movq	(%rax), %r12
	movq	0(%rbp), %rbp
	movq	(%rbx), %rbx
	movq	(%r10), %r10
	movq	(%r9), %r9
	movq	(%r8), %r8
	movq	(%rdi), %rdi
	movq	(%rsi), %rsi
	movq	(%rcx), %rcx
	movq	(%r11), %r11
	movq	(%r15), %r15
	movq	(%r14), %r14
	movq	0(%r13), %rax
	movq	(%rdx), %r13
	movq	(%r12), %r12
	movq	0(%rbp), %rbp
	movq	(%rbx), %rbx
	movq	(%r10), %r10
	movq	(%r9), %r9
	movq	(%r8), %r8
	movq	(%rdi), %rdi
	movq	(%rsi), %rsi
	movq	(%rcx), %rcx
	movq	(%r11), %r11
	movq	(%r15), %r15
	movq	(%r14), %rdx
	movq	(%rax), %r14
	movq	0(%r13), %r13
	movq	(%r12), %r12
	movq	0(%rbp), %rbp
	movq	(%rbx), %rbx
	movq	(%r10), %r10
	movq	(%r9), %r9
	movq	(%r8), %r8
	movq	(%rdi), %rdi
	movq	(%rsi), %rsi
	movq	(%rcx), %rcx
	movq	(%r11), %r11
	movq	(%r15), %rax
	movq	(%rdx), %r15
	movq	(%r14), %r14
	movq	0(%r13), %r13
	movq	(%r12), %r12
	movq	0(%rbp), %rbp
	movq	(%rbx), %rbx
	movq	(%r10), %r10
	movq	(%r9), %r9
	movq	(%r8), %r8
	movq	(%rdi), %rdi
	movq	(%rsi), %rsi
	movq	(%rcx), %rcx
	movq	(%r11), %rdx
	movq	(%rax), %r11
	movq	(%r15), %r15
	movq	(%r14), %r14
	movq	0(%r13), %r13
	movq	(%r12), %r12
	movq	0(%rbp), %rbp
	movq	(%rbx), %rbx
	movq	(%r10), %r10
	movq	(%r9), %r9
	movq	(%r8), %r8
	movq	(%rdi), %rdi
	movq	(%rsi), %rsi
	movq	(%rcx), %rax
	movq	(%rdx), %rcx
	movq	(%r11), %r11
	movq	(%r15), %r15
	movq	(%r14), %r14
	movq	0(%r13), %r13
	movq	(%r12), %r12
	movq	0(%rbp), %rbp
	movq	(%rbx), %rbx
	movq	(%r10), %r10
	movq	(%r9), %r9
	movq	(%r8), %r8
	movq	(%rdi), %rdi
	movq	(%rsi), %rdx
	movq	(%rax), %rsi
	movq	(%rcx), %rcx
	movq	(%r11), %r11
	movq	(%r15), %r15
	movq	(%r14), %r14
	movq	0(%r13), %r13
	movq	(%r12), %r12
	movq	0(%rbp), %rbp
	movq	(%rbx), %rbx
	movq	(%r10), %r10
	movq	(%r9), %r9
	movq	(%r8), %r8
	movq	(%rdi), %rax
	movq	(%rdx), %rdi
	movq	(%rsi), %rsi
	movq	(%rcx), %rcx
	movq	(%r11), %r11
	movq	(%r15), %r15
	movq	(%r14), %r14
	movq	0(%r13), %r13
	movq	(%r12), %r12
	movq	0(%rbp), %rbp
	movq	(%rbx), %rbx
	movq	(%r10), %r10
	movq	(%r9), %r9
	movq	(%r8), %rdx
	movq	(%rax), %r8
	movq	(%rdi), %rdi
	movq	(%rsi), %rsi
	movq	(%rcx), %rcx
	movq	(%r11), %r11
	movq	(%r15), %r15
	movq	(%r14), %r14
	movq	0(%r13), %r13
	movq	(%r12), %r12
	movq	0(%rbp), %rbp
	movq	(%rbx), %rbx
	movq	(%r10), %r10
	movq	(%r9), %rax
	movq	(%rdx), %r9
	movq	(%r8), %r8
	movq	(%rdi), %rdi
	movq	(%rsi), %rsi
	movq	(%rcx), %rcx
	movq	(%r11), %r11
	movq	(%r15), %r15
	movq	(%r14), %r14
	movq	0(%r13), %r13
	movq	(%r12), %r12
	movq	0(%rbp), %rbp
	movq	(%rbx), %rbx
	movq	(%r10), %rdx
	movq	(%rax), %r10
	movq	(%r9), %r9
	movq	(%r8), %r8
	movq	(%rdi), %rdi
	movq	(%rsi), %rsi
	movq	(%rcx), %rcx
	movq	(%r11), %r11
	movq	(%r15), %r15
	movq	(%r14), %r14
	movq	0(%r13), %r13
	movq	(%r12), %r12
	movq	0(%rbp), %rbp
	movq	(%rbx), %rax
	movq	(%rdx), %rbx
	movq	(%r10), %r10
	movq	(%r9), %r9
	movq	(%r8), %r8
	movq	(%rdi), %rdi
	movq	(%rsi), %rsi
	movq	(%rcx), %rcx
	movq	(%r11), %r11
	movq	(%r15), %r15
	movq	(%r14), %r14
	movq	0(%r13), %r13
	movq	(%r12), %r12
	movq	0(%rbp), %rdx
	movq	(%rax), %rbp
	movq	(%rbx), %rbx
	movq	(%r10), %r10
	movq	(%r9), %r9
	movq	(%r8), %r8
	movq	(%rdi), %rdi
	movq	(%rsi), %rsi
	movq	(%rcx), %rcx
	movq	(%r11), %r11
	movq	(%r15), %r15
	movq	(%r14), %r14
	movq	0(%r13), %r13
	movq	(%r12), %rax
	movq	(%rdx), %r12
	movq	0(%rbp), %rbp
	movq	(%rbx), %rbx
	movq	(%r10), %r10
	movq	(%r9), %r9
	movq	(%r8), %r8
	movq	(%rdi), %rdi
	movq	(%rsi), %rsi
	movq	(%rcx), %rcx
	movq	(%r11), %r11
	movq	(%r15), %r15
	movq	(%r14), %r14
	movq	0(%r13), %rdx
	movq	(%rax), %r13
	movq	(%r12), %r12
	movq	0(%rbp), %rbp
	movq	(%rbx), %rbx
	movq	(%r10), %r10
	movq	(%r9), %r9
	movq	(%r8), %r8
	movq	(%rdi), %rdi
	movq	(%rsi), %rsi
	movq	(%rcx), %rcx
	movq	(%r11), %r11
	movq	(%r15), %r15
	movq	(%r14), %rax
	movq	(%rdx), %r14
	movq	0(%r13), %r13
	movq	(%r12), %r12
	movq	0(%rbp), %rbp
	movq	(%rbx), %rbx
	movq	(%r10), %r10
	movq	(%r9), %r9
	movq	(%r8), %r8
	movq	(%rdi), %rdi
	movq	(%rsi), %rsi
	movq	(%rcx), %rcx
	movq	(%r11), %r11
	movq	(%r15), %rdx
	movq	(%rax), %r15
	movq	(%r14), %r14
	movq	0(%r13), %r13
	movq	(%r12), %r12
	movq	0(%rbp), %rbp
	movq	(%rbx), %rbx
	movq	(%r10), %r10
	movq	(%r9), %r9
	movq	(%r8), %r8
	movq	(%rdi), %rdi
	movq	(%rsi), %rsi
	movq	(%rcx), %rcx
	movq	(%r11), %rax
	movq	(%rdx), %r11
	movq	(%r15), %r15
	movq	(%r14), %r14
	movq	0(%r13), %r13
	movq	(%r12), %r12
	movq	0(%rbp), %rbp
	movq	(%rbx), %rbx
	movq	(%r10), %r10
	movq	(%r9), %r9
	movq	(%r8), %r8
	movq	(%rdi), %rdi
	movq	(%rsi), %rsi
	movq	(%rcx), %rdx
	movq	(%rax), %rcx
	movq	(%r11), %r11
	movq	(%r15), %r15
	movq	(%r14), %r14
	movq	0(%r13), %r13
	movq	(%r12), %r12
	movq	0(%rbp), %rbp
	movq	(%rbx), %rbx
	movq	(%r10), %r10
	movq	(%r9), %r9
	movq	(%r8), %r8
	movq	(%rdi), %rdi
	movq	(%rsi), %rax
	movq	(%rdx), %rsi
	movq	(%rcx), %rcx
	movq	(%r11), %r11
	movq	(%r15), %r15
	movq	(%r14), %r14
	movq	0(%r13), %r13
	movq	(%r12), %r12
	movq	0(%rbp), %rbp
	movq	(%rbx), %rbx
	movq	(%r10), %r10
	movq	(%r9), %r9
	movq	(%r8), %r8
	movq	(%rdi), %rdx
	movq	(%rax), %rdi
	movq	(%rsi), %rsi
	movq	(%rcx), %rcx
	movq	(%r11), %r11
	movq	(%r15), %r15
	movq	(%r14), %r14
	movq	0(%r13), %r13
	movq	(%r12), %r12
	movq	0(%rbp), %rbp
	movq	(%rbx), %rbx
	movq	(%r10), %r10
	movq	(%r9), %r9
	movq	(%r8), %rax
	movq	(%rdx), %r8
	movq	(%rdi), %rdi
	movq	(%rsi), %rsi
	movq	(%rcx), %rcx
	movq	(%r11), %r11
	movq	(%r15), %r15
	movq	(%r14), %r14
	movq	0(%r13), %r13
	movq	(%r12), %r12
	movq	0(%rbp), %rbp
	movq	(%rbx), %rbx
	movq	(%r10), %r10
	movq	(%r9), %rdx
	movq	(%rax), %r9
	movq	(%r8), %r8
	movq	(%rdi), %rdi
	movq	(%rsi), %rsi
	movq	(%rcx), %rcx
	movq	(%r11), %r11
	movq	(%r15), %r15
	movq	(%r14), %r14
	movq	0(%r13), %r13
	movq	(%r12), %r12
	movq	0(%rbp), %rbp
	movq	(%rbx), %rbx
	movq	(%r10), %rax
	movq	(%rdx), %r10
	movq	(%r9), %r9
	movq	(%r8), %r8
	movq	(%rdi), %rdi
	movq	(%rsi), %rsi
	movq	(%rcx), %rcx
	movq	(%r11), %r11
	movq	(%r15), %r15
	movq	(%r14), %r14
	movq	0(%r13), %r13
	movq	(%r12), %r12
	movq	0(%rbp), %rbp
	movq	(%rbx), %rdx
	movq	(%rax), %rbx
	movq	(%r10), %r10
	movq	(%r9), %r9
	movq	(%r8), %r8
	movq	(%rdi), %rdi
	movq	(%rsi), %rsi
	movq	(%rcx), %rcx
	movq	(%r11), %r11
	movq	(%r15), %r15
	movq	(%r14), %r14
	movq	0(%r13), %r13
	movq	(%r12), %r12
	movq	0(%rbp), %rax
	movq	(%rdx), %rbp
	movq	(%rbx), %rbx
	movq	(%r10), %r10
	movq	(%r9), %r9
	movq	(%r8), %r8
	movq	(%rdi), %rdi
	movq	(%rsi), %rsi
	movq	(%rcx), %rcx
	movq	(%r11), %r11
	movq	(%r15), %r15
	movq	(%r14), %r14
	movq	0(%r13), %r13
	movq	(%r12), %rdx
	movq	(%rax), %r12
	movq	0(%rbp), %rbp
	movq	(%rbx), %rbx
	movq	(%r10), %r10
	movq	(%r9), %r9
	movq	(%r8), %r8
	movq	(%rdi), %rdi
	movq	(%rsi), %rsi
	movq	(%rcx), %rcx
	movq	(%r11), %r11
	movq	(%r15), %r15
	movq	(%r14), %r14
	movq	0(%r13), %rax
	movq	(%rdx), %r13
	movq	(%r12), %r12
	movq	0(%rbp), %rbp
	movq	(%rbx), %rbx
	movq	(%r10), %r10
	movq	(%r9), %r9
	movq	(%r8), %r8
	movq	(%rdi), %rdi
	movq	(%rsi), %rsi
	movq	(%rcx), %rcx
	movq	(%r11), %r11
	movq	(%r15), %r15
	movq	(%r14), %rdx
	movq	(%rax), %r14
	movq	0(%r13), %r13
	movq	(%r12), %r12
	movq	0(%rbp), %rbp
	movq	(%rbx), %rbx
	movq	(%r10), %r10
	movq	(%r9), %r9
	movq	(%r8), %r8
	movq	(%rdi), %rdi
	movq	(%rsi), %rsi
	movq	(%rcx), %rcx
	movq	(%r11), %r11
	movq	(%r15), %rax
	movq	(%rdx), %r15
	movq	(%r14), %r14
	movq	0(%r13), %r13
	movq	(%r12), %r12
	movq	0(%rbp), %rbp
	movq	(%rbx), %rbx
	movq	(%r10), %r10
	movq	(%r9), %r9
	movq	(%r8), %r8
	movq	(%rdi), %rdi
	movq	(%rsi), %rsi
	movq	(%rcx), %rcx
	movq	(%r11), %rdx
	movq	(%rax), %r11
	movq	(%r15), %r15
	movq	(%r14), %r14
	movq	0(%r13), %r13
	movq	(%r12), %r12
	movq	0(%rbp), %rbp
	movq	(%rbx), %rbx
	movq	(%r10), %r10
	movq	(%r9), %r9
	movq	(%r8), %r8
	movq	(%rdi), %rdi
	movq	(%rsi), %rsi
	movq	(%rcx), %rax
	movq	(%rdx), %rcx
	movq	(%r11), %r11
	movq	(%r15), %r15
	movq	(%r14), %r14
	movq	0(%r13), %r13
	movq	(%r12), %r12
	movq	0(%rbp), %rbp
	movq	(%rbx), %rbx
	movq	(%r10), %r10
	movq	(%r9), %r9
	movq	(%r8), %r8
	movq	(%rdi), %rdi
	movq	(%rsi), %rdx
	movq	(%rax), %rsi
	movq	(%rcx), %rcx
	movq	(%r11), %r11
	movq	(%r15), %r15
	movq	(%r14), %r14
	movq	0(%r13), %r13
	movq	(%r12), %r12
	movq	0(%rbp), %rbp
	movq	(%rbx), %rbx
	movq	(%r10), %r10
	movq	(%r9), %r9
	movq	(%r8), %r8
	movq	(%rdi), %rax
	movq	(%rdx), %rdi
	movq	(%rsi), %rsi
	movq	(%rcx), %rcx
	movq	(%r11), %r11
	movq	(%r15), %r15
	movq	(%r14), %r14
	movq	0(%r13), %r13
	movq	(%r12), %r12
	movq	0(%rbp), %rbp
	movq	(%rbx), %rbx
	movq	(%r10), %r10
	movq	(%r9), %r9
	movq	(%r8), %rdx
	movq	(%rax), %r8
	movq	(%rdi), %rdi
	movq	(%rsi), %rsi
	movq	(%rcx), %rcx
	movq	(%r11), %r11
	movq	(%r15), %r15
	movq	(%r14), %r14
	movq	0(%r13), %r13
	movq	(%r12), %r12
	movq	0(%rbp), %rbp
	movq	(%rbx), %rbx
	movq	(%r10), %r10
	movq	(%r9), %rax
	movq	(%rdx), %r9
	movq	(%r8), %r8
	movq	(%rdi), %rdi
	movq	(%rsi), %rsi
	movq	(%rcx), %rcx
	movq	(%r11), %r11
	movq	(%r15), %r15
	movq	(%r14), %r14
	movq	0(%r13), %r13
	movq	(%r12), %r12
	movq	0(%rbp), %rbp
	movq	(%rbx), %rbx
	movq	(%r10), %rdx
	movq	(%rax), %r10
	movq	(%r9), %r9
	movq	(%r8), %r8
	movq	(%rdi), %rdi
	movq	(%rsi), %rsi
	movq	(%rcx), %rcx
	movq	(%r11), %r11
	movq	(%r15), %r15
	movq	(%r14), %r14
	movq	0(%r13), %r13
	movq	(%r12), %r12
	movq	0(%rbp), %rbp
	movq	(%rbx), %rax
	movq	(%rdx), %rbx
	movq	(%r10), %r10
	movq	(%r9), %r9
	movq	(%r8), %r8
	movq	(%rdi), %rdi
	movq	(%rsi), %rsi
	movq	(%rcx), %rcx
	movq	(%r11), %r11
	movq	(%r15), %r15
	movq	(%r14), %r14
	movq	0(%r13), %r13
	movq	(%r12), %r12
	movq	0(%rbp), %rdx
	movq	(%rax), %rbp
	movq	(%rbx), %rbx
	movq	(%r10), %r10
	movq	(%r9), %r9
	movq	(%r8), %r8
	movq	(%rdi), %rdi
	movq	(%rsi), %rsi
	movq	(%rcx), %rcx
	movq	(%r11), %r11
	movq	(%r15), %r15
	movq	(%r14), %r14
	movq	0(%r13), %r13
	movq	(%r12), %rax
	movq	(%rdx), %r12
	movq	0(%rbp), %rbp
	movq	(%rbx), %rbx
	movq	(%r10), %r10
	movq	(%r9), %r9
	movq	(%r8), %r8
	movq	(%rdi), %rdi
	movq	(%rsi), %rsi
	movq	(%rcx), %rcx
	movq	(%r11), %r11
	movq	(%r15), %r15
	movq	(%r14), %r14
	movq	0(%r13), %rdx
	movq	(%rax), %r13
	movq	(%r12), %r12
	movq	0(%rbp), %rbp
	movq	(%rbx), %rbx
	movq	(%r10), %r10
	movq	(%r9), %r9
	movq	(%r8), %r8
	movq	(%rdi), %rdi
	movq	(%rsi), %rsi
	movq	(%rcx), %rcx
	movq	(%r11), %r11
	movq	(%r15), %r15
	movq	(%r14), %rax
	movq	(%rdx), %r14
	movq	0(%r13), %r13
	movq	(%r12), %r12
	movq	0(%rbp), %rbp
	movq	(%rbx), %rbx
	movq	(%r10), %r10
	movq	(%r9), %r9
	movq	(%r8), %r8
	movq	(%rdi), %rdi
	movq	(%rsi), %rsi
	movq	(%rcx), %rcx
	movq	(%r11), %r11
	movq	(%r15), %rdx
	movq	(%rax), %r15
	movq	(%r14), %r14
	movq	0(%r13), %r13
	movq	(%r12), %r12
	movq	0(%rbp), %rbp
	movq	(%rbx), %rbx
	movq	(%r10), %r10
	movq	(%r9), %r9
	movq	(%r8), %r8
	movq	(%rdi), %rdi
	movq	(%rsi), %rsi
	movq	(%rcx), %rcx
	movq	(%r11), %rax
	movq	(%rdx), %r11
	movq	(%r15), %r15
	movq	(%r14), %r14
	movq	0(%r13), %r13
	movq	(%r12), %r12
	movq	0(%rbp), %rbp
	movq	(%rbx), %rbx
	movq	(%r10), %r10
	movq	(%r9), %r9
	movq	(%r8), %r8
	movq	(%rdi), %rdi
	movq	(%rsi), %rsi
	movq	(%rcx), %rdx
	movq	(%rax), %rcx
	movq	(%r11), %r11
	movq	(%r15), %r15
	movq	(%r14), %r14
	movq	0(%r13), %r13
	movq	(%r12), %r12
	movq	0(%rbp), %rbp
	movq	(%rbx), %rbx
	movq	(%r10), %r10
	movq	(%r9), %r9
	movq	(%r8), %r8
	movq	(%rdi), %rdi
	movq	(%rsi), %rax
	movq	(%rdx), %rsi
	movq	(%rcx), %rcx
	movq	(%r11), %r11
	movq	(%r15), %r15
	movq	(%r14), %r14
	movq	0(%r13), %r13
	movq	(%r12), %r12
	movq	0(%rbp), %rbp
	movq	(%rbx), %rbx
	movq	(%r10), %r10
	movq	(%r9), %r9
	movq	(%r8), %r8
	movq	(%rdi), %rdx
	movq	(%rax), %rdi
	movq	(%rsi), %rsi
	movq	(%rcx), %rcx
	movq	(%r11), %r11
	movq	(%r15), %r15
	movq	(%r14), %r14
	movq	0(%r13), %r13
	movq	(%r12), %r12
	movq	0(%rbp), %rbp
	movq	(%rbx), %rbx
	movq	(%r10), %r10
	movq	(%r9), %r9
	movq	(%r8), %rax
	movq	(%rdx), %r8
	movq	(%rdi), %rdi
	movq	(%rsi), %rsi
	movq	(%rcx), %rcx
	movq	(%r11), %r11
	movq	(%r15), %r15
	movq	(%r14), %r14
	movq	0(%r13), %r13
	movq	(%r12), %r12
	movq	0(%rbp), %rbp
	movq	(%rbx), %rbx
	movq	(%r10), %r10
	movq	(%r9), %rdx
	movq	(%rax), %r9
	movq	(%r8), %r8
	movq	(%rdi), %rdi
	movq	(%rsi), %rsi
	movq	(%rcx), %rcx
	movq	(%r11), %r11
	movq	(%r15), %r15
	movq	(%r14), %r14
	movq	0(%r13), %r13
	movq	(%r12), %r12
	movq	0(%rbp), %rbp
	movq	(%rbx), %rbx
	movq	(%r10), %rax
	movq	(%rdx), %r10
	movq	(%r9), %r9
	movq	(%r8), %r8
	movq	(%rdi), %rdi
	movq	(%rsi), %rsi
	movq	(%rcx), %rcx
	movq	(%r11), %rdx
	movq	%rdx, -32(%rsp)
	movq	(%r15), %r15
	movq	(%r14), %r14
	movq	0(%r13), %r13
	movq	(%r12), %r11
	movq	%r11, -24(%rsp)
	movq	0(%rbp), %rbp
	movq	%rbp, -16(%rsp)
	movq	(%rbx), %rdx
	movq	(%rax), %r11
	movq	(%r10), %rbp
	movq	(%r9), %r12
	movq	(%r8), %rbx
	movq	%rbx, -48(%rsp)
	movq	(%rdi), %rdi
	movq	%rdi, -40(%rsp)
	movq	(%rsi), %rbx
	movq	(%rcx), %r10
	movq	-32(%rsp), %rax
	movq	(%rax), %r9
	movq	(%r15), %r8
	movq	(%r14), %rdi
	movq	0(%r13), %rsi
	movq	-24(%rsp), %rax
	movq	(%rax), %rcx
	movq	-16(%rsp), %rax
	movq	(%rax), %rax
	movq	(%rdx), %rdx
	subq	$1, -56(%rsp)
	movq	-56(%rsp), %r14
	cmpq	$-1, %r14
	jne	.L437
	movq	%r12, %r13
	movq	%rbp, %r12
	movq	%r11, %rbp
.L438:
	movq	%rbp, sp0.48(%rip)
	movq	%r12, sp1.47(%rip)
	movq	%r13, sp2.46(%rip)
	movq	-48(%rsp), %r15
	movq	%r15, sp3.45(%rip)
	movq	-40(%rsp), %r15
	movq	%r15, sp4.44(%rip)
	movq	%rbx, sp5.43(%rip)
	movq	%r10, sp6.42(%rip)
	movq	%r9, sp7.41(%rip)
	movq	%r8, sp8.40(%rip)
	movq	%rdi, sp9.39(%rip)
	movq	%rsi, sp10.38(%rip)
	movq	%rcx, sp11.37(%rip)
	movq	%rax, sp12.36(%rip)
	movq	%rdx, sp13.35(%rip)
	movq	-8(%rsp), %rax
	movq	(%rax), %rax
	movq	%rax, addr_save.49(%rip)
	movl	$1, mem_benchmark_rerun(%rip)
	popq	%rbx
	.cfi_def_cfa_offset 48
	popq	%rbp
	.cfi_def_cfa_offset 40
	popq	%r12
	.cfi_def_cfa_offset 32
	popq	%r13
	.cfi_def_cfa_offset 24
	popq	%r14
	.cfi_def_cfa_offset 16
	popq	%r15
	.cfi_def_cfa_offset 8
	ret
	.cfi_endproc
.LFE85:
	.size	mem_benchmark_13, .-mem_benchmark_13
	.globl	mem_benchmark_14
	.type	mem_benchmark_14, @function
mem_benchmark_14:
.LFB86:
	.cfi_startproc
	endbr64
	pushq	%r15
	.cfi_def_cfa_offset 16
	.cfi_offset 15, -16
	pushq	%r14
	.cfi_def_cfa_offset 24
	.cfi_offset 14, -24
	pushq	%r13
	.cfi_def_cfa_offset 32
	.cfi_offset 13, -32
	pushq	%r12
	.cfi_def_cfa_offset 40
	.cfi_offset 12, -40
	pushq	%rbp
	.cfi_def_cfa_offset 48
	.cfi_offset 6, -48
	pushq	%rbx
	.cfi_def_cfa_offset 56
	.cfi_offset 3, -56
	movq	%rdi, -32(%rsp)
	movq	%rsi, -24(%rsp)
	movl	mem_benchmark_rerun(%rip), %eax
	testl	%eax, %eax
	je	.L463
	movq	addr_save.34(%rip), %rbx
	movq	sp0.33(%rip), %r15
	cmpq	%rbx, (%rsi)
	je	.L465
	movq	-24(%rsp), %rbx
	movq	16(%rbx), %r15
	movq	addr_save.34(%rip), %rdi
	cmpq	%rdi, (%rbx)
	je	.L465
	movq	-24(%rsp), %rdx
	movq	24(%rdx), %r14
	testl	%eax, %eax
	je	.L466
	movq	-24(%rsp), %rcx
	movq	addr_save.34(%rip), %rbx
	cmpq	%rbx, (%rcx)
	je	.L468
	movq	32(%rcx), %r13
	testl	%eax, %eax
	je	.L469
	movq	-24(%rsp), %rbx
	movq	addr_save.34(%rip), %rdx
	cmpq	%rdx, (%rbx)
	je	.L471
	movq	40(%rbx), %r12
	testl	%eax, %eax
	je	.L472
	movq	-24(%rsp), %rdx
	movq	addr_save.34(%rip), %rbx
	cmpq	%rbx, (%rdx)
	je	.L474
	movq	48(%rdx), %rbp
	testl	%eax, %eax
	je	.L475
	movq	-24(%rsp), %rcx
	movq	addr_save.34(%rip), %rdx
	cmpq	%rdx, (%rcx)
	je	.L477
	movq	56(%rcx), %rbx
	testl	%eax, %eax
	je	.L478
	movq	-24(%rsp), %rdi
	movq	addr_save.34(%rip), %rcx
	cmpq	%rcx, (%rdi)
	je	.L480
	movq	64(%rdi), %r11
	testl	%eax, %eax
	je	.L481
	movq	-24(%rsp), %rsi
	movq	addr_save.34(%rip), %rcx
	cmpq	%rcx, (%rsi)
	je	.L507
	movq	-24(%rsp), %rsi
	movq	72(%rsi), %r10
	movq	addr_save.34(%rip), %rcx
	cmpq	%rcx, (%rsi)
	je	.L483
	movq	-24(%rsp), %rdi
	movq	80(%rdi), %r9
	testl	%eax, %eax
	je	.L484
	movq	-24(%rsp), %rcx
	movq	addr_save.34(%rip), %rdi
	cmpq	%rdi, (%rcx)
	je	.L504
	movq	-24(%rsp), %rdi
	movq	88(%rdi), %r8
	movq	addr_save.34(%rip), %rcx
	cmpq	%rcx, (%rdi)
	je	.L486
	movq	-24(%rsp), %rdx
	movq	96(%rdx), %rdi
	testl	%eax, %eax
	je	.L487
	movq	-24(%rsp), %rcx
	movq	addr_save.34(%rip), %rsi
	cmpq	%rsi, (%rcx)
	je	.L501
	movq	-24(%rsp), %rcx
	movq	104(%rcx), %rsi
	movq	addr_save.34(%rip), %rdx
	cmpq	%rdx, (%rcx)
	je	.L489
	movq	-24(%rsp), %rcx
	movq	112(%rcx), %rdx
	movq	%rdx, -16(%rsp)
	testl	%eax, %eax
	je	.L490
	movq	-24(%rsp), %rdx
	movq	addr_save.34(%rip), %rcx
	cmpq	%rcx, (%rdx)
	je	.L492
	movq	120(%rdx), %rdx
	testl	%eax, %eax
	je	.L493
	movq	-24(%rsp), %rax
	movq	addr_save.34(%rip), %rcx
	cmpq	%rcx, (%rax)
	jne	.L493
	jmp	.L495
.L465:
	movq	sp1.32(%rip), %r14
.L468:
	movq	sp2.31(%rip), %r13
.L471:
	movq	sp3.30(%rip), %r12
.L474:
	movq	sp4.29(%rip), %rbp
.L477:
	movq	sp5.28(%rip), %rbx
.L480:
	movq	sp6.27(%rip), %r11
.L507:
	movq	sp7.26(%rip), %r10
.L483:
	movq	sp8.25(%rip), %r9
.L504:
	movq	sp9.24(%rip), %r8
.L486:
	movq	sp10.23(%rip), %rdi
.L501:
	movq	sp11.22(%rip), %rsi
.L489:
	movq	sp12.21(%rip), %rax
	movq	%rax, -16(%rsp)
.L492:
	movq	sp13.20(%rip), %rdx
.L495:
	movq	sp14.19(%rip), %rax
	movq	%rax, -8(%rsp)
	jmp	.L498
.L463:
	movq	-24(%rsp), %rax
	movq	16(%rax), %r15
	movq	24(%rax), %r14
.L466:
	movq	-24(%rsp), %rax
	movq	32(%rax), %r13
.L469:
	movq	-24(%rsp), %rax
	movq	40(%rax), %r12
.L472:
	movq	-24(%rsp), %rax
	movq	48(%rax), %rbp
.L475:
	movq	-24(%rsp), %rax
	movq	56(%rax), %rbx
.L478:
	movq	-24(%rsp), %rax
	movq	64(%rax), %r11
.L481:
	movq	-24(%rsp), %rax
	movq	72(%rax), %r10
	movq	80(%rax), %r9
.L484:
	movq	-24(%rsp), %rax
	movq	88(%rax), %r8
	movq	96(%rax), %rdi
.L487:
	movq	-24(%rsp), %rax
	movq	104(%rax), %rsi
	movq	112(%rax), %rax
	movq	%rax, -16(%rsp)
.L490:
	movq	-24(%rsp), %rax
	movq	120(%rax), %rdx
.L493:
	movq	-24(%rsp), %rax
	movq	128(%rax), %rax
	movq	%rax, -8(%rsp)
.L498:
	movq	-32(%rsp), %rcx
	movq	%rcx, %rax
	subq	$1, %rax
	movq	%rax, -32(%rsp)
	testq	%rcx, %rcx
	je	.L497
	movq	-16(%rsp), %rcx
	movq	-8(%rsp), %rax
.L496:
	movq	(%r15), %r15
	movq	(%r14), %r14
	movq	0(%r13), %r13
	movq	(%r12), %r12
	movq	0(%rbp), %rbp
	movq	(%rbx), %rbx
	movq	(%r11), %r11
	movq	(%r10), %r10
	movq	(%r9), %r9
	movq	(%r8), %r8
	movq	(%rdi), %rdi
	movq	(%rsi), %rsi
	movq	(%rcx), %rcx
	movq	(%rdx), %rdx
	movq	(%rax), %rax
	movq	(%r15), %r15
	movq	(%r14), %r14
	movq	0(%r13), %r13
	movq	(%r12), %r12
	movq	0(%rbp), %rbp
	movq	(%rbx), %rbx
	movq	(%r11), %r11
	movq	(%r10), %r10
	movq	(%r9), %r9
	movq	(%r8), %r8
	movq	(%rdi), %rdi
	movq	(%rsi), %rsi
	movq	(%rcx), %rcx
	movq	(%rdx), %rdx
	movq	(%rax), %rax
	movq	(%r15), %r15
	movq	(%r14), %r14
	movq	0(%r13), %r13
	movq	(%r12), %r12
	movq	0(%rbp), %rbp
	movq	(%rbx), %rbx
	movq	(%r11), %r11
	movq	(%r10), %r10
	movq	(%r9), %r9
	movq	(%r8), %r8
	movq	(%rdi), %rdi
	movq	(%rsi), %rsi
	movq	(%rcx), %rcx
	movq	(%rdx), %rdx
	movq	(%rax), %rax
	movq	(%r15), %r15
	movq	(%r14), %r14
	movq	0(%r13), %r13
	movq	(%r12), %r12
	movq	0(%rbp), %rbp
	movq	(%rbx), %rbx
	movq	(%r11), %r11
	movq	(%r10), %r10
	movq	(%r9), %r9
	movq	(%r8), %r8
	movq	(%rdi), %rdi
	movq	(%rsi), %rsi
	movq	(%rcx), %rcx
	movq	(%rdx), %rdx
	movq	(%rax), %rax
	movq	(%r15), %r15
	movq	(%r14), %r14
	movq	0(%r13), %r13
	movq	(%r12), %r12
	movq	0(%rbp), %rbp
	movq	(%rbx), %rbx
	movq	(%r11), %r11
	movq	(%r10), %r10
	movq	(%r9), %r9
	movq	(%r8), %r8
	movq	(%rdi), %rdi
	movq	(%rsi), %rsi
	movq	(%rcx), %rcx
	movq	(%rdx), %rdx
	movq	(%rax), %rax
	movq	(%r15), %r15
	movq	(%r14), %r14
	movq	0(%r13), %r13
	movq	(%r12), %r12
	movq	0(%rbp), %rbp
	movq	(%rbx), %rbx
	movq	(%r11), %r11
	movq	(%r10), %r10
	movq	(%r9), %r9
	movq	(%r8), %r8
	movq	(%rdi), %rdi
	movq	(%rsi), %rsi
	movq	(%rcx), %rcx
	movq	(%rdx), %rdx
	movq	(%rax), %rax
	movq	(%r15), %r15
	movq	(%r14), %r14
	movq	0(%r13), %r13
	movq	(%r12), %r12
	movq	0(%rbp), %rbp
	movq	(%rbx), %rbx
	movq	(%r11), %r11
	movq	(%r10), %r10
	movq	(%r9), %r9
	movq	(%r8), %r8
	movq	(%rdi), %rdi
	movq	(%rsi), %rsi
	movq	(%rcx), %rcx
	movq	(%rdx), %rdx
	movq	(%rax), %rax
	movq	(%r15), %r15
	movq	(%r14), %r14
	movq	0(%r13), %r13
	movq	(%r12), %r12
	movq	0(%rbp), %rbp
	movq	(%rbx), %rbx
	movq	(%r11), %r11
	movq	(%r10), %r10
	movq	(%r9), %r9
	movq	(%r8), %r8
	movq	(%rdi), %rdi
	movq	(%rsi), %rsi
	movq	(%rcx), %rcx
	movq	(%rdx), %rdx
	movq	(%rax), %rax
	movq	(%r15), %r15
	movq	(%r14), %r14
	movq	0(%r13), %r13
	movq	(%r12), %r12
	movq	0(%rbp), %rbp
	movq	(%rbx), %rbx
	movq	(%r11), %r11
	movq	(%r10), %r10
	movq	(%r9), %r9
	movq	(%r8), %r8
	movq	(%rdi), %rdi
	movq	(%rsi), %rsi
	movq	(%rcx), %rcx
	movq	(%rdx), %rdx
	movq	(%rax), %rax
	movq	(%r15), %r15
	movq	(%r14), %r14
	movq	0(%r13), %r13
	movq	(%r12), %r12
	movq	0(%rbp), %rbp
	movq	(%rbx), %rbx
	movq	(%r11), %r11
	movq	(%r10), %r10
	movq	(%r9), %r9
	movq	(%r8), %r8
	movq	(%rdi), %rdi
	movq	(%rsi), %rsi
	movq	(%rcx), %rcx
	movq	(%rdx), %rdx
	movq	(%rax), %rax
	movq	(%r15), %r15
	movq	(%r14), %r14
	movq	0(%r13), %r13
	movq	(%r12), %r12
	movq	0(%rbp), %rbp
	movq	(%rbx), %rbx
	movq	(%r11), %r11
	movq	(%r10), %r10
	movq	(%r9), %r9
	movq	(%r8), %r8
	movq	(%rdi), %rdi
	movq	(%rsi), %rsi
	movq	(%rcx), %rcx
	movq	(%rdx), %rdx
	movq	(%rax), %rax
	movq	(%r15), %r15
	movq	(%r14), %r14
	movq	0(%r13), %r13
	movq	(%r12), %r12
	movq	0(%rbp), %rbp
	movq	(%rbx), %rbx
	movq	(%r11), %r11
	movq	(%r10), %r10
	movq	(%r9), %r9
	movq	(%r8), %r8
	movq	(%rdi), %rdi
	movq	(%rsi), %rsi
	movq	(%rcx), %rcx
	movq	(%rdx), %rdx
	movq	(%rax), %rax
	movq	(%r15), %r15
	movq	(%r14), %r14
	movq	0(%r13), %r13
	movq	(%r12), %r12
	movq	0(%rbp), %rbp
	movq	(%rbx), %rbx
	movq	(%r11), %r11
	movq	(%r10), %r10
	movq	(%r9), %r9
	movq	(%r8), %r8
	movq	(%rdi), %rdi
	movq	(%rsi), %rsi
	movq	(%rcx), %rcx
	movq	(%rdx), %rdx
	movq	(%rax), %rax
	movq	(%r15), %r15
	movq	(%r14), %r14
	movq	0(%r13), %r13
	movq	(%r12), %r12
	movq	0(%rbp), %rbp
	movq	(%rbx), %rbx
	movq	(%r11), %r11
	movq	(%r10), %r10
	movq	(%r9), %r9
	movq	(%r8), %r8
	movq	(%rdi), %rdi
	movq	(%rsi), %rsi
	movq	(%rcx), %rcx
	movq	(%rdx), %rdx
	movq	(%rax), %rax
	movq	(%r15), %r15
	movq	(%r14), %r14
	movq	0(%r13), %r13
	movq	(%r12), %r12
	movq	0(%rbp), %rbp
	movq	(%rbx), %rbx
	movq	(%r11), %r11
	movq	(%r10), %r10
	movq	(%r9), %r9
	movq	(%r8), %r8
	movq	(%rdi), %rdi
	movq	(%rsi), %rsi
	movq	(%rcx), %rcx
	movq	(%rdx), %rdx
	movq	(%rax), %rax
	movq	(%r15), %r15
	movq	(%r14), %r14
	movq	0(%r13), %r13
	movq	(%r12), %r12
	movq	0(%rbp), %rbp
	movq	(%rbx), %rbx
	movq	(%r11), %r11
	movq	(%r10), %r10
	movq	(%r9), %r9
	movq	(%r8), %r8
	movq	(%rdi), %rdi
	movq	(%rsi), %rsi
	movq	(%rcx), %rcx
	movq	(%rdx), %rdx
	movq	(%rax), %rax
	movq	(%r15), %r15
	movq	(%r14), %r14
	movq	0(%r13), %r13
	movq	(%r12), %r12
	movq	0(%rbp), %rbp
	movq	(%rbx), %rbx
	movq	(%r11), %r11
	movq	(%r10), %r10
	movq	(%r9), %r9
	movq	(%r8), %r8
	movq	(%rdi), %rdi
	movq	(%rsi), %rsi
	movq	(%rcx), %rcx
	movq	(%rdx), %rdx
	movq	(%rax), %rax
	movq	(%r15), %r15
	movq	(%r14), %r14
	movq	0(%r13), %r13
	movq	(%r12), %r12
	movq	0(%rbp), %rbp
	movq	(%rbx), %rbx
	movq	(%r11), %r11
	movq	(%r10), %r10
	movq	(%r9), %r9
	movq	(%r8), %r8
	movq	(%rdi), %rdi
	movq	(%rsi), %rsi
	movq	(%rcx), %rcx
	movq	(%rdx), %rdx
	movq	(%rax), %rax
	movq	(%r15), %r15
	movq	(%r14), %r14
	movq	0(%r13), %r13
	movq	(%r12), %r12
	movq	0(%rbp), %rbp
	movq	(%rbx), %rbx
	movq	(%r11), %r11
	movq	(%r10), %r10
	movq	(%r9), %r9
	movq	(%r8), %r8
	movq	(%rdi), %rdi
	movq	(%rsi), %rsi
	movq	(%rcx), %rcx
	movq	(%rdx), %rdx
	movq	(%rax), %rax
	movq	(%r15), %r15
	movq	(%r14), %r14
	movq	0(%r13), %r13
	movq	(%r12), %r12
	movq	0(%rbp), %rbp
	movq	(%rbx), %rbx
	movq	(%r11), %r11
	movq	(%r10), %r10
	movq	(%r9), %r9
	movq	(%r8), %r8
	movq	(%rdi), %rdi
	movq	(%rsi), %rsi
	movq	(%rcx), %rcx
	movq	(%rdx), %rdx
	movq	(%rax), %rax
	movq	(%r15), %r15
	movq	(%r14), %r14
	movq	0(%r13), %r13
	movq	(%r12), %r12
	movq	0(%rbp), %rbp
	movq	(%rbx), %rbx
	movq	(%r11), %r11
	movq	(%r10), %r10
	movq	(%r9), %r9
	movq	(%r8), %r8
	movq	(%rdi), %rdi
	movq	(%rsi), %rsi
	movq	(%rcx), %rcx
	movq	(%rdx), %rdx
	movq	(%rax), %rax
	movq	(%r15), %r15
	movq	(%r14), %r14
	movq	0(%r13), %r13
	movq	(%r12), %r12
	movq	0(%rbp), %rbp
	movq	(%rbx), %rbx
	movq	(%r11), %r11
	movq	(%r10), %r10
	movq	(%r9), %r9
	movq	(%r8), %r8
	movq	(%rdi), %rdi
	movq	(%rsi), %rsi
	movq	(%rcx), %rcx
	movq	(%rdx), %rdx
	movq	(%rax), %rax
	movq	(%r15), %r15
	movq	(%r14), %r14
	movq	0(%r13), %r13
	movq	(%r12), %r12
	movq	0(%rbp), %rbp
	movq	(%rbx), %rbx
	movq	(%r11), %r11
	movq	(%r10), %r10
	movq	(%r9), %r9
	movq	(%r8), %r8
	movq	(%rdi), %rdi
	movq	(%rsi), %rsi
	movq	(%rcx), %rcx
	movq	(%rdx), %rdx
	movq	(%rax), %rax
	movq	(%r15), %r15
	movq	(%r14), %r14
	movq	0(%r13), %r13
	movq	(%r12), %r12
	movq	0(%rbp), %rbp
	movq	(%rbx), %rbx
	movq	(%r11), %r11
	movq	(%r10), %r10
	movq	(%r9), %r9
	movq	(%r8), %r8
	movq	(%rdi), %rdi
	movq	(%rsi), %rsi
	movq	(%rcx), %rcx
	movq	(%rdx), %rdx
	movq	(%rax), %rax
	movq	(%r15), %r15
	movq	(%r14), %r14
	movq	0(%r13), %r13
	movq	(%r12), %r12
	movq	0(%rbp), %rbp
	movq	(%rbx), %rbx
	movq	(%r11), %r11
	movq	(%r10), %r10
	movq	(%r9), %r9
	movq	(%r8), %r8
	movq	(%rdi), %rdi
	movq	(%rsi), %rsi
	movq	(%rcx), %rcx
	movq	(%rdx), %rdx
	movq	(%rax), %rax
	movq	(%r15), %r15
	movq	(%r14), %r14
	movq	0(%r13), %r13
	movq	(%r12), %r12
	movq	0(%rbp), %rbp
	movq	(%rbx), %rbx
	movq	(%r11), %r11
	movq	(%r10), %r10
	movq	(%r9), %r9
	movq	(%r8), %r8
	movq	(%rdi), %rdi
	movq	(%rsi), %rsi
	movq	(%rcx), %rcx
	movq	(%rdx), %rdx
	movq	(%rax), %rax
	movq	(%r15), %r15
	movq	(%r14), %r14
	movq	0(%r13), %r13
	movq	(%r12), %r12
	movq	0(%rbp), %rbp
	movq	(%rbx), %rbx
	movq	(%r11), %r11
	movq	(%r10), %r10
	movq	(%r9), %r9
	movq	(%r8), %r8
	movq	(%rdi), %rdi
	movq	(%rsi), %rsi
	movq	(%rcx), %rcx
	movq	(%rdx), %rdx
	movq	(%rax), %rax
	movq	(%r15), %r15
	movq	(%r14), %r14
	movq	0(%r13), %r13
	movq	(%r12), %r12
	movq	0(%rbp), %rbp
	movq	(%rbx), %rbx
	movq	(%r11), %r11
	movq	(%r10), %r10
	movq	(%r9), %r9
	movq	(%r8), %r8
	movq	(%rdi), %rdi
	movq	(%rsi), %rsi
	movq	(%rcx), %rcx
	movq	(%rdx), %rdx
	movq	(%rax), %rax
	movq	(%r15), %r15
	movq	(%r14), %r14
	movq	0(%r13), %r13
	movq	(%r12), %r12
	movq	0(%rbp), %rbp
	movq	(%rbx), %rbx
	movq	(%r11), %r11
	movq	(%r10), %r10
	movq	(%r9), %r9
	movq	(%r8), %r8
	movq	(%rdi), %rdi
	movq	(%rsi), %rsi
	movq	(%rcx), %rcx
	movq	(%rdx), %rdx
	movq	(%rax), %rax
	movq	(%r15), %r15
	movq	(%r14), %r14
	movq	0(%r13), %r13
	movq	(%r12), %r12
	movq	0(%rbp), %rbp
	movq	(%rbx), %rbx
	movq	(%r11), %r11
	movq	(%r10), %r10
	movq	(%r9), %r9
	movq	(%r8), %r8
	movq	(%rdi), %rdi
	movq	(%rsi), %rsi
	movq	(%rcx), %rcx
	movq	(%rdx), %rdx
	movq	(%rax), %rax
	movq	(%r15), %r15
	movq	(%r14), %r14
	movq	0(%r13), %r13
	movq	(%r12), %r12
	movq	0(%rbp), %rbp
	movq	(%rbx), %rbx
	movq	(%r11), %r11
	movq	(%r10), %r10
	movq	(%r9), %r9
	movq	(%r8), %r8
	movq	(%rdi), %rdi
	movq	(%rsi), %rsi
	movq	(%rcx), %rcx
	movq	(%rdx), %rdx
	movq	(%rax), %rax
	movq	(%r15), %r15
	movq	(%r14), %r14
	movq	0(%r13), %r13
	movq	(%r12), %r12
	movq	0(%rbp), %rbp
	movq	(%rbx), %rbx
	movq	(%r11), %r11
	movq	(%r10), %r10
	movq	(%r9), %r9
	movq	(%r8), %r8
	movq	(%rdi), %rdi
	movq	(%rsi), %rsi
	movq	(%rcx), %rcx
	movq	(%rdx), %rdx
	movq	(%rax), %rax
	movq	(%r15), %r15
	movq	(%r14), %r14
	movq	0(%r13), %r13
	movq	(%r12), %r12
	movq	0(%rbp), %rbp
	movq	(%rbx), %rbx
	movq	(%r11), %r11
	movq	(%r10), %r10
	movq	(%r9), %r9
	movq	(%r8), %r8
	movq	(%rdi), %rdi
	movq	(%rsi), %rsi
	movq	(%rcx), %rcx
	movq	(%rdx), %rdx
	movq	(%rax), %rax
	movq	(%r15), %r15
	movq	(%r14), %r14
	movq	0(%r13), %r13
	movq	(%r12), %r12
	movq	0(%rbp), %rbp
	movq	(%rbx), %rbx
	movq	(%r11), %r11
	movq	(%r10), %r10
	movq	(%r9), %r9
	movq	(%r8), %r8
	movq	(%rdi), %rdi
	movq	(%rsi), %rsi
	movq	(%rcx), %rcx
	movq	(%rdx), %rdx
	movq	(%rax), %rax
	movq	(%r15), %r15
	movq	(%r14), %r14
	movq	0(%r13), %r13
	movq	(%r12), %r12
	movq	0(%rbp), %rbp
	movq	(%rbx), %rbx
	movq	(%r11), %r11
	movq	(%r10), %r10
	movq	(%r9), %r9
	movq	(%r8), %r8
	movq	(%rdi), %rdi
	movq	(%rsi), %rsi
	movq	(%rcx), %rcx
	movq	(%rdx), %rdx
	movq	(%rax), %rax
	movq	(%r15), %r15
	movq	(%r14), %r14
	movq	0(%r13), %r13
	movq	(%r12), %r12
	movq	0(%rbp), %rbp
	movq	(%rbx), %rbx
	movq	(%r11), %r11
	movq	(%r10), %r10
	movq	(%r9), %r9
	movq	(%r8), %r8
	movq	(%rdi), %rdi
	movq	(%rsi), %rsi
	movq	(%rcx), %rcx
	movq	(%rdx), %rdx
	movq	(%rax), %rax
	movq	(%r15), %r15
	movq	(%r14), %r14
	movq	0(%r13), %r13
	movq	(%r12), %r12
	movq	0(%rbp), %rbp
	movq	(%rbx), %rbx
	movq	(%r11), %r11
	movq	(%r10), %r10
	movq	(%r9), %r9
	movq	(%r8), %r8
	movq	(%rdi), %rdi
	movq	(%rsi), %rsi
	movq	(%rcx), %rcx
	movq	(%rdx), %rdx
	movq	(%rax), %rax
	movq	(%r15), %r15
	movq	(%r14), %r14
	movq	0(%r13), %r13
	movq	(%r12), %r12
	movq	0(%rbp), %rbp
	movq	(%rbx), %rbx
	movq	(%r11), %r11
	movq	(%r10), %r10
	movq	(%r9), %r9
	movq	(%r8), %r8
	movq	(%rdi), %rdi
	movq	(%rsi), %rsi
	movq	(%rcx), %rcx
	movq	(%rdx), %rdx
	movq	(%rax), %rax
	movq	(%r15), %r15
	movq	(%r14), %r14
	movq	0(%r13), %r13
	movq	(%r12), %r12
	movq	0(%rbp), %rbp
	movq	(%rbx), %rbx
	movq	(%r11), %r11
	movq	(%r10), %r10
	movq	(%r9), %r9
	movq	(%r8), %r8
	movq	(%rdi), %rdi
	movq	(%rsi), %rsi
	movq	(%rcx), %rcx
	movq	(%rdx), %rdx
	movq	(%rax), %rax
	movq	(%r15), %r15
	movq	(%r14), %r14
	movq	0(%r13), %r13
	movq	(%r12), %r12
	movq	0(%rbp), %rbp
	movq	(%rbx), %rbx
	movq	(%r11), %r11
	movq	(%r10), %r10
	movq	(%r9), %r9
	movq	(%r8), %r8
	movq	(%rdi), %rdi
	movq	(%rsi), %rsi
	movq	(%rcx), %rcx
	movq	(%rdx), %rdx
	movq	(%rax), %rax
	movq	(%r15), %r15
	movq	(%r14), %r14
	movq	0(%r13), %r13
	movq	(%r12), %r12
	movq	0(%rbp), %rbp
	movq	(%rbx), %rbx
	movq	(%r11), %r11
	movq	(%r10), %r10
	movq	(%r9), %r9
	movq	(%r8), %r8
	movq	(%rdi), %rdi
	movq	(%rsi), %rsi
	movq	(%rcx), %rcx
	movq	(%rdx), %rdx
	movq	(%rax), %rax
	movq	(%r15), %r15
	movq	(%r14), %r14
	movq	0(%r13), %r13
	movq	(%r12), %r12
	movq	0(%rbp), %rbp
	movq	(%rbx), %rbx
	movq	(%r11), %r11
	movq	(%r10), %r10
	movq	(%r9), %r9
	movq	(%r8), %r8
	movq	(%rdi), %rdi
	movq	(%rsi), %rsi
	movq	(%rcx), %rcx
	movq	(%rdx), %rdx
	movq	(%rax), %rax
	movq	(%r15), %r15
	movq	(%r14), %r14
	movq	0(%r13), %r13
	movq	(%r12), %r12
	movq	0(%rbp), %rbp
	movq	(%rbx), %rbx
	movq	(%r11), %r11
	movq	(%r10), %r10
	movq	(%r9), %r9
	movq	(%r8), %r8
	movq	(%rdi), %rdi
	movq	(%rsi), %rsi
	movq	(%rcx), %rcx
	movq	(%rdx), %rdx
	movq	(%rax), %rax
	movq	(%r15), %r15
	movq	(%r14), %r14
	movq	0(%r13), %r13
	movq	(%r12), %r12
	movq	0(%rbp), %rbp
	movq	(%rbx), %rbx
	movq	(%r11), %r11
	movq	(%r10), %r10
	movq	(%r9), %r9
	movq	(%r8), %r8
	movq	(%rdi), %rdi
	movq	(%rsi), %rsi
	movq	(%rcx), %rcx
	movq	(%rdx), %rdx
	movq	(%rax), %rax
	movq	(%r15), %r15
	movq	(%r14), %r14
	movq	0(%r13), %r13
	movq	(%r12), %r12
	movq	0(%rbp), %rbp
	movq	(%rbx), %rbx
	movq	(%r11), %r11
	movq	(%r10), %r10
	movq	(%r9), %r9
	movq	(%r8), %r8
	movq	(%rdi), %rdi
	movq	(%rsi), %rsi
	movq	(%rcx), %rcx
	movq	(%rdx), %rdx
	movq	(%rax), %rax
	movq	(%r15), %r15
	movq	(%r14), %r14
	movq	0(%r13), %r13
	movq	(%r12), %r12
	movq	0(%rbp), %rbp
	movq	(%rbx), %rbx
	movq	(%r11), %r11
	movq	(%r10), %r10
	movq	(%r9), %r9
	movq	(%r8), %r8
	movq	(%rdi), %rdi
	movq	(%rsi), %rsi
	movq	(%rcx), %rcx
	movq	(%rdx), %rdx
	movq	(%rax), %rax
	movq	(%r15), %r15
	movq	(%r14), %r14
	movq	0(%r13), %r13
	movq	(%r12), %r12
	movq	0(%rbp), %rbp
	movq	(%rbx), %rbx
	movq	(%r11), %r11
	movq	(%r10), %r10
	movq	(%r9), %r9
	movq	(%r8), %r8
	movq	(%rdi), %rdi
	movq	(%rsi), %rsi
	movq	(%rcx), %rcx
	movq	(%rdx), %rdx
	movq	(%rax), %rax
	movq	(%r15), %r15
	movq	(%r14), %r14
	movq	0(%r13), %r13
	movq	(%r12), %r12
	movq	0(%rbp), %rbp
	movq	(%rbx), %rbx
	movq	(%r11), %r11
	movq	(%r10), %r10
	movq	(%r9), %r9
	movq	(%r8), %r8
	movq	(%rdi), %rdi
	movq	(%rsi), %rsi
	movq	(%rcx), %rcx
	movq	(%rdx), %rdx
	movq	(%rax), %rax
	movq	(%r15), %r15
	movq	(%r14), %r14
	movq	0(%r13), %r13
	movq	(%r12), %r12
	movq	0(%rbp), %rbp
	movq	(%rbx), %rbx
	movq	(%r11), %r11
	movq	(%r10), %r10
	movq	(%r9), %r9
	movq	(%r8), %r8
	movq	(%rdi), %rdi
	movq	(%rsi), %rsi
	movq	(%rcx), %rcx
	movq	(%rdx), %rdx
	movq	(%rax), %rax
	movq	(%r15), %r15
	movq	(%r14), %r14
	movq	0(%r13), %r13
	movq	(%r12), %r12
	movq	0(%rbp), %rbp
	movq	(%rbx), %rbx
	movq	(%r11), %r11
	movq	(%r10), %r10
	movq	(%r9), %r9
	movq	(%r8), %r8
	movq	(%rdi), %rdi
	movq	(%rsi), %rsi
	movq	(%rcx), %rcx
	movq	(%rdx), %rdx
	movq	(%rax), %rax
	movq	(%r15), %r15
	movq	(%r14), %r14
	movq	0(%r13), %r13
	movq	(%r12), %r12
	movq	0(%rbp), %rbp
	movq	(%rbx), %rbx
	movq	(%r11), %r11
	movq	(%r10), %r10
	movq	(%r9), %r9
	movq	(%r8), %r8
	movq	(%rdi), %rdi
	movq	(%rsi), %rsi
	movq	(%rcx), %rcx
	movq	(%rdx), %rdx
	movq	(%rax), %rax
	movq	(%r15), %r15
	movq	(%r14), %r14
	movq	0(%r13), %r13
	movq	(%r12), %r12
	movq	0(%rbp), %rbp
	movq	(%rbx), %rbx
	movq	(%r11), %r11
	movq	(%r10), %r10
	movq	(%r9), %r9
	movq	(%r8), %r8
	movq	(%rdi), %rdi
	movq	(%rsi), %rsi
	movq	(%rcx), %rcx
	movq	(%rdx), %rdx
	movq	(%rax), %rax
	movq	(%r15), %r15
	movq	(%r14), %r14
	movq	0(%r13), %r13
	movq	(%r12), %r12
	movq	0(%rbp), %rbp
	movq	(%rbx), %rbx
	movq	(%r11), %r11
	movq	(%r10), %r10
	movq	(%r9), %r9
	movq	(%r8), %r8
	movq	(%rdi), %rdi
	movq	(%rsi), %rsi
	movq	(%rcx), %rcx
	movq	(%rdx), %rdx
	movq	(%rax), %rax
	movq	(%r15), %r15
	movq	(%r14), %r14
	movq	0(%r13), %r13
	movq	(%r12), %r12
	movq	0(%rbp), %rbp
	movq	(%rbx), %rbx
	movq	(%r11), %r11
	movq	(%r10), %r10
	movq	(%r9), %r9
	movq	(%r8), %r8
	movq	(%rdi), %rdi
	movq	(%rsi), %rsi
	movq	(%rcx), %rcx
	movq	(%rdx), %rdx
	movq	(%rax), %rax
	movq	(%r15), %r15
	movq	(%r14), %r14
	movq	0(%r13), %r13
	movq	(%r12), %r12
	movq	0(%rbp), %rbp
	movq	(%rbx), %rbx
	movq	(%r11), %r11
	movq	(%r10), %r10
	movq	(%r9), %r9
	movq	(%r8), %r8
	movq	(%rdi), %rdi
	movq	(%rsi), %rsi
	movq	(%rcx), %rcx
	movq	(%rdx), %rdx
	movq	(%rax), %rax
	movq	(%r15), %r15
	movq	(%r14), %r14
	movq	0(%r13), %r13
	movq	(%r12), %r12
	movq	0(%rbp), %rbp
	movq	(%rbx), %rbx
	movq	(%r11), %r11
	movq	(%r10), %r10
	movq	(%r9), %r9
	movq	(%r8), %r8
	movq	(%rdi), %rdi
	movq	(%rsi), %rsi
	movq	(%rcx), %rcx
	movq	(%rdx), %rdx
	movq	(%rax), %rax
	movq	(%r15), %r15
	movq	(%r14), %r14
	movq	0(%r13), %r13
	movq	(%r12), %r12
	movq	0(%rbp), %rbp
	movq	(%rbx), %rbx
	movq	(%r11), %r11
	movq	(%r10), %r10
	movq	(%r9), %r9
	movq	(%r8), %r8
	movq	(%rdi), %rdi
	movq	(%rsi), %rsi
	movq	(%rcx), %rcx
	movq	(%rdx), %rdx
	movq	(%rax), %rax
	movq	(%r15), %r15
	movq	(%r14), %r14
	movq	0(%r13), %r13
	movq	(%r12), %r12
	movq	0(%rbp), %rbp
	movq	(%rbx), %rbx
	movq	(%r11), %r11
	movq	(%r10), %r10
	movq	(%r9), %r9
	movq	(%r8), %r8
	movq	(%rdi), %rdi
	movq	(%rsi), %rsi
	movq	(%rcx), %rcx
	movq	(%rdx), %rdx
	movq	(%rax), %rax
	movq	(%r15), %r15
	movq	(%r14), %r14
	movq	0(%r13), %r13
	movq	(%r12), %r12
	movq	0(%rbp), %rbp
	movq	(%rbx), %rbx
	movq	(%r11), %r11
	movq	(%r10), %r10
	movq	(%r9), %r9
	movq	(%r8), %r8
	movq	(%rdi), %rdi
	movq	(%rsi), %rsi
	movq	(%rcx), %rcx
	movq	(%rdx), %rdx
	movq	(%rax), %rax
	movq	(%r15), %r15
	movq	(%r14), %r14
	movq	0(%r13), %r13
	movq	(%r12), %r12
	movq	0(%rbp), %rbp
	movq	(%rbx), %rbx
	movq	(%r11), %r11
	movq	(%r10), %r10
	movq	(%r9), %r9
	movq	(%r8), %r8
	movq	(%rdi), %rdi
	movq	(%rsi), %rsi
	movq	(%rcx), %rcx
	movq	(%rdx), %rdx
	movq	(%rax), %rax
	movq	(%r15), %r15
	movq	(%r14), %r14
	movq	0(%r13), %r13
	movq	(%r12), %r12
	movq	0(%rbp), %rbp
	movq	(%rbx), %rbx
	movq	(%r11), %r11
	movq	(%r10), %r10
	movq	(%r9), %r9
	movq	(%r8), %r8
	movq	(%rdi), %rdi
	movq	(%rsi), %rsi
	movq	(%rcx), %rcx
	movq	(%rdx), %rdx
	movq	(%rax), %rax
	movq	(%r15), %r15
	movq	(%r14), %r14
	movq	0(%r13), %r13
	movq	(%r12), %r12
	movq	0(%rbp), %rbp
	movq	(%rbx), %rbx
	movq	(%r11), %r11
	movq	(%r10), %r10
	movq	(%r9), %r9
	movq	(%r8), %r8
	movq	(%rdi), %rdi
	movq	(%rsi), %rsi
	movq	(%rcx), %rcx
	movq	(%rdx), %rdx
	movq	(%rax), %rax
	movq	(%r15), %r15
	movq	(%r14), %r14
	movq	0(%r13), %r13
