	.file	"par_ops.c"
	.text
	.globl	initialize
	.type	initialize, @function
initialize:
.LFB329:
	.cfi_startproc
	endbr64
	testq	%rdi, %rdi
	jne	.L1
	movl	$1, %eax
	movsd	.LC0(%rip), %xmm0
.L3:
	movl	%eax, 8(%rsi,%rax,4)
	movsd	%xmm0, 72(%rsi,%rax,8)
	addq	$1, %rax
	cmpq	$17, %rax
	jne	.L3
.L1:
	ret
	.cfi_endproc
.LFE329:
	.size	initialize, .-initialize
	.globl	integer_bit_0
	.type	integer_bit_0, @function
integer_bit_0:
.LFB73:
	.cfi_startproc
	endbr64
	subq	$8, %rsp
	.cfi_def_cfa_offset 16
	movq	%rdi, %rcx
	movl	12(%rsi), %edx
	leal	1(%rdx), %edi
	addl	$2, %edx
	leaq	-1(%rcx), %rax
	testq	%rcx, %rcx
	jne	.L7
	jmp	.L6
.L8:
	movl	%edi, %edx
.L7:
	orl	%edx, %edi
	subq	$1, %rax
	cmpq	$-1, %rax
	jne	.L8
.L6:
	call	use_int@PLT
	addq	$8, %rsp
	.cfi_def_cfa_offset 8
	ret
	.cfi_endproc
.LFE73:
	.size	integer_bit_0, .-integer_bit_0
	.globl	integer_bit_1
	.type	integer_bit_1, @function
integer_bit_1:
.LFB74:
	.cfi_startproc
	endbr64
	pushq	%rbx
	.cfi_def_cfa_offset 16
	.cfi_offset 3, -16
	movq	%rdi, %r8
	movl	12(%rsi), %ecx
	leal	1(%rcx), %edi
	addl	$2, %ecx
	movl	16(%rsi), %edx
	leal	1(%rdx), %ebx
	addl	$3, %edx
	leaq	-1(%r8), %rax
	testq	%r8, %r8
	jne	.L12
	jmp	.L11
.L13:
	movl	%ebx, %edx
	movl	%edi, %ecx
.L12:
	orl	%ecx, %edi
	orl	%edx, %ebx
	subq	$1, %rax
	cmpq	$-1, %rax
	jne	.L13
.L11:
	call	use_int@PLT
	movl	%ebx, %edi
	call	use_int@PLT
	popq	%rbx
	.cfi_def_cfa_offset 8
	ret
	.cfi_endproc
.LFE74:
	.size	integer_bit_1, .-integer_bit_1
	.globl	integer_bit_2
	.type	integer_bit_2, @function
integer_bit_2:
.LFB75:
	.cfi_startproc
	endbr64
	pushq	%rbp
	.cfi_def_cfa_offset 16
	.cfi_offset 6, -16
	pushq	%rbx
	.cfi_def_cfa_offset 24
	.cfi_offset 3, -24
	subq	$8, %rsp
	.cfi_def_cfa_offset 32
	movq	%rdi, %r9
	movl	12(%rsi), %r8d
	leal	1(%r8), %edi
	addl	$2, %r8d
	movl	16(%rsi), %ecx
	leal	1(%rcx), %ebp
	addl	$3, %ecx
	movl	20(%rsi), %edx
	leal	1(%rdx), %ebx
	addl	$4, %edx
	leaq	-1(%r9), %rax
	testq	%r9, %r9
	jne	.L17
	jmp	.L16
.L18:
	movl	%ebx, %edx
	movl	%ebp, %ecx
	movl	%edi, %r8d
.L17:
	orl	%r8d, %edi
	orl	%ecx, %ebp
	orl	%edx, %ebx
	subq	$1, %rax
	cmpq	$-1, %rax
	jne	.L18
.L16:
	call	use_int@PLT
	movl	%ebp, %edi
	call	use_int@PLT
	movl	%ebx, %edi
	call	use_int@PLT
	addq	$8, %rsp
	.cfi_def_cfa_offset 24
	popq	%rbx
	.cfi_def_cfa_offset 16
	popq	%rbp
	.cfi_def_cfa_offset 8
	ret
	.cfi_endproc
.LFE75:
	.size	integer_bit_2, .-integer_bit_2
	.globl	integer_bit_3
	.type	integer_bit_3, @function
integer_bit_3:
.LFB76:
	.cfi_startproc
	endbr64
	pushq	%r12
	.cfi_def_cfa_offset 16
	.cfi_offset 12, -16
	pushq	%rbp
	.cfi_def_cfa_offset 24
	.cfi_offset 6, -24
	pushq	%rbx
	.cfi_def_cfa_offset 32
	.cfi_offset 3, -32
	movq	%rdi, %r10
	movl	12(%rsi), %r9d
	leal	1(%r9), %edi
	addl	$2, %r9d
	movl	16(%rsi), %r8d
	leal	1(%r8), %r12d
	addl	$3, %r8d
	movl	20(%rsi), %ecx
	leal	1(%rcx), %ebp
	addl	$4, %ecx
	movl	24(%rsi), %edx
	leal	1(%rdx), %ebx
	addl	$5, %edx
	leaq	-1(%r10), %rax
	testq	%r10, %r10
	jne	.L22
	jmp	.L21
.L23:
	movl	%ebx, %edx
	movl	%ebp, %ecx
	movl	%r12d, %r8d
	movl	%edi, %r9d
.L22:
	orl	%r9d, %edi
	orl	%r8d, %r12d
	orl	%ecx, %ebp
	orl	%edx, %ebx
	subq	$1, %rax
	cmpq	$-1, %rax
	jne	.L23
.L21:
	call	use_int@PLT
	movl	%r12d, %edi
	call	use_int@PLT
	movl	%ebp, %edi
	call	use_int@PLT
	movl	%ebx, %edi
	call	use_int@PLT
	popq	%rbx
	.cfi_def_cfa_offset 24
	popq	%rbp
	.cfi_def_cfa_offset 16
	popq	%r12
	.cfi_def_cfa_offset 8
	ret
	.cfi_endproc
.LFE76:
	.size	integer_bit_3, .-integer_bit_3
	.globl	integer_bit_4
	.type	integer_bit_4, @function
integer_bit_4:
.LFB77:
	.cfi_startproc
	endbr64
	pushq	%r13
	.cfi_def_cfa_offset 16
	.cfi_offset 13, -16
	pushq	%r12
	.cfi_def_cfa_offset 24
	.cfi_offset 12, -24
	pushq	%rbp
	.cfi_def_cfa_offset 32
	.cfi_offset 6, -32
	pushq	%rbx
	.cfi_def_cfa_offset 40
	.cfi_offset 3, -40
	subq	$8, %rsp
	.cfi_def_cfa_offset 48
	movq	%rdi, %r10
	movl	12(%rsi), %r11d
	leal	1(%r11), %edi
	addl	$2, %r11d
	movl	16(%rsi), %r9d
	leal	1(%r9), %r13d
	addl	$3, %r9d
	movl	20(%rsi), %r8d
	leal	1(%r8), %r12d
	addl	$4, %r8d
	movl	24(%rsi), %ecx
	leal	1(%rcx), %ebp
	addl	$5, %ecx
	movl	28(%rsi), %edx
	leal	1(%rdx), %ebx
	addl	$6, %edx
	leaq	-1(%r10), %rax
	testq	%r10, %r10
	jne	.L27
	jmp	.L26
.L28:
	movl	%ebx, %edx
	movl	%ebp, %ecx
	movl	%r12d, %r8d
	movl	%r13d, %r9d
	movl	%edi, %r11d
.L27:
	orl	%r11d, %edi
	orl	%r9d, %r13d
	orl	%r8d, %r12d
	orl	%ecx, %ebp
	orl	%edx, %ebx
	subq	$1, %rax
	cmpq	$-1, %rax
	jne	.L28
.L26:
	call	use_int@PLT
	movl	%r13d, %edi
	call	use_int@PLT
	movl	%r12d, %edi
	call	use_int@PLT
	movl	%ebp, %edi
	call	use_int@PLT
	movl	%ebx, %edi
	call	use_int@PLT
	addq	$8, %rsp
	.cfi_def_cfa_offset 40
	popq	%rbx
	.cfi_def_cfa_offset 32
	popq	%rbp
	.cfi_def_cfa_offset 24
	popq	%r12
	.cfi_def_cfa_offset 16
	popq	%r13
	.cfi_def_cfa_offset 8
	ret
	.cfi_endproc
.LFE77:
	.size	integer_bit_4, .-integer_bit_4
	.globl	integer_bit_5
	.type	integer_bit_5, @function
integer_bit_5:
.LFB78:
	.cfi_startproc
	endbr64
	pushq	%r14
	.cfi_def_cfa_offset 16
	.cfi_offset 14, -16
	pushq	%r13
	.cfi_def_cfa_offset 24
	.cfi_offset 13, -24
	pushq	%r12
	.cfi_def_cfa_offset 32
	.cfi_offset 12, -32
	pushq	%rbp
	.cfi_def_cfa_offset 40
	.cfi_offset 6, -40
	pushq	%rbx
	.cfi_def_cfa_offset 48
	.cfi_offset 3, -48
	movq	%rdi, %r10
	movq	%rsi, %rax
	movl	12(%rsi), %r11d
	leal	1(%r11), %edi
	addl	$2, %r11d
	movl	16(%rsi), %r9d
	leal	1(%r9), %r14d
	addl	$3, %r9d
	movl	20(%rsi), %r8d
	leal	1(%r8), %r13d
	addl	$4, %r8d
	movl	24(%rsi), %esi
	leal	1(%rsi), %r12d
	addl	$5, %esi
	movl	28(%rax), %ecx
	leal	1(%rcx), %ebp
	addl	$6, %ecx
	movl	32(%rax), %edx
	leal	1(%rdx), %ebx
	addl	$7, %edx
	leaq	-1(%r10), %rax
	testq	%r10, %r10
	jne	.L32
	jmp	.L31
.L33:
	movl	%ebx, %edx
	movl	%ebp, %ecx
	movl	%r12d, %esi
	movl	%r13d, %r8d
	movl	%r14d, %r9d
	movl	%edi, %r11d
.L32:
	orl	%r11d, %edi
	orl	%r9d, %r14d
	orl	%r8d, %r13d
	orl	%esi, %r12d
	orl	%ecx, %ebp
	orl	%edx, %ebx
	subq	$1, %rax
	cmpq	$-1, %rax
	jne	.L33
.L31:
	call	use_int@PLT
	movl	%r14d, %edi
	call	use_int@PLT
	movl	%r13d, %edi
	call	use_int@PLT
	movl	%r12d, %edi
	call	use_int@PLT
	movl	%ebp, %edi
	call	use_int@PLT
	movl	%ebx, %edi
	call	use_int@PLT
	popq	%rbx
	.cfi_def_cfa_offset 40
	popq	%rbp
	.cfi_def_cfa_offset 32
	popq	%r12
	.cfi_def_cfa_offset 24
	popq	%r13
	.cfi_def_cfa_offset 16
	popq	%r14
	.cfi_def_cfa_offset 8
	ret
	.cfi_endproc
.LFE78:
	.size	integer_bit_5, .-integer_bit_5
	.globl	integer_bit_6
	.type	integer_bit_6, @function
integer_bit_6:
.LFB79:
	.cfi_startproc
	endbr64
	pushq	%r15
	.cfi_def_cfa_offset 16
	.cfi_offset 15, -16
	pushq	%r14
	.cfi_def_cfa_offset 24
	.cfi_offset 14, -24
	pushq	%r13
	.cfi_def_cfa_offset 32
	.cfi_offset 13, -32
	pushq	%r12
	.cfi_def_cfa_offset 40
	.cfi_offset 12, -40
	pushq	%rbp
	.cfi_def_cfa_offset 48
	.cfi_offset 6, -48
	pushq	%rbx
	.cfi_def_cfa_offset 56
	.cfi_offset 3, -56
	subq	$24, %rsp
	.cfi_def_cfa_offset 80
	movq	%rdi, 8(%rsp)
	movq	%rsi, %rax
	movl	12(%rsi), %r11d
	leal	1(%r11), %edi
	addl	$2, %r11d
	movl	16(%rsi), %r10d
	leal	1(%r10), %r15d
	addl	$3, %r10d
	movl	20(%rsi), %r9d
	leal	1(%r9), %r14d
	addl	$4, %r9d
	movl	24(%rsi), %r8d
	leal	1(%r8), %r13d
	addl	$5, %r8d
	movl	28(%rsi), %esi
	leal	1(%rsi), %r12d
	addl	$6, %esi
	movl	32(%rax), %ecx
	leal	1(%rcx), %ebp
	addl	$7, %ecx
	movl	36(%rax), %edx
	leal	1(%rdx), %ebx
	addl	$8, %edx
	movq	8(%rsp), %rax
	subq	$1, %rax
	cmpq	$0, 8(%rsp)
	jne	.L37
	jmp	.L36
.L38:
	movl	%ebx, %edx
	movl	%ebp, %ecx
	movl	%r12d, %esi
	movl	%r13d, %r8d
	movl	%r14d, %r9d
	movl	%r15d, %r10d
	movl	%edi, %r11d
.L37:
	orl	%r11d, %edi
	orl	%r10d, %r15d
	orl	%r9d, %r14d
	orl	%r8d, %r13d
	orl	%esi, %r12d
	orl	%ecx, %ebp
	orl	%edx, %ebx
	subq	$1, %rax
	cmpq	$-1, %rax
	jne	.L38
.L36:
	call	use_int@PLT
	movl	%r15d, %edi
	call	use_int@PLT
	movl	%r14d, %edi
	call	use_int@PLT
	movl	%r13d, %edi
	call	use_int@PLT
	movl	%r12d, %edi
	call	use_int@PLT
	movl	%ebp, %edi
	call	use_int@PLT
	movl	%ebx, %edi
	call	use_int@PLT
	addq	$24, %rsp
	.cfi_def_cfa_offset 56
	popq	%rbx
	.cfi_def_cfa_offset 48
	popq	%rbp
	.cfi_def_cfa_offset 40
	popq	%r12
	.cfi_def_cfa_offset 32
	popq	%r13
	.cfi_def_cfa_offset 24
	popq	%r14
	.cfi_def_cfa_offset 16
	popq	%r15
	.cfi_def_cfa_offset 8
	ret
	.cfi_endproc
.LFE79:
	.size	integer_bit_6, .-integer_bit_6
	.globl	integer_bit_7
	.type	integer_bit_7, @function
integer_bit_7:
.LFB80:
	.cfi_startproc
	endbr64
	pushq	%r15
	.cfi_def_cfa_offset 16
	.cfi_offset 15, -16
	pushq	%r14
	.cfi_def_cfa_offset 24
	.cfi_offset 14, -24
	pushq	%r13
	.cfi_def_cfa_offset 32
	.cfi_offset 13, -32
	pushq	%r12
	.cfi_def_cfa_offset 40
	.cfi_offset 12, -40
	pushq	%rbp
	.cfi_def_cfa_offset 48
	.cfi_offset 6, -48
	pushq	%rbx
	.cfi_def_cfa_offset 56
	.cfi_offset 3, -56
	subq	$24, %rsp
	.cfi_def_cfa_offset 80
	movq	%rdi, (%rsp)
	movq	%rsi, %rax
	movl	12(%rsi), %r11d
	leal	1(%r11), %edi
	addl	$2, %r11d
	movl	16(%rsi), %r9d
	leal	1(%r9), %r15d
	addl	$3, %r9d
	movl	20(%rsi), %r8d
	leal	1(%r8), %r14d
	addl	$4, %r8d
	movl	24(%rsi), %esi
	leal	1(%rsi), %r13d
	addl	$5, %esi
	movl	28(%rax), %edx
	leal	1(%rdx), %r12d
	leal	6(%rdx), %ebx
	movl	%ebx, 8(%rsp)
	movl	32(%rax), %edx
	leal	1(%rdx), %ebp
	leal	7(%rdx), %r10d
	movl	36(%rax), %ecx
	leal	1(%rcx), %ebx
	movl	%ebx, 12(%rsp)
	addl	$8, %ecx
	movl	40(%rax), %edx
	leal	1(%rdx), %ebx
	addl	$9, %edx
	movq	(%rsp), %rax
	subq	$1, %rax
	cmpq	$0, (%rsp)
	je	.L42
	movl	%r9d, (%rsp)
	movl	12(%rsp), %r9d
	jmp	.L43
.L44:
	movl	%ebx, %edx
	movl	%r9d, %ecx
	movl	%ebp, %r10d
	movl	%r12d, 8(%rsp)
	movl	%r13d, %esi
	movl	%r14d, %r8d
	movl	%r15d, (%rsp)
	movl	%edi, %r11d
.L43:
	orl	%r11d, %edi
	orl	(%rsp), %r15d
	orl	%r8d, %r14d
	orl	%esi, %r13d
	orl	8(%rsp), %r12d
	orl	%r10d, %ebp
	orl	%ecx, %r9d
	orl	%edx, %ebx
	subq	$1, %rax
	cmpq	$-1, %rax
	jne	.L44
	movl	%r9d, 12(%rsp)
.L42:
	call	use_int@PLT
	movl	%r15d, %edi
	call	use_int@PLT
	movl	%r14d, %edi
	call	use_int@PLT
	movl	%r13d, %edi
	call	use_int@PLT
	movl	%r12d, %edi
	call	use_int@PLT
	movl	%ebp, %edi
	call	use_int@PLT
	movl	12(%rsp), %edi
	call	use_int@PLT
	movl	%ebx, %edi
	call	use_int@PLT
	addq	$24, %rsp
	.cfi_def_cfa_offset 56
	popq	%rbx
	.cfi_def_cfa_offset 48
	popq	%rbp
	.cfi_def_cfa_offset 40
	popq	%r12
	.cfi_def_cfa_offset 32
	popq	%r13
	.cfi_def_cfa_offset 24
	popq	%r14
	.cfi_def_cfa_offset 16
	popq	%r15
	.cfi_def_cfa_offset 8
	ret
	.cfi_endproc
.LFE80:
	.size	integer_bit_7, .-integer_bit_7
	.globl	integer_bit_8
	.type	integer_bit_8, @function
integer_bit_8:
.LFB81:
	.cfi_startproc
	endbr64
	pushq	%r15
	.cfi_def_cfa_offset 16
	.cfi_offset 15, -16
	pushq	%r14
	.cfi_def_cfa_offset 24
	.cfi_offset 14, -24
	pushq	%r13
	.cfi_def_cfa_offset 32
	.cfi_offset 13, -32
	pushq	%r12
	.cfi_def_cfa_offset 40
	.cfi_offset 12, -40
	pushq	%rbp
	.cfi_def_cfa_offset 48
	.cfi_offset 6, -48
	pushq	%rbx
	.cfi_def_cfa_offset 56
	.cfi_offset 3, -56
	subq	$40, %rsp
	.cfi_def_cfa_offset 96
	movq	%rdi, 8(%rsp)
	movq	%rsi, %rax
	movl	12(%rsi), %r11d
	leal	1(%r11), %edi
	addl	$2, %r11d
	movl	16(%rsi), %r9d
	leal	1(%r9), %ebx
	movl	%ebx, 24(%rsp)
	addl	$3, %r9d
	movl	20(%rsi), %r8d
	leal	1(%r8), %r15d
	addl	$4, %r8d
	movl	24(%rsi), %edx
	leal	1(%rdx), %r14d
	leal	5(%rdx), %ecx
	movl	%ecx, 4(%rsp)
	movl	28(%rsi), %edx
	leal	1(%rdx), %r13d
	leal	6(%rdx), %ebx
	movl	%ebx, 16(%rsp)
	movl	32(%rsi), %edx
	leal	1(%rdx), %r12d
	leal	7(%rdx), %r10d
	movl	36(%rsi), %esi
	leal	1(%rsi), %ecx
	movl	%ecx, 28(%rsp)
	addl	$8, %esi
	movl	40(%rax), %ecx
	leal	1(%rcx), %ebp
	addl	$9, %ecx
	movl	44(%rax), %edx
	leal	1(%rdx), %ebx
	addl	$10, %edx
	movq	8(%rsp), %rax
	subq	$1, %rax
	cmpq	$0, 8(%rsp)
	je	.L48
	movl	%r10d, 8(%rsp)
	movl	%esi, 20(%rsp)
	movl	24(%rsp), %esi
	movl	28(%rsp), %r10d
	jmp	.L49
.L50:
	movl	%ebx, %edx
	movl	%ebp, %ecx
	movl	%r10d, 20(%rsp)
	movl	%r12d, 8(%rsp)
	movl	%r13d, 16(%rsp)
	movl	%r14d, 4(%rsp)
	movl	%r15d, %r8d
	movl	%esi, %r9d
	movl	%edi, %r11d
.L49:
	orl	%r11d, %edi
	orl	%r9d, %esi
	orl	%r8d, %r15d
	orl	4(%rsp), %r14d
	orl	16(%rsp), %r13d
	orl	8(%rsp), %r12d
	orl	20(%rsp), %r10d
	orl	%ecx, %ebp
	orl	%edx, %ebx
	subq	$1, %rax
	cmpq	$-1, %rax
	jne	.L50
	movl	%esi, 24(%rsp)
	movl	%r10d, 28(%rsp)
.L48:
	call	use_int@PLT
	movl	24(%rsp), %edi
	call	use_int@PLT
	movl	%r15d, %edi
	call	use_int@PLT
	movl	%r14d, %edi
	call	use_int@PLT
	movl	%r13d, %edi
	call	use_int@PLT
	movl	%r12d, %edi
	call	use_int@PLT
	movl	28(%rsp), %edi
	call	use_int@PLT
	movl	%ebp, %edi
	call	use_int@PLT
	movl	%ebx, %edi
	call	use_int@PLT
	addq	$40, %rsp
	.cfi_def_cfa_offset 56
	popq	%rbx
	.cfi_def_cfa_offset 48
	popq	%rbp
	.cfi_def_cfa_offset 40
	popq	%r12
	.cfi_def_cfa_offset 32
	popq	%r13
	.cfi_def_cfa_offset 24
	popq	%r14
	.cfi_def_cfa_offset 16
	popq	%r15
	.cfi_def_cfa_offset 8
	ret
	.cfi_endproc
.LFE81:
	.size	integer_bit_8, .-integer_bit_8
	.globl	integer_bit_9
	.type	integer_bit_9, @function
integer_bit_9:
.LFB82:
	.cfi_startproc
	endbr64
	pushq	%r15
	.cfi_def_cfa_offset 16
	.cfi_offset 15, -16
	pushq	%r14
	.cfi_def_cfa_offset 24
	.cfi_offset 14, -24
	pushq	%r13
	.cfi_def_cfa_offset 32
	.cfi_offset 13, -32
	pushq	%r12
	.cfi_def_cfa_offset 40
	.cfi_offset 12, -40
	pushq	%rbp
	.cfi_def_cfa_offset 48
	.cfi_offset 6, -48
	pushq	%rbx
	.cfi_def_cfa_offset 56
	.cfi_offset 3, -56
	subq	$56, %rsp
	.cfi_def_cfa_offset 112
	movq	%rdi, 16(%rsp)
	movq	%rsi, %rax
	movl	12(%rsi), %r11d
	leal	1(%r11), %edi
	addl	$2, %r11d
	movl	16(%rsi), %r9d
	leal	1(%r9), %ebx
	movl	%ebx, 36(%rsp)
	addl	$3, %r9d
	movl	20(%rsi), %r8d
	leal	1(%r8), %ecx
	movl	%ecx, 40(%rsp)
	addl	$4, %r8d
	movl	24(%rsi), %esi
	leal	1(%rsi), %ebx
	movl	%ebx, 44(%rsp)
	addl	$5, %esi
	movl	28(%rax), %edx
	leal	1(%rdx), %r15d
	leal	6(%rdx), %ecx
	movl	%ecx, 8(%rsp)
	movl	32(%rax), %edx
	leal	1(%rdx), %r14d
	leal	7(%rdx), %ebx
	movl	%ebx, 12(%rsp)
	movl	36(%rax), %edx
	leal	1(%rdx), %r13d
	leal	8(%rdx), %ecx
	movl	%ecx, 24(%rsp)
	movl	40(%rax), %edx
	leal	1(%rdx), %r12d
	leal	9(%rdx), %r10d
	movl	44(%rax), %ecx
	leal	1(%rcx), %ebp
	addl	$10, %ecx
	movl	48(%rax), %edx
	leal	1(%rdx), %ebx
	addl	$11, %edx
	movq	16(%rsp), %rax
	subq	$1, %rax
	cmpq	$0, 16(%rsp)
	je	.L54
	movl	%r10d, 16(%rsp)
	movl	%ecx, 28(%rsp)
	movl	%edx, 32(%rsp)
	movl	36(%rsp), %edx
	movl	40(%rsp), %ecx
	movl	44(%rsp), %r10d
	jmp	.L55
.L56:
	movl	%ebx, 32(%rsp)
	movl	%ebp, 28(%rsp)
	movl	%r12d, 16(%rsp)
	movl	%r13d, 24(%rsp)
	movl	%r14d, 12(%rsp)
	movl	%r15d, 8(%rsp)
	movl	%r10d, %esi
	movl	%ecx, %r8d
	movl	%edx, %r9d
	movl	%edi, %r11d
.L55:
	orl	%r11d, %edi
	orl	%r9d, %edx
	orl	%r8d, %ecx
	orl	%esi, %r10d
	orl	8(%rsp), %r15d
	orl	12(%rsp), %r14d
	orl	24(%rsp), %r13d
	orl	16(%rsp), %r12d
	orl	28(%rsp), %ebp
	orl	32(%rsp), %ebx
	subq	$1, %rax
	cmpq	$-1, %rax
	jne	.L56
	movl	%edx, 36(%rsp)
	movl	%ecx, 40(%rsp)
	movl	%r10d, 44(%rsp)
.L54:
	call	use_int@PLT
	movl	36(%rsp), %edi
	call	use_int@PLT
	movl	40(%rsp), %edi
	call	use_int@PLT
	movl	44(%rsp), %edi
	call	use_int@PLT
	movl	%r15d, %edi
	call	use_int@PLT
	movl	%r14d, %edi
	call	use_int@PLT
	movl	%r13d, %edi
	call	use_int@PLT
	movl	%r12d, %edi
	call	use_int@PLT
	movl	%ebp, %edi
	call	use_int@PLT
	movl	%ebx, %edi
	call	use_int@PLT
	addq	$56, %rsp
	.cfi_def_cfa_offset 56
	popq	%rbx
	.cfi_def_cfa_offset 48
	popq	%rbp
	.cfi_def_cfa_offset 40
	popq	%r12
	.cfi_def_cfa_offset 32
	popq	%r13
	.cfi_def_cfa_offset 24
	popq	%r14
	.cfi_def_cfa_offset 16
	popq	%r15
	.cfi_def_cfa_offset 8
	ret
	.cfi_endproc
.LFE82:
	.size	integer_bit_9, .-integer_bit_9
	.globl	integer_bit_10
	.type	integer_bit_10, @function
integer_bit_10:
.LFB83:
	.cfi_startproc
	endbr64
	pushq	%r15
	.cfi_def_cfa_offset 16
	.cfi_offset 15, -16
	pushq	%r14
	.cfi_def_cfa_offset 24
	.cfi_offset 14, -24
	pushq	%r13
	.cfi_def_cfa_offset 32
	.cfi_offset 13, -32
	pushq	%r12
	.cfi_def_cfa_offset 40
	.cfi_offset 12, -40
	pushq	%rbp
	.cfi_def_cfa_offset 48
	.cfi_offset 6, -48
	pushq	%rbx
	.cfi_def_cfa_offset 56
	.cfi_offset 3, -56
	subq	$72, %rsp
	.cfi_def_cfa_offset 128
	movq	%rdi, 24(%rsp)
	movq	%rsi, %rax
	movl	12(%rsi), %r11d
	leal	1(%r11), %edi
	addl	$2, %r11d
	movl	16(%rsi), %r10d
	leal	1(%r10), %ebx
	movl	%ebx, 48(%rsp)
	addl	$3, %r10d
	movl	20(%rsi), %r9d
	leal	1(%r9), %ecx
	movl	%ecx, 52(%rsp)
	addl	$4, %r9d
	movl	24(%rsi), %r8d
	leal	1(%r8), %ebx
	movl	%ebx, 56(%rsp)
	addl	$5, %r8d
	movl	28(%rsi), %edx
	leal	1(%rdx), %ecx
	movl	%ecx, 60(%rsp)
	leal	6(%rdx), %ebx
	movl	%ebx, 12(%rsp)
	movl	32(%rsi), %edx
	leal	1(%rdx), %r15d
	leal	7(%rdx), %esi
	movl	%esi, 16(%rsp)
	movl	36(%rax), %edx
	leal	1(%rdx), %r14d
	leal	8(%rdx), %ecx
	movl	%ecx, 20(%rsp)
	movl	40(%rax), %edx
	leal	1(%rdx), %r13d
	leal	9(%rdx), %ebx
	movl	%ebx, 32(%rsp)
	movl	44(%rax), %esi
	leal	1(%rsi), %r12d
	addl	$10, %esi
	movl	48(%rax), %ecx
	leal	1(%rcx), %ebp
	addl	$11, %ecx
	movl	52(%rax), %edx
	leal	1(%rdx), %ebx
	addl	$12, %edx
	movq	24(%rsp), %rax
	subq	$1, %rax
	cmpq	$0, 24(%rsp)
	je	.L60
	movl	%r8d, 24(%rsp)
	movl	%esi, 36(%rsp)
	movl	%ecx, 40(%rsp)
	movl	%edx, 44(%rsp)
	movl	48(%rsp), %r8d
	movl	52(%rsp), %edx
	movl	56(%rsp), %ecx
	movl	60(%rsp), %esi
	jmp	.L61
.L62:
	movl	%ebx, 44(%rsp)
	movl	%ebp, 40(%rsp)
	movl	%r12d, 36(%rsp)
	movl	%r13d, 32(%rsp)
	movl	%r14d, 20(%rsp)
	movl	%r15d, 16(%rsp)
	movl	%esi, 12(%rsp)
	movl	%ecx, 24(%rsp)
	movl	%edx, %r9d
	movl	%r8d, %r10d
	movl	%edi, %r11d
.L61:
	orl	%r11d, %edi
	orl	%r10d, %r8d
	orl	%r9d, %edx
	orl	24(%rsp), %ecx
	orl	12(%rsp), %esi
	orl	16(%rsp), %r15d
	orl	20(%rsp), %r14d
	orl	32(%rsp), %r13d
	orl	36(%rsp), %r12d
	orl	40(%rsp), %ebp
	orl	44(%rsp), %ebx
	subq	$1, %rax
	cmpq	$-1, %rax
	jne	.L62
	movl	%r8d, 48(%rsp)
	movl	%edx, 52(%rsp)
	movl	%ecx, 56(%rsp)
	movl	%esi, 60(%rsp)
.L60:
	call	use_int@PLT
	movl	48(%rsp), %edi
	call	use_int@PLT
	movl	52(%rsp), %edi
	call	use_int@PLT
	movl	56(%rsp), %edi
	call	use_int@PLT
	movl	60(%rsp), %edi
	call	use_int@PLT
	movl	%r15d, %edi
	call	use_int@PLT
	movl	%r14d, %edi
	call	use_int@PLT
	movl	%r13d, %edi
	call	use_int@PLT
	movl	%r12d, %edi
	call	use_int@PLT
	movl	%ebp, %edi
	call	use_int@PLT
	movl	%ebx, %edi
	call	use_int@PLT
	addq	$72, %rsp
	.cfi_def_cfa_offset 56
	popq	%rbx
	.cfi_def_cfa_offset 48
	popq	%rbp
	.cfi_def_cfa_offset 40
	popq	%r12
	.cfi_def_cfa_offset 32
	popq	%r13
	.cfi_def_cfa_offset 24
	popq	%r14
	.cfi_def_cfa_offset 16
	popq	%r15
	.cfi_def_cfa_offset 8
	ret
	.cfi_endproc
.LFE83:
	.size	integer_bit_10, .-integer_bit_10
	.globl	integer_bit_11
	.type	integer_bit_11, @function
integer_bit_11:
.LFB84:
	.cfi_startproc
	endbr64
	pushq	%r15
	.cfi_def_cfa_offset 16
	.cfi_offset 15, -16
	pushq	%r14
	.cfi_def_cfa_offset 24
	.cfi_offset 14, -24
	pushq	%r13
	.cfi_def_cfa_offset 32
	.cfi_offset 13, -32
	pushq	%r12
	.cfi_def_cfa_offset 40
	.cfi_offset 12, -40
	pushq	%rbp
	.cfi_def_cfa_offset 48
	.cfi_offset 6, -48
	pushq	%rbx
	.cfi_def_cfa_offset 56
	.cfi_offset 3, -56
	subq	$72, %rsp
	.cfi_def_cfa_offset 128
	movq	%rdi, 16(%rsp)
	movq	%rsi, %rax
	movl	12(%rsi), %r11d
	leal	1(%r11), %edi
	addl	$2, %r11d
	movl	16(%rsi), %r10d
	leal	1(%r10), %ebx
	movl	%ebx, 44(%rsp)
	addl	$3, %r10d
	movl	20(%rsi), %r9d
	leal	1(%r9), %ecx
	movl	%ecx, 48(%rsp)
	addl	$4, %r9d
	movl	24(%rsi), %r8d
	leal	1(%r8), %ebx
	movl	%ebx, 52(%rsp)
	addl	$5, %r8d
	movl	28(%rsi), %esi
	leal	1(%rsi), %ecx
	movl	%ecx, 56(%rsp)
	addl	$6, %esi
	movl	32(%rax), %edx
	leal	1(%rdx), %ebx
	movl	%ebx, 60(%rsp)
	leal	7(%rdx), %ecx
	movl	%ecx, (%rsp)
	movl	36(%rax), %edx
	leal	1(%rdx), %r15d
	leal	8(%rdx), %ebx
	movl	%ebx, 4(%rsp)
	movl	40(%rax), %edx
	leal	1(%rdx), %r14d
	leal	9(%rdx), %ecx
	movl	%ecx, 8(%rsp)
	movl	44(%rax), %edx
	leal	1(%rdx), %r13d
	leal	10(%rdx), %ebx
	movl	%ebx, 12(%rsp)
	movl	48(%rax), %edx
	leal	1(%rdx), %r12d
	leal	11(%rdx), %ecx
	movl	%ecx, 24(%rsp)
	movl	52(%rax), %ecx
	leal	1(%rcx), %ebp
	addl	$12, %ecx
	movl	56(%rax), %edx
	leal	1(%rdx), %ebx
	addl	$13, %edx
	movq	16(%rsp), %rax
	subq	$1, %rax
	cmpq	$0, 16(%rsp)
	je	.L66
	movl	%r9d, 16(%rsp)
	movl	%r8d, 28(%rsp)
	movl	%esi, 32(%rsp)
	movl	%ecx, 36(%rsp)
	movl	%edx, 40(%rsp)
	movl	44(%rsp), %esi
	movl	48(%rsp), %r8d
	movl	52(%rsp), %r9d
	movl	56(%rsp), %edx
	movl	60(%rsp), %ecx
	jmp	.L67
.L68:
	movl	%ebx, 40(%rsp)
	movl	%ebp, 36(%rsp)
	movl	%r12d, 24(%rsp)
	movl	%r13d, 12(%rsp)
	movl	%r14d, 8(%rsp)
	movl	%r15d, 4(%rsp)
	movl	%ecx, (%rsp)
	movl	%edx, 32(%rsp)
	movl	%r9d, 28(%rsp)
	movl	%r8d, 16(%rsp)
	movl	%esi, %r10d
	movl	%edi, %r11d
.L67:
	orl	%r11d, %edi
	orl	%r10d, %esi
	orl	16(%rsp), %r8d
	orl	28(%rsp), %r9d
	orl	32(%rsp), %edx
	orl	(%rsp), %ecx
	orl	4(%rsp), %r15d
	orl	8(%rsp), %r14d
	orl	12(%rsp), %r13d
	orl	24(%rsp), %r12d
	orl	36(%rsp), %ebp
	orl	40(%rsp), %ebx
	subq	$1, %rax
	cmpq	$-1, %rax
	jne	.L68
	movl	%esi, 44(%rsp)
	movl	%r8d, 48(%rsp)
	movl	%r9d, 52(%rsp)
	movl	%edx, 56(%rsp)
	movl	%ecx, 60(%rsp)
.L66:
	call	use_int@PLT
	movl	44(%rsp), %edi
	call	use_int@PLT
	movl	48(%rsp), %edi
	call	use_int@PLT
	movl	52(%rsp), %edi
	call	use_int@PLT
	movl	56(%rsp), %edi
	call	use_int@PLT
	movl	60(%rsp), %edi
	call	use_int@PLT
	movl	%r15d, %edi
	call	use_int@PLT
	movl	%r14d, %edi
	call	use_int@PLT
	movl	%r13d, %edi
	call	use_int@PLT
	movl	%r12d, %edi
	call	use_int@PLT
	movl	%ebp, %edi
	call	use_int@PLT
	movl	%ebx, %edi
	call	use_int@PLT
	addq	$72, %rsp
	.cfi_def_cfa_offset 56
	popq	%rbx
	.cfi_def_cfa_offset 48
	popq	%rbp
	.cfi_def_cfa_offset 40
	popq	%r12
	.cfi_def_cfa_offset 32
	popq	%r13
	.cfi_def_cfa_offset 24
	popq	%r14
	.cfi_def_cfa_offset 16
	popq	%r15
	.cfi_def_cfa_offset 8
	ret
	.cfi_endproc
.LFE84:
	.size	integer_bit_11, .-integer_bit_11
	.globl	integer_bit_12
	.type	integer_bit_12, @function
integer_bit_12:
.LFB85:
	.cfi_startproc
	endbr64
	pushq	%r15
	.cfi_def_cfa_offset 16
	.cfi_offset 15, -16
	pushq	%r14
	.cfi_def_cfa_offset 24
	.cfi_offset 14, -24
	pushq	%r13
	.cfi_def_cfa_offset 32
	.cfi_offset 13, -32
	pushq	%r12
	.cfi_def_cfa_offset 40
	.cfi_offset 12, -40
	pushq	%rbp
	.cfi_def_cfa_offset 48
	.cfi_offset 6, -48
	pushq	%rbx
	.cfi_def_cfa_offset 56
	.cfi_offset 3, -56
	subq	$88, %rsp
	.cfi_def_cfa_offset 144
	movq	%rdi, 24(%rsp)
	movq	%rsi, %rax
	movl	12(%rsi), %r11d
	leal	1(%r11), %edi
	addl	$2, %r11d
	movl	16(%rsi), %r10d
	leal	1(%r10), %ebx
	movl	%ebx, 56(%rsp)
	addl	$3, %r10d
	movl	20(%rsi), %r9d
	leal	1(%r9), %ecx
	movl	%ecx, 60(%rsp)
	addl	$4, %r9d
	movl	24(%rsi), %r8d
	leal	1(%r8), %ebx
	movl	%ebx, 64(%rsp)
	addl	$5, %r8d
	movl	28(%rsi), %edx
	leal	1(%rdx), %ecx
	movl	%ecx, 68(%rsp)
	leal	6(%rdx), %ebx
	movl	%ebx, 4(%rsp)
	movl	32(%rsi), %edx
	leal	1(%rdx), %esi
	movl	%esi, 72(%rsp)
	leal	7(%rdx), %ecx
	movl	%ecx, 8(%rsp)
	movl	36(%rax), %edx
	leal	1(%rdx), %ebx
	movl	%ebx, 76(%rsp)
	leal	8(%rdx), %esi
	movl	%esi, 12(%rsp)
	movl	40(%rax), %edx
	leal	1(%rdx), %r15d
	leal	9(%rdx), %ecx
	movl	%ecx, 16(%rsp)
	movl	44(%rax), %edx
	leal	1(%rdx), %r14d
	leal	10(%rdx), %ebx
	movl	%ebx, 20(%rsp)
	movl	48(%rax), %edx
	leal	1(%rdx), %r13d
	leal	11(%rdx), %esi
	movl	%esi, 32(%rsp)
	movl	52(%rax), %esi
	leal	1(%rsi), %r12d
	addl	$12, %esi
	movl	56(%rax), %ecx
	leal	1(%rcx), %ebp
	addl	$13, %ecx
	movl	60(%rax), %edx
	leal	1(%rdx), %ebx
	addl	$14, %edx
	movq	24(%rsp), %rax
	subq	$1, %rax
	cmpq	$0, 24(%rsp)
	je	.L72
	movl	%r10d, 24(%rsp)
	movl	%r9d, 36(%rsp)
	movl	%r8d, 40(%rsp)
	movl	%esi, 44(%rsp)
	movl	%ecx, 48(%rsp)
	movl	%edx, 52(%rsp)
	movl	56(%rsp), %r8d
	movl	60(%rsp), %r9d
	movl	64(%rsp), %r10d
	movl	68(%rsp), %edx
	movl	72(%rsp), %ecx
	movl	76(%rsp), %esi
	jmp	.L73
.L74:
	movl	%ebx, 52(%rsp)
	movl	%ebp, 48(%rsp)
	movl	%r12d, 44(%rsp)
	movl	%r13d, 32(%rsp)
	movl	%r14d, 20(%rsp)
	movl	%r15d, 16(%rsp)
	movl	%esi, 12(%rsp)
	movl	%ecx, 8(%rsp)
	movl	%edx, 4(%rsp)
	movl	%r10d, 40(%rsp)
	movl	%r9d, 36(%rsp)
	movl	%r8d, 24(%rsp)
	movl	%edi, %r11d
.L73:
	orl	%r11d, %edi
	orl	24(%rsp), %r8d
	orl	36(%rsp), %r9d
	orl	40(%rsp), %r10d
	orl	4(%rsp), %edx
	orl	8(%rsp), %ecx
	orl	12(%rsp), %esi
	orl	16(%rsp), %r15d
	orl	20(%rsp), %r14d
	orl	32(%rsp), %r13d
	orl	44(%rsp), %r12d
	orl	48(%rsp), %ebp
	orl	52(%rsp), %ebx
	subq	$1, %rax
	cmpq	$-1, %rax
	jne	.L74
	movl	%r8d, 56(%rsp)
	movl	%r9d, 60(%rsp)
	movl	%r10d, 64(%rsp)
	movl	%edx, 68(%rsp)
	movl	%ecx, 72(%rsp)
	movl	%esi, 76(%rsp)
.L72:
	call	use_int@PLT
	movl	56(%rsp), %edi
	call	use_int@PLT
	movl	60(%rsp), %edi
	call	use_int@PLT
	movl	64(%rsp), %edi
	call	use_int@PLT
	movl	68(%rsp), %edi
	call	use_int@PLT
	movl	72(%rsp), %edi
	call	use_int@PLT
	movl	76(%rsp), %edi
	call	use_int@PLT
	movl	%r15d, %edi
	call	use_int@PLT
	movl	%r14d, %edi
	call	use_int@PLT
	movl	%r13d, %edi
	call	use_int@PLT
	movl	%r12d, %edi
	call	use_int@PLT
	movl	%ebp, %edi
	call	use_int@PLT
	movl	%ebx, %edi
	call	use_int@PLT
	addq	$88, %rsp
	.cfi_def_cfa_offset 56
	popq	%rbx
	.cfi_def_cfa_offset 48
	popq	%rbp
	.cfi_def_cfa_offset 40
	popq	%r12
	.cfi_def_cfa_offset 32
	popq	%r13
	.cfi_def_cfa_offset 24
	popq	%r14
	.cfi_def_cfa_offset 16
	popq	%r15
	.cfi_def_cfa_offset 8
	ret
	.cfi_endproc
.LFE85:
	.size	integer_bit_12, .-integer_bit_12
	.globl	integer_bit_13
	.type	integer_bit_13, @function
integer_bit_13:
.LFB86:
	.cfi_startproc
	endbr64
	pushq	%r15
	.cfi_def_cfa_offset 16
	.cfi_offset 15, -16
	pushq	%r14
	.cfi_def_cfa_offset 24
	.cfi_offset 14, -24
	pushq	%r13
	.cfi_def_cfa_offset 32
	.cfi_offset 13, -32
	pushq	%r12
	.cfi_def_cfa_offset 40
	.cfi_offset 12, -40
	pushq	%rbp
	.cfi_def_cfa_offset 48
	.cfi_offset 6, -48
	pushq	%rbx
	.cfi_def_cfa_offset 56
	.cfi_offset 3, -56
	subq	$104, %rsp
	.cfi_def_cfa_offset 160
	movq	%rdi, 32(%rsp)
	movq	%rsi, %rax
	movl	12(%rsi), %r11d
	leal	1(%r11), %edi
	addl	$2, %r11d
	movl	16(%rsi), %r10d
	leal	1(%r10), %ebx
	movl	%ebx, 68(%rsp)
	addl	$3, %r10d
	movl	20(%rsi), %r9d
	leal	1(%r9), %ecx
	movl	%ecx, 72(%rsp)
	addl	$4, %r9d
	movl	24(%rsi), %r8d
	leal	1(%r8), %ebx
	movl	%ebx, 76(%rsp)
	addl	$5, %r8d
	movl	28(%rsi), %edx
	leal	1(%rdx), %ecx
	movl	%ecx, 80(%rsp)
	leal	6(%rdx), %ebx
	movl	%ebx, 8(%rsp)
	movl	32(%rsi), %edx
	leal	1(%rdx), %esi
	movl	%esi, 84(%rsp)
	leal	7(%rdx), %ecx
	movl	%ecx, 12(%rsp)
	movl	36(%rax), %edx
	leal	1(%rdx), %ebx
	movl	%ebx, 88(%rsp)
	leal	8(%rdx), %esi
	movl	%esi, 16(%rsp)
	movl	40(%rax), %edx
	leal	1(%rdx), %ecx
	movl	%ecx, 92(%rsp)
	leal	9(%rdx), %ebx
	movl	%ebx, 20(%rsp)
	movl	44(%rax), %edx
	leal	1(%rdx), %r15d
	leal	10(%rdx), %esi
	movl	%esi, 24(%rsp)
	movl	48(%rax), %edx
	leal	1(%rdx), %r14d
	leal	11(%rdx), %ecx
	movl	%ecx, 28(%rsp)
	movl	52(%rax), %edx
	leal	1(%rdx), %r13d
	leal	12(%rdx), %ebx
	movl	%ebx, 40(%rsp)
	movl	56(%rax), %esi
	leal	1(%rsi), %r12d
	addl	$13, %esi
	movl	60(%rax), %ecx
	leal	1(%rcx), %ebp
	addl	$14, %ecx
	movl	64(%rax), %edx
	leal	1(%rdx), %ebx
	addl	$15, %edx
	movq	32(%rsp), %rax
	subq	$1, %rax
	cmpq	$0, 32(%rsp)
	je	.L78
	movl	%r11d, 32(%rsp)
	movl	%r10d, 44(%rsp)
	movl	%r9d, 48(%rsp)
	movl	%r8d, 52(%rsp)
	movl	%esi, 56(%rsp)
	movl	%ecx, 60(%rsp)
	movl	%edx, 64(%rsp)
	movl	68(%rsp), %r8d
	movl	72(%rsp), %r9d
	movl	76(%rsp), %r10d
	movl	80(%rsp), %r11d
	movl	84(%rsp), %edx
	movl	88(%rsp), %ecx
	movl	92(%rsp), %esi
	jmp	.L79
.L80:
	movl	%ebx, 64(%rsp)
	movl	%ebp, 60(%rsp)
	movl	%r12d, 56(%rsp)
	movl	%r13d, 40(%rsp)
	movl	%r14d, 28(%rsp)
	movl	%r15d, 24(%rsp)
	movl	%esi, 20(%rsp)
	movl	%ecx, 16(%rsp)
	movl	%edx, 12(%rsp)
	movl	%r11d, 8(%rsp)
	movl	%r10d, 52(%rsp)
	movl	%r9d, 48(%rsp)
	movl	%r8d, 44(%rsp)
	movl	%edi, 32(%rsp)
.L79:
	orl	32(%rsp), %edi
	orl	44(%rsp), %r8d
	orl	48(%rsp), %r9d
	orl	52(%rsp), %r10d
	orl	8(%rsp), %r11d
	orl	12(%rsp), %edx
	orl	16(%rsp), %ecx
	orl	20(%rsp), %esi
	orl	24(%rsp), %r15d
	orl	28(%rsp), %r14d
	orl	40(%rsp), %r13d
	orl	56(%rsp), %r12d
	orl	60(%rsp), %ebp
	orl	64(%rsp), %ebx
	subq	$1, %rax
	cmpq	$-1, %rax
	jne	.L80
	movl	%r8d, 68(%rsp)
	movl	%r9d, 72(%rsp)
	movl	%r10d, 76(%rsp)
	movl	%r11d, 80(%rsp)
	movl	%edx, 84(%rsp)
	movl	%ecx, 88(%rsp)
	movl	%esi, 92(%rsp)
.L78:
	call	use_int@PLT
	movl	68(%rsp), %edi
	call	use_int@PLT
	movl	72(%rsp), %edi
	call	use_int@PLT
	movl	76(%rsp), %edi
	call	use_int@PLT
	movl	80(%rsp), %edi
	call	use_int@PLT
	movl	84(%rsp), %edi
	call	use_int@PLT
	movl	88(%rsp), %edi
	call	use_int@PLT
	movl	92(%rsp), %edi
	call	use_int@PLT
	movl	%r15d, %edi
	call	use_int@PLT
	movl	%r14d, %edi
	call	use_int@PLT
	movl	%r13d, %edi
	call	use_int@PLT
	movl	%r12d, %edi
	call	use_int@PLT
	movl	%ebp, %edi
	call	use_int@PLT
	movl	%ebx, %edi
	call	use_int@PLT
	addq	$104, %rsp
	.cfi_def_cfa_offset 56
	popq	%rbx
	.cfi_def_cfa_offset 48
	popq	%rbp
	.cfi_def_cfa_offset 40
	popq	%r12
	.cfi_def_cfa_offset 32
	popq	%r13
	.cfi_def_cfa_offset 24
	popq	%r14
	.cfi_def_cfa_offset 16
	popq	%r15
	.cfi_def_cfa_offset 8
	ret
	.cfi_endproc
.LFE86:
	.size	integer_bit_13, .-integer_bit_13
	.globl	integer_bit_14
	.type	integer_bit_14, @function
integer_bit_14:
.LFB87:
	.cfi_startproc
	endbr64
	pushq	%r15
	.cfi_def_cfa_offset 16
	.cfi_offset 15, -16
	pushq	%r14
	.cfi_def_cfa_offset 24
	.cfi_offset 14, -24
	pushq	%r13
	.cfi_def_cfa_offset 32
	.cfi_offset 13, -32
	pushq	%r12
	.cfi_def_cfa_offset 40
	.cfi_offset 12, -40
	pushq	%rbp
	.cfi_def_cfa_offset 48
	.cfi_offset 6, -48
	pushq	%rbx
	.cfi_def_cfa_offset 56
	.cfi_offset 3, -56
	subq	$104, %rsp
	.cfi_def_cfa_offset 160
	movq	%rdi, 40(%rsp)
	movq	%rsi, %rax
	movl	12(%rsi), %r11d
	leal	1(%r11), %edi
	addl	$2, %r11d
	movl	16(%rsi), %r10d
	leal	1(%r10), %ebx
	movl	%ebx, 76(%rsp)
	addl	$3, %r10d
	movl	20(%rsi), %r9d
	leal	1(%r9), %ecx
	movl	%ecx, 80(%rsp)
	addl	$4, %r9d
	movl	24(%rsi), %r8d
	leal	1(%r8), %ebx
	movl	%ebx, 84(%rsp)
	addl	$5, %r8d
	movl	28(%rsi), %edx
	leal	1(%rdx), %ecx
	movl	%ecx, 88(%rsp)
	leal	6(%rdx), %ebx
	movl	%ebx, 12(%rsp)
	movl	32(%rsi), %edx
	leal	1(%rdx), %esi
	movl	%esi, (%rsp)
	leal	7(%rdx), %ecx
	movl	%ecx, 16(%rsp)
	movl	36(%rax), %edx
	leal	1(%rdx), %ebx
	movl	%ebx, 4(%rsp)
	leal	8(%rdx), %esi
	movl	%esi, 20(%rsp)
	movl	40(%rax), %edx
	leal	1(%rdx), %ecx
	movl	%ecx, 8(%rsp)
	leal	9(%rdx), %ebx
	movl	%ebx, 24(%rsp)
	movl	44(%rax), %edx
	leal	1(%rdx), %esi
	movl	%esi, 92(%rsp)
	leal	10(%rdx), %ecx
	movl	%ecx, 28(%rsp)
	movl	48(%rax), %edx
	leal	1(%rdx), %r15d
	leal	11(%rdx), %ebx
	movl	%ebx, 32(%rsp)
	movl	52(%rax), %edx
	leal	1(%rdx), %r14d
	leal	12(%rdx), %esi
	movl	%esi, 36(%rsp)
	movl	56(%rax), %edx
	leal	1(%rdx), %r13d
	leal	13(%rdx), %ecx
	movl	%ecx, 48(%rsp)
	movl	60(%rax), %esi
	leal	1(%rsi), %r12d
	addl	$14, %esi
	movl	64(%rax), %ecx
	leal	1(%rcx), %ebp
	addl	$15, %ecx
	movl	68(%rax), %edx
	leal	1(%rdx), %ebx
	addl	$16, %edx
	movq	40(%rsp), %rax
	subq	$1, %rax
	cmpq	$0, 40(%rsp)
	je	.L84
	movl	%r11d, 40(%rsp)
	movl	%r10d, 52(%rsp)
	movl	%r9d, 56(%rsp)
	movl	%r8d, 60(%rsp)
	movl	%esi, 64(%rsp)
	movl	%ecx, 68(%rsp)
	movl	%edx, 72(%rsp)
	movl	76(%rsp), %r8d
	movl	80(%rsp), %r9d
	movl	84(%rsp), %r10d
	movl	88(%rsp), %r11d
	movl	92(%rsp), %esi
	jmp	.L85
.L86:
	movl	%ebx, 72(%rsp)
	movl	%ebp, 68(%rsp)
	movl	%r12d, 64(%rsp)
	movl	%r13d, 48(%rsp)
	movl	%r14d, 36(%rsp)
	movl	%r15d, 32(%rsp)
	movl	%esi, 28(%rsp)
	movl	8(%rsp), %edx
	movl	%edx, 24(%rsp)
	movl	4(%rsp), %ecx
	movl	%ecx, 20(%rsp)
	movl	(%rsp), %edx
	movl	%edx, 16(%rsp)
	movl	%r11d, 12(%rsp)
	movl	%r10d, 60(%rsp)
	movl	%r9d, 56(%rsp)
	movl	%r8d, 52(%rsp)
	movl	%edi, 40(%rsp)
.L85:
	orl	40(%rsp), %edi
	orl	52(%rsp), %r8d
	orl	56(%rsp), %r9d
	orl	60(%rsp), %r10d
	orl	12(%rsp), %r11d
	movl	16(%rsp), %edx
	orl	%edx, (%rsp)
	movl	20(%rsp), %ecx
	orl	%ecx, 4(%rsp)
	movl	24(%rsp), %ecx
	orl	%ecx, 8(%rsp)
	orl	28(%rsp), %esi
	orl	32(%rsp), %r15d
	orl	36(%rsp), %r14d
	orl	48(%rsp), %r13d
	orl	64(%rsp), %r12d
	orl	68(%rsp), %ebp
	orl	72(%rsp), %ebx
	subq	$1, %rax
	cmpq	$-1, %rax
	jne	.L86
	movl	%r8d, 76(%rsp)
	movl	%r9d, 80(%rsp)
	movl	%r10d, 84(%rsp)
	movl	%r11d, 88(%rsp)
	movl	%esi, 92(%rsp)
.L84:
	call	use_int@PLT
	movl	76(%rsp), %edi
	call	use_int@PLT
	movl	80(%rsp), %edi
	call	use_int@PLT
	movl	84(%rsp), %edi
	call	use_int@PLT
	movl	88(%rsp), %edi
	call	use_int@PLT
	movl	(%rsp), %edi
	call	use_int@PLT
	movl	4(%rsp), %edi
	call	use_int@PLT
	movl	8(%rsp), %edi
	call	use_int@PLT
	movl	92(%rsp), %edi
	call	use_int@PLT
	movl	%r15d, %edi
	call	use_int@PLT
	movl	%r14d, %edi
	call	use_int@PLT
	movl	%r13d, %edi
	call	use_int@PLT
	movl	%r12d, %edi
	call	use_int@PLT
	movl	%ebp, %edi
	call	use_int@PLT
	movl	%ebx, %edi
	call	use_int@PLT
	addq	$104, %rsp
	.cfi_def_cfa_offset 56
	popq	%rbx
	.cfi_def_cfa_offset 48
	popq	%rbp
	.cfi_def_cfa_offset 40
	popq	%r12
	.cfi_def_cfa_offset 32
	popq	%r13
	.cfi_def_cfa_offset 24
	popq	%r14
	.cfi_def_cfa_offset 16
	popq	%r15
	.cfi_def_cfa_offset 8
	ret
	.cfi_endproc
.LFE87:
	.size	integer_bit_14, .-integer_bit_14
	.globl	integer_bit_15
	.type	integer_bit_15, @function
integer_bit_15:
.LFB88:
	.cfi_startproc
	endbr64
	pushq	%r15
	.cfi_def_cfa_offset 16
	.cfi_offset 15, -16
	pushq	%r14
	.cfi_def_cfa_offset 24
	.cfi_offset 14, -24
	pushq	%r13
	.cfi_def_cfa_offset 32
	.cfi_offset 13, -32
	pushq	%r12
	.cfi_def_cfa_offset 40
	.cfi_offset 12, -40
	pushq	%rbp
	.cfi_def_cfa_offset 48
	.cfi_offset 6, -48
	pushq	%rbx
	.cfi_def_cfa_offset 56
	.cfi_offset 3, -56
	subq	$120, %rsp
	.cfi_def_cfa_offset 176
	movq	%rdi, 56(%rsp)
	movq	%rsi, %rax
	movl	12(%rsi), %r11d
	leal	1(%r11), %edi
	addl	$2, %r11d
	movl	16(%rsi), %r10d
	leal	1(%r10), %ebx
	movl	%ebx, 92(%rsp)
	addl	$3, %r10d
	movl	20(%rsi), %r9d
	leal	1(%r9), %ecx
	movl	%ecx, 96(%rsp)
	addl	$4, %r9d
	movl	24(%rsi), %r8d
	leal	1(%r8), %ebx
	movl	%ebx, 100(%rsp)
	addl	$5, %r8d
	movl	28(%rsi), %edx
	leal	1(%rdx), %ecx
	movl	%ecx, 104(%rsp)
	leal	6(%rdx), %ebx
	movl	%ebx, 24(%rsp)
	movl	32(%rsi), %edx
	leal	1(%rdx), %esi
	movl	%esi, 8(%rsp)
	leal	7(%rdx), %ecx
	movl	%ecx, 28(%rsp)
	movl	36(%rax), %edx
	leal	1(%rdx), %ebx
	movl	%ebx, 12(%rsp)
	leal	8(%rdx), %esi
	movl	%esi, 32(%rsp)
	movl	40(%rax), %edx
	leal	1(%rdx), %ecx
	movl	%ecx, 16(%rsp)
	leal	9(%rdx), %ebx
	movl	%ebx, 36(%rsp)
	movl	44(%rax), %edx
	leal	1(%rdx), %esi
	movl	%esi, 20(%rsp)
	leal	10(%rdx), %ecx
	movl	%ecx, 40(%rsp)
	movl	48(%rax), %edx
	leal	1(%rdx), %ebx
	movl	%ebx, 108(%rsp)
	leal	11(%rdx), %esi
	movl	%esi, 44(%rsp)
	movl	52(%rax), %edx
	leal	1(%rdx), %r15d
	leal	12(%rdx), %ecx
	movl	%ecx, 48(%rsp)
	movl	56(%rax), %edx
	leal	1(%rdx), %r14d
	leal	13(%rdx), %ebx
	movl	%ebx, 52(%rsp)
	movl	60(%rax), %edx
	leal	1(%rdx), %r13d
	leal	14(%rdx), %esi
	movl	%esi, 64(%rsp)
	movl	64(%rax), %esi
	leal	1(%rsi), %r12d
	addl	$15, %esi
	movl	68(%rax), %ecx
	leal	1(%rcx), %ebp
	addl	$16, %ecx
	movl	72(%rax), %edx
	leal	1(%rdx), %ebx
	addl	$17, %edx
	movq	56(%rsp), %rax
	subq	$1, %rax
	cmpq	$0, 56(%rsp)
	je	.L90
	movl	%r11d, 56(%rsp)
	movl	%r10d, 68(%rsp)
	movl	%r9d, 72(%rsp)
	movl	%r8d, 76(%rsp)
	movl	%esi, 80(%rsp)
	movl	%ecx, 84(%rsp)
	movl	%edx, 88(%rsp)
	movl	92(%rsp), %r8d
	movl	96(%rsp), %r9d
	movl	100(%rsp), %r10d
	movl	104(%rsp), %r11d
	movl	108(%rsp), %esi
	jmp	.L91
.L92:
	movl	%ebx, 88(%rsp)
	movl	%ebp, 84(%rsp)
	movl	%r12d, 80(%rsp)
	movl	%r13d, 64(%rsp)
	movl	%r14d, 52(%rsp)
	movl	%r15d, 48(%rsp)
	movl	%esi, 44(%rsp)
	movl	20(%rsp), %ecx
	movl	%ecx, 40(%rsp)
	movl	16(%rsp), %ecx
	movl	%ecx, 36(%rsp)
	movl	12(%rsp), %edx
	movl	%edx, 32(%rsp)
	movl	8(%rsp), %edx
	movl	%edx, 28(%rsp)
	movl	%r11d, 24(%rsp)
	movl	%r10d, 76(%rsp)
	movl	%r9d, 72(%rsp)
	movl	%r8d, 68(%rsp)
	movl	%edi, 56(%rsp)
.L91:
	orl	56(%rsp), %edi
	orl	68(%rsp), %r8d
	orl	72(%rsp), %r9d
	orl	76(%rsp), %r10d
	orl	24(%rsp), %r11d
	movl	28(%rsp), %edx
	orl	%edx, 8(%rsp)
	movl	32(%rsp), %edx
	orl	%edx, 12(%rsp)
	movl	36(%rsp), %ecx
	orl	%ecx, 16(%rsp)
	movl	40(%rsp), %ecx
	orl	%ecx, 20(%rsp)
	orl	44(%rsp), %esi
	orl	48(%rsp), %r15d
	orl	52(%rsp), %r14d
	orl	64(%rsp), %r13d
	orl	80(%rsp), %r12d
	orl	84(%rsp), %ebp
	orl	88(%rsp), %ebx
	subq	$1, %rax
	cmpq	$-1, %rax
	jne	.L92
	movl	%r8d, 92(%rsp)
	movl	%r9d, 96(%rsp)
	movl	%r10d, 100(%rsp)
	movl	%r11d, 104(%rsp)
	movl	%esi, 108(%rsp)
.L90:
	call	use_int@PLT
	movl	92(%rsp), %edi
	call	use_int@PLT
	movl	96(%rsp), %edi
	call	use_int@PLT
	movl	100(%rsp), %edi
	call	use_int@PLT
	movl	104(%rsp), %edi
	call	use_int@PLT
	movl	8(%rsp), %edi
	call	use_int@PLT
	movl	12(%rsp), %edi
	call	use_int@PLT
	movl	16(%rsp), %edi
	call	use_int@PLT
	movl	20(%rsp), %edi
	call	use_int@PLT
	movl	108(%rsp), %edi
	call	use_int@PLT
	movl	%r15d, %edi
	call	use_int@PLT
	movl	%r14d, %edi
	call	use_int@PLT
	movl	%r13d, %edi
	call	use_int@PLT
	movl	%r12d, %edi
	call	use_int@PLT
	movl	%ebp, %edi
	call	use_int@PLT
	movl	%ebx, %edi
	call	use_int@PLT
	addq	$120, %rsp
	.cfi_def_cfa_offset 56
	popq	%rbx
	.cfi_def_cfa_offset 48
	popq	%rbp
	.cfi_def_cfa_offset 40
	popq	%r12
	.cfi_def_cfa_offset 32
	popq	%r13
	.cfi_def_cfa_offset 24
	popq	%r14
	.cfi_def_cfa_offset 16
	popq	%r15
	.cfi_def_cfa_offset 8
	ret
	.cfi_endproc
.LFE88:
	.size	integer_bit_15, .-integer_bit_15
	.globl	integer_add_0
	.type	integer_add_0, @function
integer_add_0:
.LFB89:
	.cfi_startproc
	endbr64
	subq	$8, %rsp
	.cfi_def_cfa_offset 16
	movl	12(%rsi), %edx
	leal	57(%rdx), %eax
	addl	$31, %edx
	leaq	-1(%rdi), %rcx
	testq	%rdi, %rdi
	je	.L96
.L97:
	movl	%edx, %esi
	movl	%eax, %edx
	negl	%eax
	subl	%esi, %eax
	subq	$1, %rcx
	cmpq	$-1, %rcx
	jne	.L97
.L96:
	leal	(%rax,%rdx), %edi
	call	use_int@PLT
	addq	$8, %rsp
	.cfi_def_cfa_offset 8
	ret
	.cfi_endproc
.LFE89:
	.size	integer_add_0, .-integer_add_0
	.globl	integer_add_1
	.type	integer_add_1, @function
integer_add_1:
.LFB90:
	.cfi_startproc
	endbr64
	pushq	%rbp
	.cfi_def_cfa_offset 16
	.cfi_offset 6, -16
	pushq	%rbx
	.cfi_def_cfa_offset 24
	.cfi_offset 3, -24
	subq	$8, %rsp
	.cfi_def_cfa_offset 32
	movl	12(%rsi), %edx
	leal	57(%rdx), %eax
	addl	$31, %edx
	movl	16(%rsi), %ebp
	leal	57(%rbp), %ebx
	addl	$31, %ebp
	leaq	-1(%rdi), %rcx
	testq	%rdi, %rdi
	je	.L101
.L102:
	movl	%edx, %edi
	movl	%eax, %edx
	movl	%ebp, %esi
	movl	%ebx, %ebp
	negl	%eax
	subl	%edi, %eax
	negl	%ebx
	subl	%esi, %ebx
	subq	$1, %rcx
	cmpq	$-1, %rcx
	jne	.L102
.L101:
	leal	(%rax,%rdx), %edi
	call	use_int@PLT
	leal	(%rbx,%rbp), %edi
	call	use_int@PLT
	addq	$8, %rsp
	.cfi_def_cfa_offset 24
	popq	%rbx
	.cfi_def_cfa_offset 16
	popq	%rbp
	.cfi_def_cfa_offset 8
	ret
	.cfi_endproc
.LFE90:
	.size	integer_add_1, .-integer_add_1
	.globl	integer_add_2
	.type	integer_add_2, @function
integer_add_2:
.LFB91:
	.cfi_startproc
	endbr64
	pushq	%r13
	.cfi_def_cfa_offset 16
	.cfi_offset 13, -16
	pushq	%r12
	.cfi_def_cfa_offset 24
	.cfi_offset 12, -24
	pushq	%rbp
	.cfi_def_cfa_offset 32
	.cfi_offset 6, -32
	pushq	%rbx
	.cfi_def_cfa_offset 40
	.cfi_offset 3, -40
	subq	$8, %rsp
	.cfi_def_cfa_offset 48
	movl	12(%rsi), %r9d
	leal	57(%r9), %eax
	addl	$31, %r9d
	movl	16(%rsi), %r13d
	leal	57(%r13), %ebp
	addl	$31, %r13d
	movl	20(%rsi), %r12d
	leal	57(%r12), %ebx
	addl	$31, %r12d
	leaq	-1(%rdi), %rdx
	testq	%rdi, %rdi
	je	.L106
.L107:
	movl	%r9d, %r8d
	movl	%eax, %r9d
	movl	%r13d, %esi
	movl	%ebp, %r13d
	movl	%r12d, %ecx
	movl	%ebx, %r12d
	negl	%eax
	subl	%r8d, %eax
	negl	%ebp
	subl	%esi, %ebp
	negl	%ebx
	subl	%ecx, %ebx
	subq	$1, %rdx
	cmpq	$-1, %rdx
	jne	.L107
.L106:
	leal	(%rax,%r9), %edi
	call	use_int@PLT
	leal	0(%rbp,%r13), %edi
	call	use_int@PLT
	leal	(%rbx,%r12), %edi
	call	use_int@PLT
	addq	$8, %rsp
	.cfi_def_cfa_offset 40
	popq	%rbx
	.cfi_def_cfa_offset 32
	popq	%rbp
	.cfi_def_cfa_offset 24
	popq	%r12
	.cfi_def_cfa_offset 16
	popq	%r13
	.cfi_def_cfa_offset 8
	ret
	.cfi_endproc
.LFE91:
	.size	integer_add_2, .-integer_add_2
	.globl	integer_add_3
	.type	integer_add_3, @function
integer_add_3:
.LFB92:
	.cfi_startproc
	endbr64
	pushq	%r15
	.cfi_def_cfa_offset 16
	.cfi_offset 15, -16
	pushq	%r14
	.cfi_def_cfa_offset 24
	.cfi_offset 14, -24
	pushq	%r13
	.cfi_def_cfa_offset 32
	.cfi_offset 13, -32
	pushq	%r12
	.cfi_def_cfa_offset 40
	.cfi_offset 12, -40
	pushq	%rbp
	.cfi_def_cfa_offset 48
	.cfi_offset 6, -48
	pushq	%rbx
	.cfi_def_cfa_offset 56
	.cfi_offset 3, -56
	subq	$8, %rsp
	.cfi_def_cfa_offset 64
	movl	12(%rsi), %edx
	leal	57(%rdx), %eax
	addl	$31, %edx
	movl	16(%rsi), %r15d
	leal	57(%r15), %r12d
	addl	$31, %r15d
	movl	20(%rsi), %r14d
	leal	57(%r14), %ebp
	addl	$31, %r14d
	movl	24(%rsi), %r13d
	leal	57(%r13), %ebx
	addl	$31, %r13d
	leaq	-1(%rdi), %rcx
	testq	%rdi, %rdi
	je	.L111
.L112:
	movl	%edx, %r10d
	movl	%eax, %edx
	movl	%r15d, %r9d
	movl	%r12d, %r15d
	movl	%r14d, %r8d
	movl	%ebp, %r14d
	movl	%r13d, %esi
	movl	%ebx, %r13d
	negl	%eax
	subl	%r10d, %eax
	negl	%r12d
	subl	%r9d, %r12d
	negl	%ebp
	subl	%r8d, %ebp
	negl	%ebx
	subl	%esi, %ebx
	subq	$1, %rcx
	cmpq	$-1, %rcx
	jne	.L112
.L111:
	leal	(%rax,%rdx), %edi
	call	use_int@PLT
	leal	(%r12,%r15), %edi
	call	use_int@PLT
	leal	0(%rbp,%r14), %edi
	call	use_int@PLT
	leal	(%rbx,%r13), %edi
	call	use_int@PLT
	addq	$8, %rsp
	.cfi_def_cfa_offset 56
	popq	%rbx
	.cfi_def_cfa_offset 48
	popq	%rbp
	.cfi_def_cfa_offset 40
	popq	%r12
	.cfi_def_cfa_offset 32
	popq	%r13
	.cfi_def_cfa_offset 24
	popq	%r14
	.cfi_def_cfa_offset 16
	popq	%r15
	.cfi_def_cfa_offset 8
	ret
	.cfi_endproc
.LFE92:
	.size	integer_add_3, .-integer_add_3
	.globl	integer_add_4
	.type	integer_add_4, @function
integer_add_4:
.LFB93:
	.cfi_startproc
	endbr64
	pushq	%r15
	.cfi_def_cfa_offset 16
	.cfi_offset 15, -16
	pushq	%r14
	.cfi_def_cfa_offset 24
	.cfi_offset 14, -24
	pushq	%r13
	.cfi_def_cfa_offset 32
	.cfi_offset 13, -32
	pushq	%r12
	.cfi_def_cfa_offset 40
	.cfi_offset 12, -40
	pushq	%rbp
	.cfi_def_cfa_offset 48
	.cfi_offset 6, -48
	pushq	%rbx
	.cfi_def_cfa_offset 56
	.cfi_offset 3, -56
	subq	$24, %rsp
	.cfi_def_cfa_offset 80
	movl	12(%rsi), %edx
	leal	57(%rdx), %eax
	addl	$31, %edx
	movl	16(%rsi), %r15d
	leal	57(%r15), %ebp
	addl	$31, %r15d
	movl	20(%rsi), %r14d
	leal	57(%r14), %ebx
	addl	$31, %r14d
	movl	24(%rsi), %r13d
	leal	57(%r13), %ecx
	movl	%ecx, 8(%rsp)
	addl	$31, %r13d
	movl	28(%rsi), %r12d
	leal	57(%r12), %ecx
	movl	%ecx, 12(%rsp)
	addl	$31, %r12d
	leaq	-1(%rdi), %rcx
	testq	%rdi, %rdi
	je	.L116
.L117:
	movl	%edx, %r11d
	movl	%eax, %edx
	movl	%r15d, %r10d
	movl	%ebp, %r15d
	movl	%r14d, %r9d
	movl	%ebx, %r14d
	movl	%r13d, %r8d
	movl	8(%rsp), %r13d
	movl	%r12d, %esi
	movl	12(%rsp), %r12d
	negl	%eax
	subl	%r11d, %eax
	negl	%ebp
	subl	%r10d, %ebp
	negl	%ebx
	subl	%r9d, %ebx
	movl	%r13d, %edi
	negl	%edi
	subl	%r8d, %edi
	movl	%edi, 8(%rsp)
	movl	%r12d, %edi
	negl	%edi
	subl	%esi, %edi
	movl	%edi, 12(%rsp)
	subq	$1, %rcx
	cmpq	$-1, %rcx
	jne	.L117
.L116:
	leal	(%rax,%rdx), %edi
	call	use_int@PLT
	leal	0(%rbp,%r15), %edi
	call	use_int@PLT
	leal	(%rbx,%r14), %edi
	call	use_int@PLT
	movl	8(%rsp), %edi
	addl	%r13d, %edi
	call	use_int@PLT
	movl	12(%rsp), %edi
	addl	%r12d, %edi
	call	use_int@PLT
	addq	$24, %rsp
	.cfi_def_cfa_offset 56
	popq	%rbx
	.cfi_def_cfa_offset 48
	popq	%rbp
	.cfi_def_cfa_offset 40
	popq	%r12
	.cfi_def_cfa_offset 32
	popq	%r13
	.cfi_def_cfa_offset 24
	popq	%r14
	.cfi_def_cfa_offset 16
	popq	%r15
	.cfi_def_cfa_offset 8
	ret
	.cfi_endproc
.LFE93:
	.size	integer_add_4, .-integer_add_4
	.globl	integer_add_5
	.type	integer_add_5, @function
integer_add_5:
.LFB94:
	.cfi_startproc
	endbr64
	pushq	%r15
	.cfi_def_cfa_offset 16
	.cfi_offset 15, -16
	pushq	%r14
	.cfi_def_cfa_offset 24
	.cfi_offset 14, -24
	pushq	%r13
	.cfi_def_cfa_offset 32
	.cfi_offset 13, -32
	pushq	%r12
	.cfi_def_cfa_offset 40
	.cfi_offset 12, -40
	pushq	%rbp
	.cfi_def_cfa_offset 48
	.cfi_offset 6, -48
	pushq	%rbx
	.cfi_def_cfa_offset 56
	.cfi_offset 3, -56
	subq	$24, %rsp
	.cfi_def_cfa_offset 80
	movl	12(%rsi), %edx
	leal	57(%rdx), %eax
	addl	$31, %edx
	movl	16(%rsi), %r15d
	leal	57(%r15), %ebx
	addl	$31, %r15d
	movl	20(%rsi), %r14d
	leal	57(%r14), %ecx
	movl	%ecx, (%rsp)
	addl	$31, %r14d
	movl	24(%rsi), %r13d
	leal	57(%r13), %ecx
	movl	%ecx, 4(%rsp)
	addl	$31, %r13d
	movl	28(%rsi), %r12d
	leal	57(%r12), %ecx
	movl	%ecx, 8(%rsp)
	addl	$31, %r12d
	movl	32(%rsi), %ebp
	leal	57(%rbp), %ecx
	movl	%ecx, 12(%rsp)
	addl	$31, %ebp
	leaq	-1(%rdi), %rcx
	testq	%rdi, %rdi
	je	.L121
.L122:
	movl	%edx, %edi
	movl	%eax, %edx
	movl	%r15d, %r11d
	movl	%ebx, %r15d
	movl	%r14d, %r10d
	movl	(%rsp), %r14d
	movl	%r13d, %r9d
	movl	4(%rsp), %r13d
	movl	%r12d, %r8d
	movl	8(%rsp), %r12d
	movl	%ebp, %esi
	movl	12(%rsp), %ebp
	negl	%eax
	subl	%edi, %eax
	negl	%ebx
	subl	%r11d, %ebx
	movl	%r14d, %edi
	negl	%edi
	subl	%r10d, %edi
	movl	%edi, (%rsp)
	movl	%r13d, %edi
	negl	%edi
	subl	%r9d, %edi
	movl	%edi, 4(%rsp)
	movl	%r12d, %edi
	negl	%edi
	subl	%r8d, %edi
	movl	%edi, 8(%rsp)
	movl	%ebp, %edi
	negl	%edi
	subl	%esi, %edi
	movl	%edi, 12(%rsp)
	subq	$1, %rcx
	cmpq	$-1, %rcx
	jne	.L122
.L121:
	leal	(%rax,%rdx), %edi
	call	use_int@PLT
	leal	(%rbx,%r15), %edi
	call	use_int@PLT
	movl	(%rsp), %edi
	addl	%r14d, %edi
	call	use_int@PLT
	movl	4(%rsp), %edi
	addl	%r13d, %edi
	call	use_int@PLT
	movl	8(%rsp), %edi
	addl	%r12d, %edi
	call	use_int@PLT
	movl	12(%rsp), %edi
	addl	%ebp, %edi
	call	use_int@PLT
	addq	$24, %rsp
	.cfi_def_cfa_offset 56
	popq	%rbx
	.cfi_def_cfa_offset 48
	popq	%rbp
	.cfi_def_cfa_offset 40
	popq	%r12
	.cfi_def_cfa_offset 32
	popq	%r13
	.cfi_def_cfa_offset 24
	popq	%r14
	.cfi_def_cfa_offset 16
	popq	%r15
	.cfi_def_cfa_offset 8
	ret
	.cfi_endproc
.LFE94:
	.size	integer_add_5, .-integer_add_5
	.globl	integer_add_6
	.type	integer_add_6, @function
integer_add_6:
.LFB95:
	.cfi_startproc
	endbr64
	pushq	%r15
	.cfi_def_cfa_offset 16
	.cfi_offset 15, -16
	pushq	%r14
	.cfi_def_cfa_offset 24
	.cfi_offset 14, -24
	pushq	%r13
	.cfi_def_cfa_offset 32
	.cfi_offset 13, -32
	pushq	%r12
	.cfi_def_cfa_offset 40
	.cfi_offset 12, -40
	pushq	%rbp
	.cfi_def_cfa_offset 48
	.cfi_offset 6, -48
	pushq	%rbx
	.cfi_def_cfa_offset 56
	.cfi_offset 3, -56
	subq	$40, %rsp
	.cfi_def_cfa_offset 96
	movq	%rdi, %rcx
	movq	%rsi, %rdx
	movl	12(%rsi), %esi
	leal	57(%rsi), %eax
	leal	31(%rsi), %edi
	movl	16(%rdx), %esi
	leal	57(%rsi), %r15d
	leal	31(%rsi), %r11d
	movl	%r11d, 12(%rsp)
	movl	20(%rdx), %esi
	leal	57(%rsi), %r14d
	leal	31(%rsi), %r8d
	movl	%r8d, 16(%rsp)
	movl	24(%rdx), %esi
	leal	57(%rsi), %r13d
	leal	31(%rsi), %r9d
	movl	%r9d, 20(%rsp)
	movl	28(%rdx), %esi
	leal	57(%rsi), %r12d
	leal	31(%rsi), %r10d
	movl	%r10d, 24(%rsp)
	movl	32(%rdx), %esi
	leal	57(%rsi), %ebp
	addl	$31, %esi
	movl	%esi, 4(%rsp)
	movl	36(%rdx), %edx
	leal	57(%rdx), %ebx
	addl	$31, %edx
	movl	%edx, 8(%rsp)
	testq	%rcx, %rcx
	je	.L126
	leaq	-1(%rcx), %rdx
	movl	%r8d, %ecx
	movl	%r9d, %esi
	movl	%r10d, %r8d
	movl	4(%rsp), %r9d
	movl	8(%rsp), %r10d
.L127:
	movl	%edi, 4(%rsp)
	movl	%eax, %edi
	movl	%r11d, 8(%rsp)
	movl	%r15d, %r11d
	movl	%ecx, 12(%rsp)
	movl	%r14d, %ecx
	movl	%esi, 16(%rsp)
	movl	%r13d, %esi
	movl	%r8d, 20(%rsp)
	movl	%r12d, %r8d
	movl	%r9d, 24(%rsp)
	movl	%ebp, %r9d
	movl	%r10d, 28(%rsp)
	movl	%ebx, %r10d
	negl	%eax
	subl	4(%rsp), %eax
	negl	%r15d
	subl	8(%rsp), %r15d
	negl	%r14d
	subl	12(%rsp), %r14d
	negl	%r13d
	subl	16(%rsp), %r13d
	negl	%r12d
	subl	20(%rsp), %r12d
	negl	%ebp
	subl	24(%rsp), %ebp
	negl	%ebx
	subl	28(%rsp), %ebx
	subq	$1, %rdx
	cmpq	$-1, %rdx
	jne	.L127
	movl	%r11d, 12(%rsp)
	movl	%ecx, 16(%rsp)
	movl	%esi, 20(%rsp)
	movl	%r8d, 24(%rsp)
	movl	%r9d, 4(%rsp)
	movl	%r10d, 8(%rsp)
.L126:
	addl	%eax, %edi
	call	use_int@PLT
	movl	12(%rsp), %edi
	addl	%r15d, %edi
	call	use_int@PLT
	movl	16(%rsp), %edi
	addl	%r14d, %edi
	call	use_int@PLT
	movl	20(%rsp), %edi
	addl	%r13d, %edi
	call	use_int@PLT
	movl	24(%rsp), %edi
	addl	%r12d, %edi
	call	use_int@PLT
	movl	4(%rsp), %edi
	addl	%ebp, %edi
	call	use_int@PLT
	movl	8(%rsp), %edi
	addl	%ebx, %edi
	call	use_int@PLT
	addq	$40, %rsp
	.cfi_def_cfa_offset 56
	popq	%rbx
	.cfi_def_cfa_offset 48
	popq	%rbp
	.cfi_def_cfa_offset 40
	popq	%r12
	.cfi_def_cfa_offset 32
	popq	%r13
	.cfi_def_cfa_offset 24
	popq	%r14
	.cfi_def_cfa_offset 16
	popq	%r15
	.cfi_def_cfa_offset 8
	ret
	.cfi_endproc
.LFE95:
	.size	integer_add_6, .-integer_add_6
	.globl	integer_add_7
	.type	integer_add_7, @function
integer_add_7:
.LFB96:
	.cfi_startproc
	endbr64
	pushq	%r15
	.cfi_def_cfa_offset 16
	.cfi_offset 15, -16
	pushq	%r14
	.cfi_def_cfa_offset 24
	.cfi_offset 14, -24
	pushq	%r13
	.cfi_def_cfa_offset 32
	.cfi_offset 13, -32
	pushq	%r12
	.cfi_def_cfa_offset 40
	.cfi_offset 12, -40
	pushq	%rbp
	.cfi_def_cfa_offset 48
	.cfi_offset 6, -48
	pushq	%rbx
	.cfi_def_cfa_offset 56
	.cfi_offset 3, -56
	subq	$56, %rsp
	.cfi_def_cfa_offset 112
	movq	%rdi, %rdx
	movq	%rsi, %rax
	movl	12(%rsi), %ecx
	leal	57(%rcx), %esi
	leal	31(%rcx), %edi
	movl	16(%rax), %ecx
	leal	57(%rcx), %ebx
	movl	%ebx, 8(%rsp)
	leal	31(%rcx), %r8d
	movl	%r8d, 24(%rsp)
	movl	20(%rax), %ecx
	leal	57(%rcx), %ebx
	movl	%ebx, 12(%rsp)
	leal	31(%rcx), %r9d
	movl	%r9d, 28(%rsp)
	movl	24(%rax), %ecx
	leal	57(%rcx), %ebx
	movl	%ebx, 20(%rsp)
	leal	31(%rcx), %r10d
	movl	%r10d, 32(%rsp)
	movl	28(%rax), %ecx
	leal	57(%rcx), %r13d
	leal	31(%rcx), %r11d
	movl	%r11d, 36(%rsp)
	movl	32(%rax), %ecx
	leal	57(%rcx), %r12d
	addl	$31, %ecx
	movl	%ecx, 16(%rsp)
	movl	36(%rax), %r15d
	leal	57(%r15), %ebp
	addl	$31, %r15d
	movl	40(%rax), %r14d
	leal	57(%r14), %ebx
	addl	$31, %r14d
	testq	%rdx, %rdx
	je	.L131
	leaq	-1(%rdx), %rax
	movl	%r8d, %ecx
	movl	%r9d, %r8d
	movl	%r10d, %r9d
	movl	%r11d, %r10d
	movl	16(%rsp), %r11d
	movl	20(%rsp), %edx
.L132:
	movl	%edi, 16(%rsp)
	movl	%esi, %edi
	movl	%ecx, 20(%rsp)
	movl	8(%rsp), %ecx
	movl	%r8d, 24(%rsp)
	movl	12(%rsp), %r8d
	movl	%r9d, 28(%rsp)
	movl	%edx, %r9d
	movl	%r10d, 32(%rsp)
	movl	%r13d, %r10d
	movl	%r11d, 36(%rsp)
	movl	%r12d, %r11d
	movl	%r15d, 40(%rsp)
	movl	%ebp, %r15d
	movl	%r14d, 44(%rsp)
	movl	%ebx, %r14d
	negl	%esi
	subl	16(%rsp), %esi
	movl	%ecx, %edx
	negl	%edx
	subl	20(%rsp), %edx
	movl	%edx, 8(%rsp)
	movl	%r8d, %edx
	negl	%edx
	subl	24(%rsp), %edx
	movl	%edx, 12(%rsp)
	movl	%r9d, %edx
	negl	%edx
	subl	28(%rsp), %edx
	negl	%r13d
	subl	32(%rsp), %r13d
	negl	%r12d
	subl	36(%rsp), %r12d
	negl	%ebp
	subl	40(%rsp), %ebp
	negl	%ebx
	subl	44(%rsp), %ebx
	subq	$1, %rax
	cmpq	$-1, %rax
	jne	.L132
	movl	%ecx, 24(%rsp)
	movl	%r8d, 28(%rsp)
	movl	%r9d, 32(%rsp)
	movl	%r10d, 36(%rsp)
	movl	%r11d, 16(%rsp)
	movl	%edx, 20(%rsp)
.L131:
	addl	%esi, %edi
	call	use_int@PLT
	movl	8(%rsp), %edi
	addl	24(%rsp), %edi
	call	use_int@PLT
	movl	12(%rsp), %edi
	addl	28(%rsp), %edi
	call	use_int@PLT
	movl	20(%rsp), %edi
	addl	32(%rsp), %edi
	call	use_int@PLT
	movl	36(%rsp), %edi
	addl	%r13d, %edi
	call	use_int@PLT
	movl	16(%rsp), %edi
	addl	%r12d, %edi
	call	use_int@PLT
	leal	0(%rbp,%r15), %edi
	call	use_int@PLT
	leal	(%rbx,%r14), %edi
	call	use_int@PLT
	addq	$56, %rsp
	.cfi_def_cfa_offset 56
	popq	%rbx
	.cfi_def_cfa_offset 48
	popq	%rbp
	.cfi_def_cfa_offset 40
	popq	%r12
	.cfi_def_cfa_offset 32
	popq	%r13
	.cfi_def_cfa_offset 24
	popq	%r14
	.cfi_def_cfa_offset 16
	popq	%r15
	.cfi_def_cfa_offset 8
	ret
	.cfi_endproc
.LFE96:
	.size	integer_add_7, .-integer_add_7
	.globl	integer_add_8
	.type	integer_add_8, @function
integer_add_8:
.LFB97:
	.cfi_startproc
	endbr64
	pushq	%r15
	.cfi_def_cfa_offset 16
	.cfi_offset 15, -16
	pushq	%r14
	.cfi_def_cfa_offset 24
	.cfi_offset 14, -24
	pushq	%r13
	.cfi_def_cfa_offset 32
	.cfi_offset 13, -32
	pushq	%r12
	.cfi_def_cfa_offset 40
	.cfi_offset 12, -40
	pushq	%rbp
	.cfi_def_cfa_offset 48
	.cfi_offset 6, -48
	pushq	%rbx
	.cfi_def_cfa_offset 56
	.cfi_offset 3, -56
	subq	$72, %rsp
	.cfi_def_cfa_offset 128
	movq	%rdi, %rdx
	movq	%rsi, %rax
	movl	12(%rsi), %ecx
	leal	57(%rcx), %esi
	leal	31(%rcx), %edi
	movl	16(%rax), %ecx
	leal	57(%rcx), %ebx
	movl	%ebx, 16(%rsp)
	addl	$31, %ecx
	movl	%ecx, 12(%rsp)
	movl	20(%rax), %ecx
	leal	57(%rcx), %ebx
	movl	%ebx, 20(%rsp)
	leal	31(%rcx), %r8d
	movl	%r8d, 36(%rsp)
	movl	24(%rax), %ecx
	leal	57(%rcx), %ebx
	movl	%ebx, 24(%rsp)
	leal	31(%rcx), %r9d
	movl	%r9d, 40(%rsp)
	movl	28(%rax), %ecx
	leal	57(%rcx), %ebx
	movl	%ebx, 32(%rsp)
	leal	31(%rcx), %r10d
	movl	%r10d, 44(%rsp)
	movl	32(%rax), %ecx
	leal	57(%rcx), %r13d
	leal	31(%rcx), %r11d
	movl	%r11d, 48(%rsp)
	movl	36(%rax), %ecx
	leal	57(%rcx), %r12d
	addl	$31, %ecx
	movl	%ecx, 28(%rsp)
	movl	40(%rax), %ecx
	leal	57(%rcx), %ebp
	leal	31(%rcx), %r15d
	movl	44(%rax), %r14d
	leal	57(%r14), %ebx
	addl	$31, %r14d
	testq	%rdx, %rdx
	je	.L136
	leaq	-1(%rdx), %rax
	movl	%r8d, %ecx
	movl	%r9d, %r8d
	movl	%r10d, %r9d
	movl	%r11d, %r10d
	movl	28(%rsp), %r11d
	movl	32(%rsp), %edx
.L137:
	movl	%edi, 28(%rsp)
	movl	%esi, %edi
	movl	12(%rsp), %esi
	movl	%esi, 32(%rsp)
	movl	16(%rsp), %esi
	movl	%esi, 12(%rsp)
	movl	%ecx, 36(%rsp)
	movl	20(%rsp), %ecx
	movl	%r8d, 40(%rsp)
	movl	24(%rsp), %r8d
	movl	%r9d, 44(%rsp)
	movl	%edx, %r9d
	movl	%r10d, 48(%rsp)
	movl	%r13d, %r10d
	movl	%r11d, 52(%rsp)
	movl	%r12d, %r11d
	movl	%r15d, 56(%rsp)
	movl	%ebp, %r15d
	movl	%r14d, 60(%rsp)
	movl	%ebx, %r14d
	movl	%edi, %ebx
	negl	%ebx
	movl	%ebx, %esi
	subl	28(%rsp), %esi
	movl	12(%rsp), %edx
	negl	%edx
	subl	32(%rsp), %edx
	movl	%edx, 16(%rsp)
	movl	%ecx, %edx
	negl	%edx
	subl	36(%rsp), %edx
	movl	%edx, 20(%rsp)
	movl	%r8d, %edx
	negl	%edx
	subl	40(%rsp), %edx
	movl	%edx, 24(%rsp)
	movl	%r9d, %edx
	negl	%edx
	subl	44(%rsp), %edx
	negl	%r13d
	subl	48(%rsp), %r13d
	negl	%r12d
	subl	52(%rsp), %r12d
	negl	%ebp
	subl	56(%rsp), %ebp
	movl	%r14d, %ebx
	negl	%ebx
	subl	60(%rsp), %ebx
	subq	$1, %rax
	cmpq	$-1, %rax
	jne	.L137
	movl	%ecx, 36(%rsp)
	movl	%r8d, 40(%rsp)
	movl	%r9d, 44(%rsp)
	movl	%r10d, 48(%rsp)
	movl	%r11d, 28(%rsp)
	movl	%edx, 32(%rsp)
.L136:
	addl	%esi, %edi
	call	use_int@PLT
	movl	16(%rsp), %edi
	addl	12(%rsp), %edi
	call	use_int@PLT
	movl	20(%rsp), %edi
	addl	36(%rsp), %edi
	call	use_int@PLT
	movl	24(%rsp), %edi
	addl	40(%rsp), %edi
	call	use_int@PLT
	movl	32(%rsp), %edi
	addl	44(%rsp), %edi
	call	use_int@PLT
	movl	48(%rsp), %edi
	addl	%r13d, %edi
	call	use_int@PLT
	movl	28(%rsp), %edi
	addl	%r12d, %edi
	call	use_int@PLT
	leal	0(%rbp,%r15), %edi
	call	use_int@PLT
	leal	(%rbx,%r14), %edi
	call	use_int@PLT
	addq	$72, %rsp
	.cfi_def_cfa_offset 56
	popq	%rbx
	.cfi_def_cfa_offset 48
	popq	%rbp
	.cfi_def_cfa_offset 40
	popq	%r12
	.cfi_def_cfa_offset 32
	popq	%r13
	.cfi_def_cfa_offset 24
	popq	%r14
	.cfi_def_cfa_offset 16
	popq	%r15
	.cfi_def_cfa_offset 8
	ret
	.cfi_endproc
.LFE97:
	.size	integer_add_8, .-integer_add_8
	.globl	integer_add_9
	.type	integer_add_9, @function
integer_add_9:
.LFB98:
	.cfi_startproc
	endbr64
	pushq	%r15
	.cfi_def_cfa_offset 16
	.cfi_offset 15, -16
	pushq	%r14
	.cfi_def_cfa_offset 24
	.cfi_offset 14, -24
	pushq	%r13
	.cfi_def_cfa_offset 32
	.cfi_offset 13, -32
	pushq	%r12
	.cfi_def_cfa_offset 40
	.cfi_offset 12, -40
	pushq	%rbp
	.cfi_def_cfa_offset 48
	.cfi_offset 6, -48
	pushq	%rbx
	.cfi_def_cfa_offset 56
	.cfi_offset 3, -56
	subq	$72, %rsp
	.cfi_def_cfa_offset 128
	movq	%rdi, %rdx
	movq	%rsi, %rax
	movl	12(%rsi), %ecx
	leal	57(%rcx), %esi
	leal	31(%rcx), %edi
	movl	16(%rax), %ecx
	leal	57(%rcx), %ebx
	movl	%ebx, 8(%rsp)
	leal	31(%rcx), %ebx
	movl	%ebx, (%rsp)
	movl	20(%rax), %ecx
	leal	57(%rcx), %ebx
	movl	%ebx, 12(%rsp)
	leal	31(%rcx), %ebx
	movl	%ebx, 4(%rsp)
	movl	24(%rax), %ecx
	leal	57(%rcx), %ebx
	movl	%ebx, 16(%rsp)
	leal	31(%rcx), %r8d
	movl	%r8d, 32(%rsp)
	movl	28(%rax), %ecx
	leal	57(%rcx), %ebx
	movl	%ebx, 20(%rsp)
	leal	31(%rcx), %r9d
	movl	%r9d, 36(%rsp)
	movl	32(%rax), %ecx
	leal	57(%rcx), %ebx
	movl	%ebx, 24(%rsp)
	leal	31(%rcx), %r10d
	movl	%r10d, 40(%rsp)
	movl	36(%rax), %ecx
	leal	57(%rcx), %r11d
	movl	%r11d, 28(%rsp)
	leal	31(%rcx), %r14d
	movl	%r14d, %r11d
	movl	%r14d, 44(%rsp)
	movl	40(%rax), %ecx
	leal	57(%rcx), %r12d
	leal	31(%rcx), %r15d
	movl	44(%rax), %ecx
	leal	57(%rcx), %ebp
	leal	31(%rcx), %r14d
	movl	48(%rax), %r13d
	leal	57(%r13), %ebx
	addl	$31, %r13d
	testq	%rdx, %rdx
	je	.L141
	leaq	-1(%rdx), %rax
	movl	24(%rsp), %edx
	movl	28(%rsp), %ecx
.L142:
	movl	%edi, 24(%rsp)
	movl	%esi, %edi
	movl	(%rsp), %esi
	movl	%esi, 28(%rsp)
	movl	8(%rsp), %esi
	movl	%esi, (%rsp)
	movl	4(%rsp), %esi
	movl	%esi, 32(%rsp)
	movl	12(%rsp), %esi
	movl	%esi, 4(%rsp)
	movl	%r8d, 36(%rsp)
	movl	16(%rsp), %r8d
	movl	%r9d, 40(%rsp)
	movl	20(%rsp), %r9d
	movl	%r10d, 44(%rsp)
	movl	%edx, %r10d
	movl	%r11d, 48(%rsp)
	movl	%ecx, %r11d
	movl	%r15d, 52(%rsp)
	movl	%r12d, %r15d
	movl	%r14d, 56(%rsp)
	movl	%ebp, %r14d
	movl	%r13d, 60(%rsp)
	movl	%ebx, %r13d
	movl	%edi, %ebx
	negl	%ebx
	movl	%ebx, %esi
	subl	24(%rsp), %esi
	movl	(%rsp), %edx
	negl	%edx
	movl	%edx, %ecx
	subl	28(%rsp), %ecx
	movl	%ecx, 8(%rsp)
	movl	4(%rsp), %edx
	negl	%edx
	subl	32(%rsp), %edx
	movl	%edx, 12(%rsp)
	movl	%r8d, %edx
	negl	%edx
	subl	36(%rsp), %edx
	movl	%edx, 16(%rsp)
	movl	%r9d, %edx
	negl	%edx
	subl	40(%rsp), %edx
	movl	%edx, 20(%rsp)
	movl	%r10d, %edx
	negl	%edx
	subl	44(%rsp), %edx
	movl	%r11d, %ecx
	negl	%ecx
	subl	48(%rsp), %ecx
	negl	%r12d
	subl	52(%rsp), %r12d
	negl	%ebp
	subl	56(%rsp), %ebp
	movl	%r13d, %ebx
	negl	%ebx
	subl	60(%rsp), %ebx
	subq	$1, %rax
	cmpq	$-1, %rax
	jne	.L142
	movl	%r8d, 32(%rsp)
	movl	%r9d, 36(%rsp)
	movl	%r10d, 40(%rsp)
	movl	%r11d, 44(%rsp)
	movl	%edx, 24(%rsp)
	movl	%ecx, 28(%rsp)
.L141:
	addl	%esi, %edi
	call	use_int@PLT
	movl	8(%rsp), %edi
	addl	(%rsp), %edi
	call	use_int@PLT
	movl	12(%rsp), %edi
	addl	4(%rsp), %edi
	call	use_int@PLT
	movl	16(%rsp), %edi
	addl	32(%rsp), %edi
	call	use_int@PLT
	movl	20(%rsp), %edi
	addl	36(%rsp), %edi
	call	use_int@PLT
	movl	24(%rsp), %edi
	addl	40(%rsp), %edi
	call	use_int@PLT
	movl	28(%rsp), %edi
	addl	44(%rsp), %edi
	call	use_int@PLT
	leal	(%r12,%r15), %edi
	call	use_int@PLT
	leal	0(%rbp,%r14), %edi
	call	use_int@PLT
	leal	(%rbx,%r13), %edi
	call	use_int@PLT
	addq	$72, %rsp
	.cfi_def_cfa_offset 56
	popq	%rbx
	.cfi_def_cfa_offset 48
	popq	%rbp
	.cfi_def_cfa_offset 40
	popq	%r12
	.cfi_def_cfa_offset 32
	popq	%r13
	.cfi_def_cfa_offset 24
	popq	%r14
	.cfi_def_cfa_offset 16
	popq	%r15
	.cfi_def_cfa_offset 8
	ret
	.cfi_endproc
.LFE98:
	.size	integer_add_9, .-integer_add_9
	.globl	integer_add_10
	.type	integer_add_10, @function
integer_add_10:
.LFB99:
	.cfi_startproc
	endbr64
	pushq	%r15
	.cfi_def_cfa_offset 16
	.cfi_offset 15, -16
	pushq	%r14
	.cfi_def_cfa_offset 24
	.cfi_offset 14, -24
	pushq	%r13
	.cfi_def_cfa_offset 32
	.cfi_offset 13, -32
	pushq	%r12
	.cfi_def_cfa_offset 40
	.cfi_offset 12, -40
	pushq	%rbp
	.cfi_def_cfa_offset 48
	.cfi_offset 6, -48
	pushq	%rbx
	.cfi_def_cfa_offset 56
	.cfi_offset 3, -56
	subq	$88, %rsp
	.cfi_def_cfa_offset 144
	movq	%rdi, %rdx
	movq	%rsi, %rax
	movl	12(%rsi), %ecx
	leal	57(%rcx), %esi
	leal	31(%rcx), %edi
	movl	16(%rax), %ecx
	leal	57(%rcx), %ebx
	movl	%ebx, 20(%rsp)
	addl	$31, %ecx
	movl	%ecx, 4(%rsp)
	movl	20(%rax), %ecx
	leal	57(%rcx), %ebx
	movl	%ebx, 24(%rsp)
	addl	$31, %ecx
	movl	%ecx, 8(%rsp)
	movl	24(%rax), %ecx
	leal	57(%rcx), %ebx
	movl	%ebx, 28(%rsp)
	addl	$31, %ecx
	movl	%ecx, 12(%rsp)
	movl	28(%rax), %ecx
	leal	57(%rcx), %ebx
	movl	%ebx, 32(%rsp)
	addl	$31, %ecx
	movl	%ecx, 16(%rsp)
	movl	32(%rax), %ecx
	leal	57(%rcx), %r8d
	movl	%r8d, 56(%rsp)
	leal	31(%rcx), %r9d
	movl	%r9d, 44(%rsp)
	movl	36(%rax), %ecx
	leal	57(%rcx), %ebx
	movl	%ebx, 36(%rsp)
	leal	31(%rcx), %r10d
	movl	%r10d, 48(%rsp)
	movl	40(%rax), %ecx
	leal	57(%rcx), %r11d
	movl	%r11d, 40(%rsp)
	leal	31(%rcx), %r14d
	movl	%r14d, %r11d
	movl	%r14d, 52(%rsp)
	movl	44(%rax), %ecx
	leal	57(%rcx), %r12d
	leal	31(%rcx), %r15d
	movl	48(%rax), %ecx
	leal	57(%rcx), %ebp
	leal	31(%rcx), %r14d
	movl	52(%rax), %eax
	leal	57(%rax), %ebx
	leal	31(%rax), %r13d
	testq	%rdx, %rdx
	je	.L146
	leaq	-1(%rdx), %rax
	movl	%r8d, %edx
	movl	36(%rsp), %ecx
	movl	40(%rsp), %r8d
.L147:
	movl	%edi, 36(%rsp)
	movl	%esi, %edi
	movl	4(%rsp), %esi
	movl	%esi, 40(%rsp)
	movl	20(%rsp), %esi
	movl	%esi, 4(%rsp)
	movl	8(%rsp), %esi
	movl	%esi, 44(%rsp)
	movl	24(%rsp), %esi
	movl	%esi, 8(%rsp)
	movl	12(%rsp), %esi
	movl	%esi, 48(%rsp)
	movl	28(%rsp), %esi
	movl	%esi, 12(%rsp)
	movl	16(%rsp), %esi
	movl	%esi, 52(%rsp)
	movl	32(%rsp), %esi
	movl	%esi, 16(%rsp)
	movl	%r9d, 56(%rsp)
	movl	%edx, %r9d
	movl	%r10d, 60(%rsp)
	movl	%ecx, %r10d
	movl	%r11d, 64(%rsp)
	movl	%r8d, %r11d
	movl	%r15d, 68(%rsp)
	movl	%r12d, %r15d
	movl	%r14d, 72(%rsp)
	movl	%ebp, %r14d
	movl	%r13d, 76(%rsp)
	movl	%ebx, %r13d
	movl	%edi, %ebx
	negl	%ebx
	movl	%ebx, %esi
	subl	36(%rsp), %esi
	movl	4(%rsp), %edx
	negl	%edx
	movl	%edx, %ebx
	subl	40(%rsp), %ebx
	movl	%ebx, 20(%rsp)
	movl	8(%rsp), %edx
	negl	%edx
	movl	%edx, %ecx
	subl	44(%rsp), %ecx
	movl	%ecx, 24(%rsp)
	movl	12(%rsp), %edx
	negl	%edx
	movl	%edx, %ebx
	subl	48(%rsp), %ebx
	movl	%ebx, 28(%rsp)
	movl	16(%rsp), %edx
	negl	%edx
	subl	52(%rsp), %edx
	movl	%edx, 32(%rsp)
	movl	%r9d, %edx
	negl	%edx
	subl	56(%rsp), %edx
	movl	%r10d, %ecx
	negl	%ecx
	subl	60(%rsp), %ecx
	negl	%r8d
	subl	64(%rsp), %r8d
	negl	%r12d
	subl	68(%rsp), %r12d
	negl	%ebp
	subl	72(%rsp), %ebp
	movl	%r13d, %ebx
	negl	%ebx
	subl	76(%rsp), %ebx
	subq	$1, %rax
	cmpq	$-1, %rax
	jne	.L147
	movl	%r9d, 44(%rsp)
	movl	%r10d, 48(%rsp)
	movl	%r11d, 52(%rsp)
	movl	%edx, 56(%rsp)
	movl	%ecx, 36(%rsp)
	movl	%r8d, 40(%rsp)
.L146:
	addl	%esi, %edi
	call	use_int@PLT
	movl	20(%rsp), %edi
	addl	4(%rsp), %edi
	call	use_int@PLT
	movl	24(%rsp), %edi
	addl	8(%rsp), %edi
	call	use_int@PLT
	movl	28(%rsp), %edi
	addl	12(%rsp), %edi
	call	use_int@PLT
	movl	32(%rsp), %edi
	addl	16(%rsp), %edi
	call	use_int@PLT
	movl	56(%rsp), %edi
	addl	44(%rsp), %edi
	call	use_int@PLT
	movl	36(%rsp), %edi
	addl	48(%rsp), %edi
	call	use_int@PLT
	movl	40(%rsp), %edi
	addl	52(%rsp), %edi
	call	use_int@PLT
	leal	(%r12,%r15), %edi
	call	use_int@PLT
	leal	0(%rbp,%r14), %edi
	call	use_int@PLT
	leal	(%rbx,%r13), %edi
	call	use_int@PLT
	addq	$88, %rsp
	.cfi_def_cfa_offset 56
	popq	%rbx
	.cfi_def_cfa_offset 48
	popq	%rbp
	.cfi_def_cfa_offset 40
	popq	%r12
	.cfi_def_cfa_offset 32
	popq	%r13
	.cfi_def_cfa_offset 24
	popq	%r14
	.cfi_def_cfa_offset 16
	popq	%r15
	.cfi_def_cfa_offset 8
	ret
	.cfi_endproc
.LFE99:
	.size	integer_add_10, .-integer_add_10
	.globl	integer_add_11
	.type	integer_add_11, @function
integer_add_11:
.LFB100:
	.cfi_startproc
	endbr64
	pushq	%r15
	.cfi_def_cfa_offset 16
	.cfi_offset 15, -16
	pushq	%r14
	.cfi_def_cfa_offset 24
	.cfi_offset 14, -24
	pushq	%r13
	.cfi_def_cfa_offset 32
	.cfi_offset 13, -32
	pushq	%r12
	.cfi_def_cfa_offset 40
	.cfi_offset 12, -40
	pushq	%rbp
	.cfi_def_cfa_offset 48
	.cfi_offset 6, -48
	pushq	%rbx
	.cfi_def_cfa_offset 56
	.cfi_offset 3, -56
	subq	$104, %rsp
	.cfi_def_cfa_offset 160
	movq	%rsi, %rax
	movl	12(%rsi), %ecx
	leal	57(%rcx), %edx
	leal	31(%rcx), %esi
	movl	16(%rax), %ecx
	leal	57(%rcx), %ebx
	movl	%ebx, 28(%rsp)
	leal	31(%rcx), %ebx
	movl	%ebx, 8(%rsp)
	movl	20(%rax), %ecx
	leal	57(%rcx), %ebx
	movl	%ebx, 32(%rsp)
	leal	31(%rcx), %ebx
	movl	%ebx, 12(%rsp)
	movl	24(%rax), %ecx
	leal	57(%rcx), %ebx
	movl	%ebx, 36(%rsp)
	leal	31(%rcx), %ebx
	movl	%ebx, 16(%rsp)
	movl	28(%rax), %ecx
	leal	57(%rcx), %ebx
	movl	%ebx, 40(%rsp)
	leal	31(%rcx), %ebx
	movl	%ebx, 20(%rsp)
	movl	32(%rax), %ecx
	leal	57(%rcx), %ebx
	movl	%ebx, 44(%rsp)
	leal	31(%rcx), %ebx
	movl	%ebx, 24(%rsp)
	movl	36(%rax), %ecx
	leal	57(%rcx), %r8d
	movl	%r8d, 64(%rsp)
	leal	31(%rcx), %r10d
	movl	%r10d, 56(%rsp)
	movl	40(%rax), %ecx
	leal	57(%rcx), %r9d
	movl	%r9d, 68(%rsp)
	leal	31(%rcx), %r11d
	movl	%r11d, 60(%rsp)
	movl	44(%rax), %ecx
	leal	57(%rcx), %ebx
	movl	%ebx, 48(%rsp)
	leal	31(%rcx), %r15d
	movl	48(%rax), %ecx
	leal	57(%rcx), %r14d
	movl	%r14d, 52(%rsp)
	leal	31(%rcx), %r14d
	movl	52(%rax), %ecx
	leal	57(%rcx), %ebp
	leal	31(%rcx), %r13d
	movl	56(%rax), %eax
	leal	57(%rax), %ebx
	leal	31(%rax), %r12d
	testq	%rdi, %rdi
	je	.L151
	leaq	-1(%rdi), %rax
	movl	%r8d, %ecx
	movl	%r9d, %edi
	movl	48(%rsp), %r8d
	movl	52(%rsp), %r9d
.L152:
	movl	%esi, 48(%rsp)
	movl	%edx, %esi
	movl	8(%rsp), %edx
	movl	%edx, 52(%rsp)
	movl	28(%rsp), %edx
	movl	%edx, 8(%rsp)
	movl	12(%rsp), %edx
	movl	%edx, 56(%rsp)
	movl	32(%rsp), %edx
	movl	%edx, 12(%rsp)
	movl	16(%rsp), %edx
	movl	%edx, 60(%rsp)
	movl	36(%rsp), %edx
	movl	%edx, 16(%rsp)
	movl	20(%rsp), %edx
	movl	%edx, 64(%rsp)
	movl	40(%rsp), %edx
	movl	%edx, 20(%rsp)
	movl	24(%rsp), %edx
	movl	%edx, 68(%rsp)
	movl	44(%rsp), %edx
	movl	%edx, 24(%rsp)
	movl	%r10d, 72(%rsp)
	movl	%ecx, %r10d
	movl	%r11d, 76(%rsp)
	movl	%edi, %r11d
	movl	%r15d, 80(%rsp)
	movl	%r8d, %r15d
	movl	%r14d, 84(%rsp)
	movl	%r9d, %r14d
	movl	%r13d, 88(%rsp)
	movl	%ebp, %r13d
	movl	%r12d, 92(%rsp)
	movl	%ebx, %r12d
	movl	%esi, %ebx
	negl	%ebx
	movl	%ebx, %edx
	subl	48(%rsp), %edx
	movl	8(%rsp), %ecx
	negl	%ecx
	movl	%ecx, %ebx
	subl	52(%rsp), %ebx
	movl	%ebx, 28(%rsp)
	movl	12(%rsp), %ecx
	negl	%ecx
	movl	%ecx, %edi
	subl	56(%rsp), %edi
	movl	%edi, 32(%rsp)
	movl	16(%rsp), %ecx
	negl	%ecx
	movl	%ecx, %ebx
	subl	60(%rsp), %ebx
	movl	%ebx, 36(%rsp)
	movl	20(%rsp), %ecx
	negl	%ecx
	movl	%ecx, %edi
	subl	64(%rsp), %edi
	movl	%edi, 40(%rsp)
	movl	24(%rsp), %ecx
	negl	%ecx
	subl	68(%rsp), %ecx
	movl	%ecx, 44(%rsp)
	movl	%r10d, %ecx
	negl	%ecx
	subl	72(%rsp), %ecx
	movl	%r11d, %edi
	negl	%edi
	subl	76(%rsp), %edi
	negl	%r8d
	subl	80(%rsp), %r8d
	negl	%r9d
	subl	84(%rsp), %r9d
	negl	%ebp
	subl	88(%rsp), %ebp
	movl	%r12d, %ebx
	negl	%ebx
	subl	92(%rsp), %ebx
	subq	$1, %rax
	cmpq	$-1, %rax
	jne	.L152
	movl	%r10d, 56(%rsp)
	movl	%r11d, 60(%rsp)
	movl	%ecx, 64(%rsp)
	movl	%edi, 68(%rsp)
	movl	%r8d, 48(%rsp)
	movl	%r9d, 52(%rsp)
.L151:
	leal	(%rdx,%rsi), %edi
	call	use_int@PLT
	movl	28(%rsp), %edi
	addl	8(%rsp), %edi
	call	use_int@PLT
	movl	32(%rsp), %edi
	addl	12(%rsp), %edi
	call	use_int@PLT
	movl	36(%rsp), %edi
	addl	16(%rsp), %edi
	call	use_int@PLT
	movl	40(%rsp), %edi
	addl	20(%rsp), %edi
	call	use_int@PLT
	movl	44(%rsp), %edi
	addl	24(%rsp), %edi
	call	use_int@PLT
	movl	64(%rsp), %edi
	addl	56(%rsp), %edi
	call	use_int@PLT
	movl	68(%rsp), %edi
	addl	60(%rsp), %edi
	call	use_int@PLT
	movl	48(%rsp), %edi
	addl	%r15d, %edi
	call	use_int@PLT
	movl	52(%rsp), %edi
	addl	%r14d, %edi
	call	use_int@PLT
	leal	0(%rbp,%r13), %edi
	call	use_int@PLT
	leal	(%rbx,%r12), %edi
	call	use_int@PLT
	addq	$104, %rsp
	.cfi_def_cfa_offset 56
	popq	%rbx
	.cfi_def_cfa_offset 48
	popq	%rbp
	.cfi_def_cfa_offset 40
	popq	%r12
	.cfi_def_cfa_offset 32
	popq	%r13
	.cfi_def_cfa_offset 24
	popq	%r14
	.cfi_def_cfa_offset 16
	popq	%r15
	.cfi_def_cfa_offset 8
	ret
	.cfi_endproc
.LFE100:
	.size	integer_add_11, .-integer_add_11
	.globl	integer_add_12
	.type	integer_add_12, @function
integer_add_12:
.LFB101:
	.cfi_startproc
	endbr64
	pushq	%r15
	.cfi_def_cfa_offset 16
	.cfi_offset 15, -16
	pushq	%r14
	.cfi_def_cfa_offset 24
	.cfi_offset 14, -24
	pushq	%r13
	.cfi_def_cfa_offset 32
	.cfi_offset 13, -32
	pushq	%r12
	.cfi_def_cfa_offset 40
	.cfi_offset 12, -40
	pushq	%rbp
	.cfi_def_cfa_offset 48
	.cfi_offset 6, -48
	pushq	%rbx
	.cfi_def_cfa_offset 56
	.cfi_offset 3, -56
	subq	$120, %rsp
	.cfi_def_cfa_offset 176
	movq	%rsi, %rax
	movl	12(%rsi), %edx
	leal	57(%rdx), %ecx
	addl	$31, %edx
	movl	16(%rsi), %esi
	leal	57(%rsi), %ebx
	movl	%ebx, 40(%rsp)
	addl	$31, %esi
	movl	%esi, 12(%rsp)
	movl	20(%rax), %esi
	leal	57(%rsi), %ebx
	movl	%ebx, 44(%rsp)
	addl	$31, %esi
	movl	%esi, 16(%rsp)
	movl	24(%rax), %esi
	leal	57(%rsi), %ebx
	movl	%ebx, 48(%rsp)
	addl	$31, %esi
	movl	%esi, 20(%rsp)
	movl	28(%rax), %esi
	leal	57(%rsi), %ebx
	movl	%ebx, 52(%rsp)
	addl	$31, %esi
	movl	%esi, 24(%rsp)
	movl	32(%rax), %esi
	leal	57(%rsi), %ebx
	movl	%ebx, 56(%rsp)
	addl	$31, %esi
	movl	%esi, 28(%rsp)
	movl	36(%rax), %esi
	leal	57(%rsi), %r9d
	movl	%r9d, 68(%rsp)
	addl	$31, %esi
	movl	%esi, 32(%rsp)
	movl	40(%rax), %esi
	leal	57(%rsi), %r10d
	movl	%r10d, 72(%rsp)
	addl	$31, %esi
	movl	%esi, 36(%rsp)
	movl	44(%rax), %esi
	leal	57(%rsi), %r8d
	movl	%r8d, 76(%rsp)
	leal	31(%rsi), %r15d
	movl	48(%rax), %esi
	leal	57(%rsi), %r11d
	movl	%r11d, 80(%rsp)
	leal	31(%rsi), %r13d
	movl	52(%rax), %esi
	leal	57(%rsi), %ebx
	movl	%ebx, 60(%rsp)
	leal	31(%rsi), %r14d
	movl	56(%rax), %esi
	leal	57(%rsi), %ebp
	movl	%ebp, 64(%rsp)
	leal	31(%rsi), %r12d
	movl	60(%rax), %eax
	leal	57(%rax), %ebx
	leal	31(%rax), %ebp
	testq	%rdi, %rdi
	je	.L156
	leaq	-1(%rdi), %rax
	movl	%r9d, %esi
	movl	%r10d, %edi
	movl	%r11d, %r9d
	movl	60(%rsp), %r10d
	movl	64(%rsp), %r11d
.L157:
	movl	%edx, 60(%rsp)
	movl	%ecx, %edx
	movl	12(%rsp), %ecx
	movl	%ecx, 64(%rsp)
	movl	40(%rsp), %ecx
	movl	%ecx, 12(%rsp)
	movl	16(%rsp), %ecx
	movl	%ecx, 68(%rsp)
	movl	44(%rsp), %ecx
	movl	%ecx, 16(%rsp)
	movl	20(%rsp), %ecx
	movl	%ecx, 72(%rsp)
	movl	48(%rsp), %ecx
	movl	%ecx, 20(%rsp)
	movl	24(%rsp), %ecx
	movl	%ecx, 76(%rsp)
	movl	52(%rsp), %ecx
	movl	%ecx, 24(%rsp)
	movl	28(%rsp), %ecx
	movl	%ecx, 80(%rsp)
	movl	56(%rsp), %ecx
	movl	%ecx, 28(%rsp)
	movl	32(%rsp), %ecx
	movl	%ecx, 84(%rsp)
	movl	%esi, 32(%rsp)
	movl	36(%rsp), %esi
	movl	%esi, 88(%rsp)
	movl	%edi, 36(%rsp)
	movl	%r15d, 92(%rsp)
	movl	%r8d, %r15d
	movl	%r13d, 96(%rsp)
	movl	%r9d, %r13d
	movl	%r14d, 100(%rsp)
	movl	%r10d, %r14d
	movl	%r12d, 104(%rsp)
	movl	%r11d, %r12d
	movl	%ebp, 108(%rsp)
	movl	%ebx, %ebp
	movl	%edx, %r8d
	negl	%r8d
	movl	%r8d, %ecx
	subl	60(%rsp), %ecx
	movl	12(%rsp), %ebx
	negl	%ebx
	movl	%ebx, %r9d
	subl	64(%rsp), %r9d
	movl	%r9d, 40(%rsp)
	movl	16(%rsp), %ebx
	negl	%ebx
	movl	%ebx, %r10d
	subl	68(%rsp), %r10d
	movl	%r10d, 44(%rsp)
	movl	20(%rsp), %ebx
	negl	%ebx
	movl	%ebx, %r11d
	subl	72(%rsp), %r11d
	movl	%r11d, 48(%rsp)
	movl	24(%rsp), %ebx
	negl	%ebx
	movl	%ebx, %r8d
	subl	76(%rsp), %r8d
	movl	%r8d, 52(%rsp)
	movl	28(%rsp), %ebx
	negl	%ebx
	subl	80(%rsp), %ebx
	movl	%ebx, 56(%rsp)
	movl	32(%rsp), %esi
	negl	%esi
	subl	84(%rsp), %esi
	negl	%edi
	subl	88(%rsp), %edi
	movl	%r15d, %r8d
	negl	%r8d
	subl	92(%rsp), %r8d
	movl	%r13d, %r9d
	negl	%r9d
	subl	96(%rsp), %r9d
	movl	%r14d, %r10d
	negl	%r10d
	subl	100(%rsp), %r10d
	movl	%r12d, %r11d
	negl	%r11d
	subl	104(%rsp), %r11d
	movl	%ebp, %ebx
	negl	%ebx
	subl	108(%rsp), %ebx
	subq	$1, %rax
	cmpq	$-1, %rax
	jne	.L157
	movl	%esi, 68(%rsp)
	movl	%edi, 72(%rsp)
	movl	%r8d, 76(%rsp)
	movl	%r9d, 80(%rsp)
	movl	%r10d, 60(%rsp)
	movl	%r11d, 64(%rsp)
.L156:
	leal	(%rcx,%rdx), %edi
	call	use_int@PLT
	movl	40(%rsp), %edi
	addl	12(%rsp), %edi
	call	use_int@PLT
	movl	44(%rsp), %edi
	addl	16(%rsp), %edi
	call	use_int@PLT
	movl	48(%rsp), %edi
	addl	20(%rsp), %edi
	call	use_int@PLT
	movl	52(%rsp), %edi
	addl	24(%rsp), %edi
	call	use_int@PLT
	movl	56(%rsp), %edi
	addl	28(%rsp), %edi
	call	use_int@PLT
	movl	68(%rsp), %edi
	addl	32(%rsp), %edi
	call	use_int@PLT
	movl	72(%rsp), %edi
	addl	36(%rsp), %edi
	call	use_int@PLT
	movl	76(%rsp), %edi
	addl	%r15d, %edi
	call	use_int@PLT
	movl	80(%rsp), %edi
	addl	%r13d, %edi
	call	use_int@PLT
	movl	60(%rsp), %edi
	addl	%r14d, %edi
	call	use_int@PLT
	movl	64(%rsp), %edi
	addl	%r12d, %edi
	call	use_int@PLT
	leal	(%rbx,%rbp), %edi
	call	use_int@PLT
	addq	$120, %rsp
	.cfi_def_cfa_offset 56
	popq	%rbx
	.cfi_def_cfa_offset 48
	popq	%rbp
	.cfi_def_cfa_offset 40
	popq	%r12
	.cfi_def_cfa_offset 32
	popq	%r13
	.cfi_def_cfa_offset 24
	popq	%r14
	.cfi_def_cfa_offset 16
	popq	%r15
	.cfi_def_cfa_offset 8
	ret
	.cfi_endproc
.LFE101:
	.size	integer_add_12, .-integer_add_12
	.globl	integer_add_13
	.type	integer_add_13, @function
integer_add_13:
.LFB102:
	.cfi_startproc
	endbr64
	pushq	%r15
	.cfi_def_cfa_offset 16
	.cfi_offset 15, -16
	pushq	%r14
	.cfi_def_cfa_offset 24
	.cfi_offset 14, -24
	pushq	%r13
	.cfi_def_cfa_offset 32
	.cfi_offset 13, -32
	pushq	%r12
	.cfi_def_cfa_offset 40
	.cfi_offset 12, -40
	pushq	%rbp
	.cfi_def_cfa_offset 48
	.cfi_offset 6, -48
	pushq	%rbx
	.cfi_def_cfa_offset 56
	.cfi_offset 3, -56
	subq	$136, %rsp
	.cfi_def_cfa_offset 192
	movq	%rdi, %rdx
	movq	%rsi, %rax
	movl	12(%rsi), %ecx
	leal	57(%rcx), %r15d
	leal	31(%rcx), %ebx
	movl	%ebx, 12(%rsp)
	movl	16(%rsi), %ecx
	leal	57(%rcx), %r14d
	leal	31(%rcx), %ebx
	movl	%ebx, 16(%rsp)
	movl	20(%rsi), %ecx
	leal	57(%rcx), %r13d
	leal	31(%rcx), %esi
	movl	%esi, 20(%rsp)
	movl	24(%rax), %ecx
	leal	57(%rcx), %r12d
	leal	31(%rcx), %ebx
	movl	%ebx, 24(%rsp)
	movl	28(%rax), %ecx
	leal	57(%rcx), %ebp
	leal	31(%rcx), %esi
	movl	%esi, 28(%rsp)
	movl	32(%rax), %ecx
	leal	57(%rcx), %ebx
	leal	31(%rcx), %esi
	movl	%esi, 32(%rsp)
	movl	36(%rax), %ecx
	leal	57(%rcx), %esi
	movl	%esi, 72(%rsp)
	leal	31(%rcx), %esi
	movl	%esi, 36(%rsp)
	movl	40(%rax), %ecx
	leal	57(%rcx), %edi
	movl	%edi, 80(%rsp)
	leal	31(%rcx), %esi
	movl	%esi, 40(%rsp)
	movl	44(%rax), %ecx
	leal	57(%rcx), %r8d
	movl	%r8d, 84(%rsp)
	leal	31(%rcx), %esi
	movl	%esi, 44(%rsp)
	movl	48(%rax), %ecx
	leal	57(%rcx), %r9d
	movl	%r9d, 88(%rsp)
	leal	31(%rcx), %esi
	movl	%esi, 48(%rsp)
	movl	52(%rax), %ecx
	leal	57(%rcx), %r10d
	movl	%r10d, 92(%rsp)
	leal	31(%rcx), %esi
	movl	%esi, 52(%rsp)
	movl	56(%rax), %ecx
	leal	57(%rcx), %r11d
	movl	%r11d, 96(%rsp)
	leal	31(%rcx), %esi
	movl	%esi, 56(%rsp)
	movl	60(%rax), %ecx
	leal	57(%rcx), %esi
	movl	%esi, 76(%rsp)
	addl	$31, %ecx
	movl	%ecx, 60(%rsp)
	movl	64(%rax), %eax
	leal	57(%rax), %ecx
	movl	%ecx, 68(%rsp)
	addl	$31, %eax
	movl	%eax, 64(%rsp)
	testq	%rdx, %rdx
	je	.L161
	leaq	-1(%rdx), %rax
	movl	72(%rsp), %edx
	movl	%edi, %ecx
	movl	%r8d, %esi
	movl	%r9d, %edi
	movl	%r10d, %r8d
	movl	%r11d, %r9d
	movl	76(%rsp), %r10d
.L162:
	movl	12(%rsp), %r11d
	movl	%r11d, 72(%rsp)
	movl	%r15d, 12(%rsp)
	movl	16(%rsp), %r11d
	movl	%r11d, 76(%rsp)
	movl	%r14d, 16(%rsp)
	movl	20(%rsp), %r11d
	movl	%r11d, 80(%rsp)
	movl	%r13d, 20(%rsp)
	movl	24(%rsp), %r11d
	movl	%r11d, 84(%rsp)
	movl	%r12d, 24(%rsp)
	movl	28(%rsp), %r11d
	movl	%r11d, 88(%rsp)
	movl	%ebp, 28(%rsp)
	movl	32(%rsp), %r11d
	movl	%r11d, 92(%rsp)
	movl	%ebx, 32(%rsp)
	movl	36(%rsp), %r11d
	movl	%r11d, 96(%rsp)
	movl	%edx, 36(%rsp)
	movl	40(%rsp), %r11d
	movl	%r11d, 100(%rsp)
	movl	%ecx, 40(%rsp)
	movl	44(%rsp), %r11d
	movl	%r11d, 104(%rsp)
	movl	%esi, 44(%rsp)
	movl	48(%rsp), %r11d
	movl	%r11d, 108(%rsp)
	movl	%edi, 48(%rsp)
	movl	52(%rsp), %r11d
	movl	%r11d, 112(%rsp)
	movl	%r8d, 52(%rsp)
	movl	56(%rsp), %r11d
	movl	%r11d, 116(%rsp)
	movl	%r9d, 56(%rsp)
	movl	60(%rsp), %r11d
	movl	%r11d, 120(%rsp)
	movl	%r10d, 60(%rsp)
	movl	64(%rsp), %r11d
	movl	%r11d, 124(%rsp)
	movl	68(%rsp), %r11d
	movl	%r11d, 64(%rsp)
	negl	%r15d
	subl	72(%rsp), %r15d
	negl	%r14d
	subl	76(%rsp), %r14d
	negl	%r13d
	subl	80(%rsp), %r13d
	negl	%r12d
	subl	84(%rsp), %r12d
	negl	%ebp
	subl	88(%rsp), %ebp
	negl	%ebx
	subl	92(%rsp), %ebx
	negl	%edx
	subl	96(%rsp), %edx
	negl	%ecx
	subl	100(%rsp), %ecx
	negl	%esi
	subl	104(%rsp), %esi
	negl	%edi
	subl	108(%rsp), %edi
	negl	%r8d
	subl	112(%rsp), %r8d
	negl	%r9d
	subl	116(%rsp), %r9d
	negl	%r10d
	subl	120(%rsp), %r10d
	negl	%r11d
	subl	124(%rsp), %r11d
	movl	%r11d, 68(%rsp)
	subq	$1, %rax
	cmpq	$-1, %rax
	jne	.L162
	movl	%edx, 72(%rsp)
	movl	%ecx, 80(%rsp)
	movl	%esi, 84(%rsp)
	movl	%edi, 88(%rsp)
	movl	%r8d, 92(%rsp)
	movl	%r9d, 96(%rsp)
	movl	%r10d, 76(%rsp)
.L161:
	movl	12(%rsp), %edi
	addl	%r15d, %edi
	call	use_int@PLT
	movl	16(%rsp), %edi
	addl	%r14d, %edi
	call	use_int@PLT
	movl	20(%rsp), %edi
	addl	%r13d, %edi
	call	use_int@PLT
	movl	24(%rsp), %edi
	addl	%r12d, %edi
	call	use_int@PLT
	movl	28(%rsp), %edi
	addl	%ebp, %edi
	call	use_int@PLT
	movl	32(%rsp), %edi
	addl	%ebx, %edi
	call	use_int@PLT
	movl	72(%rsp), %edi
	addl	36(%rsp), %edi
	call	use_int@PLT
	movl	80(%rsp), %edi
	addl	40(%rsp), %edi
	call	use_int@PLT
	movl	84(%rsp), %edi
	addl	44(%rsp), %edi
	call	use_int@PLT
	movl	88(%rsp), %edi
	addl	48(%rsp), %edi
	call	use_int@PLT
	movl	92(%rsp), %edi
	addl	52(%rsp), %edi
	call	use_int@PLT
	movl	96(%rsp), %edi
	addl	56(%rsp), %edi
	call	use_int@PLT
	movl	76(%rsp), %edi
	addl	60(%rsp), %edi
	call	use_int@PLT
	movl	68(%rsp), %edi
	addl	64(%rsp), %edi
	call	use_int@PLT
	addq	$136, %rsp
	.cfi_def_cfa_offset 56
	popq	%rbx
	.cfi_def_cfa_offset 48
	popq	%rbp
	.cfi_def_cfa_offset 40
	popq	%r12
	.cfi_def_cfa_offset 32
	popq	%r13
	.cfi_def_cfa_offset 24
	popq	%r14
	.cfi_def_cfa_offset 16
	popq	%r15
	.cfi_def_cfa_offset 8
	ret
	.cfi_endproc
.LFE102:
	.size	integer_add_13, .-integer_add_13
	.globl	integer_add_14
	.type	integer_add_14, @function
integer_add_14:
.LFB103:
	.cfi_startproc
	endbr64
	pushq	%r15
	.cfi_def_cfa_offset 16
	.cfi_offset 15, -16
	pushq	%r14
	.cfi_def_cfa_offset 24
	.cfi_offset 14, -24
	pushq	%r13
	.cfi_def_cfa_offset 32
	.cfi_offset 13, -32
	pushq	%r12
	.cfi_def_cfa_offset 40
	.cfi_offset 12, -40
	pushq	%rbp
	.cfi_def_cfa_offset 48
	.cfi_offset 6, -48
	pushq	%rbx
	.cfi_def_cfa_offset 56
	.cfi_offset 3, -56
	subq	$152, %rsp
	.cfi_def_cfa_offset 208
	movq	%rdi, %rdx
	movq	%rsi, %rax
	movl	12(%rsi), %ecx
	leal	57(%rcx), %r15d
	leal	31(%rcx), %esi
	movl	%esi, 36(%rsp)
	movl	16(%rax), %ecx
	leal	57(%rcx), %r14d
	leal	31(%rcx), %esi
	movl	%esi, 40(%rsp)
	movl	20(%rax), %ecx
	leal	57(%rcx), %r13d
	leal	31(%rcx), %esi
	movl	%esi, 44(%rsp)
	movl	24(%rax), %ecx
	leal	57(%rcx), %r12d
	leal	31(%rcx), %esi
	movl	%esi, 48(%rsp)
	movl	28(%rax), %ecx
	leal	57(%rcx), %ebp
	leal	31(%rcx), %esi
	movl	%esi, 52(%rsp)
	movl	32(%rax), %ecx
	leal	57(%rcx), %ebx
	leal	31(%rcx), %esi
	movl	%esi, 12(%rsp)
	movl	36(%rax), %ecx
	leal	57(%rcx), %esi
	movl	%esi, 84(%rsp)
	leal	31(%rcx), %esi
	movl	%esi, 16(%rsp)
	movl	40(%rax), %ecx
	leal	57(%rcx), %esi
	movl	%esi, 88(%rsp)
	leal	31(%rcx), %esi
	movl	%esi, 20(%rsp)
	movl	44(%rax), %ecx
	leal	57(%rcx), %edi
	movl	%edi, 32(%rsp)
	leal	31(%rcx), %esi
	movl	%esi, 56(%rsp)
	movl	48(%rax), %ecx
	leal	57(%rcx), %r8d
	movl	%r8d, 24(%rsp)
	leal	31(%rcx), %esi
	movl	%esi, 60(%rsp)
	movl	52(%rax), %ecx
	leal	57(%rcx), %r9d
	movl	%r9d, 96(%rsp)
	leal	31(%rcx), %esi
	movl	%esi, 64(%rsp)
	movl	56(%rax), %ecx
	leal	57(%rcx), %r10d
	movl	%r10d, 100(%rsp)
	leal	31(%rcx), %esi
	movl	%esi, 68(%rsp)
	movl	60(%rax), %ecx
	leal	57(%rcx), %r11d
	movl	%r11d, 104(%rsp)
	leal	31(%rcx), %esi
	movl	%esi, 72(%rsp)
	movl	64(%rax), %ecx
	leal	57(%rcx), %esi
	movl	%esi, 92(%rsp)
	addl	$31, %ecx
	movl	%ecx, 76(%rsp)
	movl	68(%rax), %eax
	leal	57(%rax), %ecx
	movl	%ecx, 108(%rsp)
	addl	$31, %eax
	movl	%eax, 80(%rsp)
	testq	%rdx, %rdx
	je	.L166
	leaq	-1(%rdx), %rax
	movq	%rax, 24(%rsp)
	movl	%r8d, %esi
	movl	%r9d, %edi
	movl	%r10d, %r8d
	movl	%r11d, %r9d
	movl	92(%rsp), %r10d
	movl	%ecx, %r11d
.L167:
	movl	36(%rsp), %eax
	movl	%eax, 92(%rsp)
	movl	%r15d, 36(%rsp)
	movl	40(%rsp), %eax
	movl	%r14d, 40(%rsp)
	movl	44(%rsp), %edx
	movl	%edx, 96(%rsp)
	movl	%r13d, 44(%rsp)
	movl	48(%rsp), %edx
	movl	%r12d, 48(%rsp)
	movl	52(%rsp), %ecx
	movl	%ecx, 100(%rsp)
	movl	%ebp, 52(%rsp)
	movl	12(%rsp), %ecx
	movl	%ecx, 104(%rsp)
	movl	%ebx, 12(%rsp)
	movl	16(%rsp), %ebx
	movl	%ebx, 108(%rsp)
	movl	84(%rsp), %ebx
	movl	%ebx, 16(%rsp)
	movl	20(%rsp), %ecx
	movl	%ecx, 112(%rsp)
	movl	88(%rsp), %ecx
	movl	%ecx, 20(%rsp)
	movl	56(%rsp), %ecx
	movl	%ecx, 116(%rsp)
	movl	32(%rsp), %ecx
	movl	%ecx, 56(%rsp)
	movl	60(%rsp), %ebx
	movl	%ebx, 120(%rsp)
	movl	%esi, 60(%rsp)
	movl	64(%rsp), %ebx
	movl	%ebx, 124(%rsp)
	movl	%edi, 64(%rsp)
	movl	68(%rsp), %ebx
	movl	%ebx, 128(%rsp)
	movl	%r8d, 68(%rsp)
	movl	72(%rsp), %ebx
	movl	%ebx, 132(%rsp)
	movl	%r9d, 72(%rsp)
	movl	76(%rsp), %ebx
	movl	%ebx, 136(%rsp)
	movl	%r10d, 76(%rsp)
	movl	80(%rsp), %ebx
	movl	%ebx, 140(%rsp)
	movl	%r11d, 80(%rsp)
	negl	%r15d
	subl	92(%rsp), %r15d
	negl	%r14d
	subl	%eax, %r14d
	negl	%r13d
	subl	96(%rsp), %r13d
	negl	%r12d
	subl	%edx, %r12d
	negl	%ebp
	subl	100(%rsp), %ebp
	movl	12(%rsp), %ebx
	negl	%ebx
	subl	104(%rsp), %ebx
	movl	16(%rsp), %edx
	negl	%edx
	subl	108(%rsp), %edx
	movl	%edx, 84(%rsp)
	movl	20(%rsp), %edx
	negl	%edx
	subl	112(%rsp), %edx
	movl	%edx, 88(%rsp)
	negl	%ecx
	subl	116(%rsp), %ecx
	movl	%ecx, 32(%rsp)
	negl	%esi
	subl	120(%rsp), %esi
	negl	%edi
	subl	124(%rsp), %edi
	negl	%r8d
	subl	128(%rsp), %r8d
	negl	%r9d
	subl	132(%rsp), %r9d
	negl	%r10d
	subl	136(%rsp), %r10d
	negl	%r11d
	subl	140(%rsp), %r11d
	subq	$1, 24(%rsp)
	movq	24(%rsp), %rax
	cmpq	$-1, %rax
	jne	.L167
	movl	%esi, 24(%rsp)
	movl	%edi, 96(%rsp)
	movl	%r8d, 100(%rsp)
	movl	%r9d, 104(%rsp)
	movl	%r10d, 92(%rsp)
	movl	%r11d, 108(%rsp)
.L166:
	movl	36(%rsp), %edi
	addl	%r15d, %edi
	call	use_int@PLT
	movl	40(%rsp), %edi
	addl	%r14d, %edi
	call	use_int@PLT
	movl	44(%rsp), %edi
	addl	%r13d, %edi
	call	use_int@PLT
	movl	48(%rsp), %edi
	addl	%r12d, %edi
	call	use_int@PLT
	movl	52(%rsp), %edi
	addl	%ebp, %edi
	call	use_int@PLT
	movl	12(%rsp), %edi
	addl	%ebx, %edi
	call	use_int@PLT
	movl	84(%rsp), %edi
	addl	16(%rsp), %edi
	call	use_int@PLT
	movl	88(%rsp), %edi
	addl	20(%rsp), %edi
	call	use_int@PLT
	movl	32(%rsp), %edi
	addl	56(%rsp), %edi
	call	use_int@PLT
	movl	24(%rsp), %edi
	addl	60(%rsp), %edi
	call	use_int@PLT
	movl	96(%rsp), %edi
	addl	64(%rsp), %edi
	call	use_int@PLT
	movl	100(%rsp), %edi
	addl	68(%rsp), %edi
	call	use_int@PLT
	movl	104(%rsp), %edi
	addl	72(%rsp), %edi
	call	use_int@PLT
	movl	92(%rsp), %edi
	addl	76(%rsp), %edi
	call	use_int@PLT
	movl	108(%rsp), %edi
	addl	80(%rsp), %edi
	call	use_int@PLT
	addq	$152, %rsp
	.cfi_def_cfa_offset 56
	popq	%rbx
	.cfi_def_cfa_offset 48
	popq	%rbp
	.cfi_def_cfa_offset 40
	popq	%r12
	.cfi_def_cfa_offset 32
	popq	%r13
	.cfi_def_cfa_offset 24
	popq	%r14
	.cfi_def_cfa_offset 16
	popq	%r15
	.cfi_def_cfa_offset 8
	ret
	.cfi_endproc
.LFE103:
	.size	integer_add_14, .-integer_add_14
	.globl	integer_add_15
	.type	integer_add_15, @function
integer_add_15:
.LFB104:
	.cfi_startproc
	endbr64
	pushq	%r15
	.cfi_def_cfa_offset 16
	.cfi_offset 15, -16
	pushq	%r14
	.cfi_def_cfa_offset 24
	.cfi_offset 14, -24
	pushq	%r13
	.cfi_def_cfa_offset 32
	.cfi_offset 13, -32
	pushq	%r12
	.cfi_def_cfa_offset 40
	.cfi_offset 12, -40
	pushq	%rbp
	.cfi_def_cfa_offset 48
	.cfi_offset 6, -48
	pushq	%rbx
	.cfi_def_cfa_offset 56
	.cfi_offset 3, -56
	subq	$152, %rsp
	.cfi_def_cfa_offset 208
	movq	%rdi, %rdx
	movq	%rsi, %rax
	movl	12(%rsi), %ecx
	leal	57(%rcx), %r15d
	leal	31(%rcx), %esi
	movl	%esi, 32(%rsp)
	movl	16(%rax), %ecx
	leal	57(%rcx), %r14d
	leal	31(%rcx), %esi
	movl	%esi, 4(%rsp)
	movl	20(%rax), %ecx
	leal	57(%rcx), %r13d
	leal	31(%rcx), %esi
	movl	%esi, 36(%rsp)
	movl	24(%rax), %ecx
	leal	57(%rcx), %r12d
	leal	31(%rcx), %esi
	movl	%esi, 40(%rsp)
	movl	28(%rax), %ecx
	leal	57(%rcx), %ebp
	addl	$31, %ecx
	movl	%ecx, 44(%rsp)
	movl	32(%rax), %ecx
	leal	57(%rcx), %ebx
	leal	31(%rcx), %esi
	movl	%esi, 8(%rsp)
	movl	36(%rax), %ecx
	leal	57(%rcx), %esi
	movl	%esi, 76(%rsp)
	addl	$31, %ecx
	movl	%ecx, 12(%rsp)
	movl	40(%rax), %ecx
	leal	57(%rcx), %esi
	movl	%esi, 80(%rsp)
	addl	$31, %ecx
	movl	%ecx, 16(%rsp)
	movl	44(%rax), %ecx
	leal	57(%rcx), %esi
	movl	%esi, 84(%rsp)
	addl	$31, %ecx
	movl	%ecx, 20(%rsp)
	movl	48(%rax), %ecx
	leal	57(%rcx), %edi
	movl	%edi, 24(%rsp)
	leal	31(%rcx), %esi
	movl	%esi, 48(%rsp)
	movl	52(%rax), %ecx
	leal	57(%rcx), %r8d
	movl	%r8d, 96(%rsp)
	addl	$31, %ecx
	movl	%ecx, 52(%rsp)
	movl	56(%rax), %ecx
	leal	57(%rcx), %r9d
	movl	%r9d, 100(%rsp)
	leal	31(%rcx), %esi
	movl	%esi, 56(%rsp)
	movl	60(%rax), %ecx
	leal	57(%rcx), %r10d
	movl	%r10d, 104(%rsp)
	addl	$31, %ecx
	movl	%ecx, 60(%rsp)
	movl	64(%rax), %ecx
	leal	57(%rcx), %r11d
	movl	%r11d, 108(%rsp)
	leal	31(%rcx), %esi
	movl	%esi, 64(%rsp)
	movl	68(%rax), %ecx
	leal	57(%rcx), %esi
	movl	%esi, 88(%rsp)
	addl	$31, %ecx
	movl	%ecx, 68(%rsp)
	movl	72(%rax), %eax
	leal	57(%rax), %ecx
	movl	%ecx, 92(%rsp)
	addl	$31, %eax
	movl	%eax, 72(%rsp)
	testq	%rdx, %rdx
	je	.L171
	leaq	-1(%rdx), %rcx
	movq	%rcx, 24(%rsp)
	movl	84(%rsp), %eax
	movl	%edi, %edx
	movl	%r8d, %esi
	movl	%r9d, %edi
	movl	%r10d, %r8d
	movl	%r11d, %r9d
	movl	88(%rsp), %r10d
	movl	92(%rsp), %r11d
.L172:
	movl	32(%rsp), %ecx
	movl	%ecx, 84(%rsp)
	movl	%r15d, 32(%rsp)
	movl	4(%rsp), %ecx
	movl	%r14d, 4(%rsp)
	movl	36(%rsp), %r14d
	movl	%r14d, 88(%rsp)
	movl	%r13d, 36(%rsp)
	movl	40(%rsp), %r14d
	movl	%r14d, 92(%rsp)
	movl	%r12d, 40(%rsp)
	movl	44(%rsp), %r14d
	movl	%r14d, 96(%rsp)
	movl	%ebp, 44(%rsp)
	movl	8(%rsp), %r14d
	movl	%r14d, 100(%rsp)
	movl	%ebx, 8(%rsp)
	movl	12(%rsp), %ebx
	movl	%ebx, 104(%rsp)
	movl	76(%rsp), %ebx
	movl	%ebx, 12(%rsp)
	movl	16(%rsp), %ebx
	movl	%ebx, 108(%rsp)
	movl	80(%rsp), %r14d
	movl	%r14d, 16(%rsp)
	movl	20(%rsp), %ebx
	movl	%ebx, 112(%rsp)
	movl	%eax, 20(%rsp)
	movl	48(%rsp), %eax
	movl	%eax, 116(%rsp)
	movl	%edx, 48(%rsp)
	movl	52(%rsp), %eax
	movl	%eax, 120(%rsp)
	movl	%esi, 52(%rsp)
	movl	56(%rsp), %eax
	movl	%eax, 124(%rsp)
	movl	%edi, 56(%rsp)
	movl	60(%rsp), %ebx
	movl	%ebx, 128(%rsp)
	movl	%r8d, 60(%rsp)
	movl	64(%rsp), %eax
	movl	%eax, 132(%rsp)
	movl	%r9d, 64(%rsp)
	movl	68(%rsp), %ebx
	movl	%ebx, 136(%rsp)
	movl	%r10d, 68(%rsp)
	movl	72(%rsp), %r14d
	movl	%r14d, 140(%rsp)
	movl	%r11d, 72(%rsp)
	negl	%r15d
	subl	84(%rsp), %r15d
	movl	4(%rsp), %r14d
	negl	%r14d
	subl	%ecx, %r14d
	negl	%r13d
	subl	88(%rsp), %r13d
	negl	%r12d
	subl	92(%rsp), %r12d
	negl	%ebp
	subl	96(%rsp), %ebp
	movl	8(%rsp), %ebx
	negl	%ebx
	subl	100(%rsp), %ebx
	movl	12(%rsp), %eax
	negl	%eax
	subl	104(%rsp), %eax
	movl	%eax, 76(%rsp)
	movl	16(%rsp), %eax
	negl	%eax
	subl	108(%rsp), %eax
	movl	%eax, 80(%rsp)
	movl	20(%rsp), %eax
	negl	%eax
	subl	112(%rsp), %eax
	negl	%edx
	subl	116(%rsp), %edx
	negl	%esi
	subl	120(%rsp), %esi
	negl	%edi
	subl	124(%rsp), %edi
	negl	%r8d
	subl	128(%rsp), %r8d
	negl	%r9d
	subl	132(%rsp), %r9d
	negl	%r10d
	subl	136(%rsp), %r10d
	negl	%r11d
	subl	140(%rsp), %r11d
	subq	$1, 24(%rsp)
	movq	24(%rsp), %rcx
	cmpq	$-1, %rcx
	jne	.L172
	movl	%eax, 84(%rsp)
	movl	%edx, 24(%rsp)
	movl	%esi, 96(%rsp)
	movl	%edi, 100(%rsp)
	movl	%r8d, 104(%rsp)
	movl	%r9d, 108(%rsp)
	movl	%r10d, 88(%rsp)
	movl	%r11d, 92(%rsp)
.L171:
	movl	32(%rsp), %edi
	addl	%r15d, %edi
	call	use_int@PLT
	movl	4(%rsp), %edi
	addl	%r14d, %edi
	call	use_int@PLT
	movl	36(%rsp), %edi
	addl	%r13d, %edi
	call	use_int@PLT
	movl	40(%rsp), %edi
	addl	%r12d, %edi
	call	use_int@PLT
	movl	44(%rsp), %edi
	addl	%ebp, %edi
	call	use_int@PLT
	movl	8(%rsp), %edi
	addl	%ebx, %edi
	call	use_int@PLT
	movl	76(%rsp), %edi
	addl	12(%rsp), %edi
	call	use_int@PLT
	movl	80(%rsp), %edi
	addl	16(%rsp), %edi
	call	use_int@PLT
	movl	84(%rsp), %edi
	addl	20(%rsp), %edi
	call	use_int@PLT
	movl	24(%rsp), %edi
	addl	48(%rsp), %edi
	call	use_int@PLT
	movl	96(%rsp), %edi
	addl	52(%rsp), %edi
	call	use_int@PLT
	movl	100(%rsp), %edi
	addl	56(%rsp), %edi
	call	use_int@PLT
	movl	104(%rsp), %edi
	addl	60(%rsp), %edi
	call	use_int@PLT
	movl	108(%rsp), %edi
	addl	64(%rsp), %edi
	call	use_int@PLT
	movl	88(%rsp), %edi
	addl	68(%rsp), %edi
	call	use_int@PLT
	movl	92(%rsp), %edi
	addl	72(%rsp), %edi
	call	use_int@PLT
	addq	$152, %rsp
	.cfi_def_cfa_offset 56
	popq	%rbx
	.cfi_def_cfa_offset 48
	popq	%rbp
	.cfi_def_cfa_offset 40
	popq	%r12
	.cfi_def_cfa_offset 32
	popq	%r13
	.cfi_def_cfa_offset 24
	popq	%r14
	.cfi_def_cfa_offset 16
	popq	%r15
	.cfi_def_cfa_offset 8
	ret
	.cfi_endproc
.LFE104:
	.size	integer_add_15, .-integer_add_15
	.globl	integer_mul_0
	.type	integer_mul_0, @function
integer_mul_0:
.LFB105:
	.cfi_startproc
	endbr64
	subq	$8, %rsp
	.cfi_def_cfa_offset 16
	movq	%rdi, %r8
	movl	12(%rsi), %eax
	leal	37432(%rax), %edx
	addl	$5, %eax
	movl	%edx, %edi
	imull	%eax, %edi
	imull	%eax, %edi
	imull	%eax, %edi
	imull	%eax, %edi
	imull	%eax, %edi
	imull	%eax, %edi
	imull	%eax, %edi
	imull	%eax, %edi
	imull	%eax, %edi
	imull	%eax, %edi
	movl	%edi, %ecx
	subl	%edx, %ecx
	leaq	-1(%r8), %rdx
	testq	%r8, %r8
	je	.L176
.L177:
	subl	%ecx, %edi
	imull	%eax, %edi
	imull	%eax, %edi
	imull	%eax, %edi
	imull	%eax, %edi
	imull	%eax, %edi
	imull	%eax, %edi
	imull	%eax, %edi
	imull	%eax, %edi
	imull	%eax, %edi
	imull	%eax, %edi
	subq	$1, %rdx
	cmpq	$-1, %rdx
	jne	.L177
.L176:
	call	use_int@PLT
	addq	$8, %rsp
	.cfi_def_cfa_offset 8
	ret
	.cfi_endproc
.LFE105:
	.size	integer_mul_0, .-integer_mul_0
	.globl	integer_mul_1
	.type	integer_mul_1, @function
integer_mul_1:
.LFB106:
	.cfi_startproc
	endbr64
	pushq	%rbx
	.cfi_def_cfa_offset 16
	.cfi_offset 3, -16
	movq	%rdi, %r9
	movl	12(%rsi), %edx
	leal	37432(%rdx), %ecx
	addl	$5, %edx
	movl	%ecx, %edi
	imull	%edx, %edi
	imull	%edx, %edi
	imull	%edx, %edi
	imull	%edx, %edi
	imull	%edx, %edi
	imull	%edx, %edi
	imull	%edx, %edi
	imull	%edx, %edi
	imull	%edx, %edi
	imull	%edx, %edi
	movl	%edi, %r8d
	subl	%ecx, %r8d
	movl	16(%rsi), %eax
	leal	37431(%rax), %ecx
	addl	$4, %eax
	movl	%ecx, %ebx
	imull	%eax, %ebx
	imull	%eax, %ebx
	imull	%eax, %ebx
	imull	%eax, %ebx
	imull	%eax, %ebx
	imull	%eax, %ebx
	imull	%eax, %ebx
	imull	%eax, %ebx
	imull	%eax, %ebx
	imull	%eax, %ebx
	movl	%ebx, %esi
	subl	%ecx, %esi
	leaq	-1(%r9), %rcx
	testq	%r9, %r9
	je	.L181
.L182:
	subl	%r8d, %edi
	subl	%esi, %ebx
	imull	%edx, %edi
	imull	%eax, %ebx
	imull	%edx, %edi
	imull	%eax, %ebx
	imull	%edx, %edi
	imull	%eax, %ebx
	imull	%edx, %edi
	imull	%eax, %ebx
	imull	%edx, %edi
	imull	%eax, %ebx
	imull	%edx, %edi
	imull	%eax, %ebx
	imull	%edx, %edi
	imull	%eax, %ebx
	imull	%edx, %edi
	imull	%eax, %ebx
	imull	%edx, %edi
	imull	%eax, %ebx
	imull	%edx, %edi
	imull	%eax, %ebx
	subq	$1, %rcx
	cmpq	$-1, %rcx
	jne	.L182
.L181:
	call	use_int@PLT
	movl	%ebx, %edi
	call	use_int@PLT
	popq	%rbx
	.cfi_def_cfa_offset 8
	ret
	.cfi_endproc
.LFE106:
	.size	integer_mul_1, .-integer_mul_1
	.globl	integer_mul_2
	.type	integer_mul_2, @function
integer_mul_2:
.LFB107:
	.cfi_startproc
	endbr64
	pushq	%rbp
	.cfi_def_cfa_offset 16
	.cfi_offset 6, -16
	pushq	%rbx
	.cfi_def_cfa_offset 24
	.cfi_offset 3, -24
	subq	$8, %rsp
	.cfi_def_cfa_offset 32
	movq	%rdi, %r11
	movq	%rsi, %rax
	movl	12(%rsi), %ecx
	leal	37432(%rcx), %edx
	addl	$5, %ecx
	movl	%edx, %edi
	imull	%ecx, %edi
	imull	%ecx, %edi
	imull	%ecx, %edi
	imull	%ecx, %edi
	imull	%ecx, %edi
	imull	%ecx, %edi
	imull	%ecx, %edi
	imull	%ecx, %edi
	imull	%ecx, %edi
	imull	%ecx, %edi
	movl	%edi, %r10d
	subl	%edx, %r10d
	movl	16(%rsi), %edx
	leal	37431(%rdx), %esi
	addl	$4, %edx
	movl	%esi, %ebp
	imull	%edx, %ebp
	imull	%edx, %ebp
	imull	%edx, %ebp
	imull	%edx, %ebp
	imull	%edx, %ebp
	imull	%edx, %ebp
	imull	%edx, %ebp
	imull	%edx, %ebp
	imull	%edx, %ebp
	imull	%edx, %ebp
	movl	%ebp, %r9d
	subl	%esi, %r9d
	movl	20(%rax), %eax
	leal	37430(%rax), %esi
	addl	$3, %eax
	movl	%esi, %ebx
	imull	%eax, %ebx
	imull	%eax, %ebx
	imull	%eax, %ebx
	imull	%eax, %ebx
	imull	%eax, %ebx
	imull	%eax, %ebx
	imull	%eax, %ebx
	imull	%eax, %ebx
	imull	%eax, %ebx
	imull	%eax, %ebx
	movl	%ebx, %r8d
	subl	%esi, %r8d
	leaq	-1(%r11), %rsi
	testq	%r11, %r11
	je	.L186
.L187:
	subl	%r10d, %edi
	subl	%r9d, %ebp
	subl	%r8d, %ebx
	imull	%ecx, %edi
	imull	%edx, %ebp
	imull	%eax, %ebx
	imull	%ecx, %edi
	imull	%edx, %ebp
	imull	%eax, %ebx
	imull	%ecx, %edi
	imull	%edx, %ebp
	imull	%eax, %ebx
	imull	%ecx, %edi
	imull	%edx, %ebp
	imull	%eax, %ebx
	imull	%ecx, %edi
	imull	%edx, %ebp
	imull	%eax, %ebx
	imull	%ecx, %edi
	imull	%edx, %ebp
	imull	%eax, %ebx
	imull	%ecx, %edi
	imull	%edx, %ebp
	imull	%eax, %ebx
	imull	%ecx, %edi
	imull	%edx, %ebp
	imull	%eax, %ebx
	imull	%ecx, %edi
	imull	%edx, %ebp
	imull	%eax, %ebx
	imull	%ecx, %edi
	imull	%edx, %ebp
	imull	%eax, %ebx
	subq	$1, %rsi
	cmpq	$-1, %rsi
	jne	.L187
.L186:
	call	use_int@PLT
	movl	%ebp, %edi
	call	use_int@PLT
	movl	%ebx, %edi
	call	use_int@PLT
	addq	$8, %rsp
	.cfi_def_cfa_offset 24
	popq	%rbx
	.cfi_def_cfa_offset 16
	popq	%rbp
	.cfi_def_cfa_offset 8
	ret
	.cfi_endproc
.LFE107:
	.size	integer_mul_2, .-integer_mul_2
	.globl	integer_mul_3
	.type	integer_mul_3, @function
integer_mul_3:
.LFB108:
	.cfi_startproc
	endbr64
	pushq	%r14
	.cfi_def_cfa_offset 16
	.cfi_offset 14, -16
	pushq	%r13
	.cfi_def_cfa_offset 24
	.cfi_offset 13, -24
	pushq	%r12
	.cfi_def_cfa_offset 32
	.cfi_offset 12, -32
	pushq	%rbp
	.cfi_def_cfa_offset 40
	.cfi_offset 6, -40
	pushq	%rbx
	.cfi_def_cfa_offset 48
	.cfi_offset 3, -48
	movq	%rdi, %r14
	movq	%rsi, %rax
	movl	12(%rsi), %esi
	leal	37432(%rsi), %edx
	addl	$5, %esi
	movl	%edx, %edi
	imull	%esi, %edi
	imull	%esi, %edi
	imull	%esi, %edi
	imull	%esi, %edi
	imull	%esi, %edi
	imull	%esi, %edi
	imull	%esi, %edi
	imull	%esi, %edi
	imull	%esi, %edi
	imull	%esi, %edi
	movl	%edi, %r11d
	subl	%edx, %r11d
	movl	16(%rax), %ecx
	leal	37431(%rcx), %edx
	addl	$4, %ecx
	movl	%edx, %r12d
	imull	%ecx, %r12d
	imull	%ecx, %r12d
	imull	%ecx, %r12d
	imull	%ecx, %r12d
	imull	%ecx, %r12d
	imull	%ecx, %r12d
	imull	%ecx, %r12d
	imull	%ecx, %r12d
	imull	%ecx, %r12d
	imull	%ecx, %r12d
	movl	%r12d, %r10d
	subl	%edx, %r10d
	movl	20(%rax), %edx
	leal	37430(%rdx), %r8d
	addl	$3, %edx
	movl	%r8d, %ebp
	imull	%edx, %ebp
	imull	%edx, %ebp
	imull	%edx, %ebp
	imull	%edx, %ebp
	imull	%edx, %ebp
	imull	%edx, %ebp
	imull	%edx, %ebp
	imull	%edx, %ebp
	imull	%edx, %ebp
	imull	%edx, %ebp
	movl	%ebp, %r9d
	subl	%r8d, %r9d
	movl	24(%rax), %eax
	leal	37429(%rax), %r8d
	addl	$2, %eax
	movl	%r8d, %ebx
	imull	%eax, %ebx
	imull	%eax, %ebx
	imull	%eax, %ebx
	imull	%eax, %ebx
	imull	%eax, %ebx
	imull	%eax, %ebx
	imull	%eax, %ebx
	imull	%eax, %ebx
	imull	%eax, %ebx
	imull	%eax, %ebx
	movl	%ebx, %r13d
	subl	%r8d, %r13d
	leaq	-1(%r14), %r8
	testq	%r14, %r14
	je	.L191
.L192:
	subl	%r11d, %edi
	subl	%r10d, %r12d
	subl	%r9d, %ebp
	subl	%r13d, %ebx
	imull	%esi, %edi
	imull	%ecx, %r12d
	imull	%edx, %ebp
	imull	%eax, %ebx
	imull	%esi, %edi
	imull	%ecx, %r12d
	imull	%edx, %ebp
	imull	%eax, %ebx
	imull	%esi, %edi
	imull	%ecx, %r12d
	imull	%edx, %ebp
	imull	%eax, %ebx
	imull	%esi, %edi
	imull	%ecx, %r12d
	imull	%edx, %ebp
	imull	%eax, %ebx
	imull	%esi, %edi
	imull	%ecx, %r12d
	imull	%edx, %ebp
	imull	%eax, %ebx
	imull	%esi, %edi
	imull	%ecx, %r12d
	imull	%edx, %ebp
	imull	%eax, %ebx
	imull	%esi, %edi
	imull	%ecx, %r12d
	imull	%edx, %ebp
	imull	%eax, %ebx
	imull	%esi, %edi
	imull	%ecx, %r12d
	imull	%edx, %ebp
	imull	%eax, %ebx
	imull	%esi, %edi
	imull	%ecx, %r12d
	imull	%edx, %ebp
	imull	%eax, %ebx
	imull	%esi, %edi
	imull	%ecx, %r12d
	imull	%edx, %ebp
	imull	%eax, %ebx
	subq	$1, %r8
	cmpq	$-1, %r8
	jne	.L192
.L191:
	call	use_int@PLT
	movl	%r12d, %edi
	call	use_int@PLT
	movl	%ebp, %edi
	call	use_int@PLT
	movl	%ebx, %edi
	call	use_int@PLT
	popq	%rbx
	.cfi_def_cfa_offset 40
	popq	%rbp
	.cfi_def_cfa_offset 32
	popq	%r12
	.cfi_def_cfa_offset 24
	popq	%r13
	.cfi_def_cfa_offset 16
	popq	%r14
	.cfi_def_cfa_offset 8
	ret
	.cfi_endproc
.LFE108:
	.size	integer_mul_3, .-integer_mul_3
	.globl	integer_mul_4
	.type	integer_mul_4, @function
integer_mul_4:
.LFB109:
	.cfi_startproc
	endbr64
	pushq	%r15
	.cfi_def_cfa_offset 16
	.cfi_offset 15, -16
	pushq	%r14
	.cfi_def_cfa_offset 24
	.cfi_offset 14, -24
	pushq	%r13
	.cfi_def_cfa_offset 32
	.cfi_offset 13, -32
	pushq	%r12
	.cfi_def_cfa_offset 40
	.cfi_offset 12, -40
	pushq	%rbp
	.cfi_def_cfa_offset 48
	.cfi_offset 6, -48
	pushq	%rbx
	.cfi_def_cfa_offset 56
	.cfi_offset 3, -56
	subq	$24, %rsp
	.cfi_def_cfa_offset 80
	movq	%rdi, 8(%rsp)
	movq	%rsi, %rax
	movl	12(%rsi), %r8d
	leal	37432(%r8), %edx
	addl	$5, %r8d
	movl	%edx, %ecx
	imull	%r8d, %ecx
	movl	%ecx, %edi
	imull	%r8d, %edi
	imull	%r8d, %edi
	imull	%r8d, %edi
	imull	%r8d, %edi
	imull	%r8d, %edi
	imull	%r8d, %edi
	imull	%r8d, %edi
	imull	%r8d, %edi
	imull	%r8d, %edi
	movl	%edi, %r11d
	subl	%edx, %r11d
	movl	16(%rsi), %esi
	leal	37431(%rsi), %edx
	addl	$4, %esi
	movl	%edx, %r13d
	imull	%esi, %r13d
	imull	%esi, %r13d
	imull	%esi, %r13d
	imull	%esi, %r13d
	imull	%esi, %r13d
	imull	%esi, %r13d
	imull	%esi, %r13d
	imull	%esi, %r13d
	imull	%esi, %r13d
	imull	%esi, %r13d
	movl	%r13d, %r15d
	subl	%edx, %r15d
	movl	20(%rax), %ecx
	leal	37430(%rcx), %edx
	addl	$3, %ecx
	movl	%edx, %r12d
	imull	%ecx, %r12d
	imull	%ecx, %r12d
	imull	%ecx, %r12d
	imull	%ecx, %r12d
	imull	%ecx, %r12d
	imull	%ecx, %r12d
	imull	%ecx, %r12d
	imull	%ecx, %r12d
	imull	%ecx, %r12d
	imull	%ecx, %r12d
	movl	%r12d, %ebx
	subl	%edx, %ebx
	movl	%ebx, 4(%rsp)
	movl	24(%rax), %edx
	leal	37429(%rdx), %r9d
	addl	$2, %edx
	movl	%r9d, %ebp
	imull	%edx, %ebp
	imull	%edx, %ebp
	imull	%edx, %ebp
	imull	%edx, %ebp
	imull	%edx, %ebp
	imull	%edx, %ebp
	imull	%edx, %ebp
	imull	%edx, %ebp
	imull	%edx, %ebp
	imull	%edx, %ebp
	movl	%ebp, %r14d
	subl	%r9d, %r14d
	movl	28(%rax), %eax
	leal	37428(%rax), %r9d
	addl	$1, %eax
	movl	%r9d, %ebx
	imull	%eax, %ebx
	imull	%eax, %ebx
	imull	%eax, %ebx
	imull	%eax, %ebx
	imull	%eax, %ebx
	imull	%eax, %ebx
	imull	%eax, %ebx
	imull	%eax, %ebx
	imull	%eax, %ebx
	imull	%eax, %ebx
	movl	%ebx, %r10d
	subl	%r9d, %r10d
	movq	8(%rsp), %r9
	subq	$1, %r9
	cmpq	$0, 8(%rsp)
	je	.L196
.L197:
	subl	%r11d, %edi
	subl	%r15d, %r13d
	subl	4(%rsp), %r12d
	subl	%r14d, %ebp
	subl	%r10d, %ebx
	imull	%r8d, %edi
	imull	%esi, %r13d
	imull	%ecx, %r12d
	imull	%edx, %ebp
	imull	%eax, %ebx
	imull	%r8d, %edi
	imull	%esi, %r13d
	imull	%ecx, %r12d
	imull	%edx, %ebp
	imull	%eax, %ebx
	imull	%r8d, %edi
	imull	%esi, %r13d
	imull	%ecx, %r12d
	imull	%edx, %ebp
	imull	%eax, %ebx
	imull	%r8d, %edi
	imull	%esi, %r13d
	imull	%ecx, %r12d
	imull	%edx, %ebp
	imull	%eax, %ebx
	imull	%r8d, %edi
	imull	%esi, %r13d
	imull	%ecx, %r12d
	imull	%edx, %ebp
	imull	%eax, %ebx
	imull	%r8d, %edi
	imull	%esi, %r13d
	imull	%ecx, %r12d
	imull	%edx, %ebp
	imull	%eax, %ebx
	imull	%r8d, %edi
	imull	%esi, %r13d
	imull	%ecx, %r12d
	imull	%edx, %ebp
	imull	%eax, %ebx
	imull	%r8d, %edi
	imull	%esi, %r13d
	imull	%ecx, %r12d
	imull	%edx, %ebp
	imull	%eax, %ebx
	imull	%r8d, %edi
	imull	%esi, %r13d
	imull	%ecx, %r12d
	imull	%edx, %ebp
	imull	%eax, %ebx
	imull	%r8d, %edi
	imull	%esi, %r13d
	imull	%ecx, %r12d
	imull	%edx, %ebp
	imull	%eax, %ebx
	subq	$1, %r9
	cmpq	$-1, %r9
	jne	.L197
.L196:
	call	use_int@PLT
	movl	%r13d, %edi
	call	use_int@PLT
	movl	%r12d, %edi
	call	use_int@PLT
	movl	%ebp, %edi
	call	use_int@PLT
	movl	%ebx, %edi
	call	use_int@PLT
	addq	$24, %rsp
	.cfi_def_cfa_offset 56
	popq	%rbx
	.cfi_def_cfa_offset 48
	popq	%rbp
	.cfi_def_cfa_offset 40
	popq	%r12
	.cfi_def_cfa_offset 32
	popq	%r13
	.cfi_def_cfa_offset 24
	popq	%r14
	.cfi_def_cfa_offset 16
	popq	%r15
	.cfi_def_cfa_offset 8
	ret
	.cfi_endproc
.LFE109:
	.size	integer_mul_4, .-integer_mul_4
	.globl	integer_mul_5
	.type	integer_mul_5, @function
integer_mul_5:
.LFB110:
	.cfi_startproc
	endbr64
	pushq	%r15
	.cfi_def_cfa_offset 16
	.cfi_offset 15, -16
	pushq	%r14
	.cfi_def_cfa_offset 24
	.cfi_offset 14, -24
	pushq	%r13
	.cfi_def_cfa_offset 32
	.cfi_offset 13, -32
	pushq	%r12
	.cfi_def_cfa_offset 40
	.cfi_offset 12, -40
	pushq	%rbp
	.cfi_def_cfa_offset 48
	.cfi_offset 6, -48
	pushq	%rbx
	.cfi_def_cfa_offset 56
	.cfi_offset 3, -56
	subq	$40, %rsp
	.cfi_def_cfa_offset 96
	movq	%rdi, %r10
	movq	%rsi, %r9
	movl	12(%rsi), %r8d
	leal	37432(%r8), %eax
	addl	$5, %r8d
	movl	%eax, %edi
	imull	%r8d, %edi
	imull	%r8d, %edi
	imull	%r8d, %edi
	imull	%r8d, %edi
	imull	%r8d, %edi
	imull	%r8d, %edi
	imull	%r8d, %edi
	imull	%r8d, %edi
	imull	%r8d, %edi
	imull	%r8d, %edi
	movl	%edi, %edx
	subl	%eax, %edx
	movl	%edx, 28(%rsp)
	movl	16(%rsi), %esi
	leal	37431(%rsi), %eax
	addl	$4, %esi
	movl	%eax, %r12d
	imull	%esi, %r12d
	imull	%esi, %r12d
	imull	%esi, %r12d
	imull	%esi, %r12d
	imull	%esi, %r12d
	imull	%esi, %r12d
	imull	%esi, %r12d
	imull	%esi, %r12d
	imull	%esi, %r12d
	imull	%esi, %r12d
	movl	%r12d, %ecx
	subl	%eax, %ecx
	movl	%ecx, 8(%rsp)
	movl	20(%r9), %ecx
	leal	37430(%rcx), %edx
	addl	$3, %ecx
	movl	%edx, %eax
	imull	%ecx, %eax
	imull	%ecx, %eax
	imull	%ecx, %eax
	imull	%ecx, %eax
	imull	%ecx, %eax
	imull	%ecx, %eax
	imull	%ecx, %eax
	imull	%ecx, %eax
	imull	%ecx, %eax
	imull	%ecx, %eax
	movl	%eax, %r13d
	subl	%edx, %eax
	movl	%eax, 12(%rsp)
	movl	24(%r9), %edx
	leal	37429(%rdx), %eax
	addl	$2, %edx
	movl	%eax, %r11d
	imull	%edx, %r11d
	imull	%edx, %r11d
	imull	%edx, %r11d
	imull	%edx, %r11d
	imull	%edx, %r11d
	imull	%edx, %r11d
	imull	%edx, %r11d
	imull	%edx, %r11d
	imull	%edx, %r11d
	movl	%r11d, %r14d
	imull	%edx, %r14d
	movl	%r14d, %ebx
	subl	%eax, %ebx
	movl	%ebx, 16(%rsp)
	movl	28(%r9), %eax
	leal	37428(%rax), %r11d
	addl	$1, %eax
	movl	%r11d, %ebp
	imull	%eax, %ebp
	imull	%eax, %ebp
	imull	%eax, %ebp
	imull	%eax, %ebp
	imull	%eax, %ebp
	imull	%eax, %ebp
	imull	%eax, %ebp
	imull	%eax, %ebp
	imull	%eax, %ebp
	imull	%eax, %ebp
	movl	%ebp, %ebx
	subl	%r11d, %ebx
	movl	%ebx, 20(%rsp)
	movl	32(%r9), %r9d
	leal	37427(%r9), %r11d
	movl	%r9d, %ebx
	imull	%r11d, %ebx
	imull	%r9d, %ebx
	imull	%r9d, %ebx
	imull	%r9d, %ebx
	imull	%r9d, %ebx
	imull	%r9d, %ebx
	imull	%r9d, %ebx
	imull	%r9d, %ebx
	imull	%r9d, %ebx
	imull	%r9d, %ebx
	movl	%ebx, %r15d
	subl	%r11d, %r15d
	movl	%r15d, 24(%rsp)
	testq	%r10, %r10
	je	.L201
	leaq	-1(%r10), %r15
	movl	28(%rsp), %r11d
.L202:
	subl	%r11d, %edi
	movl	%r12d, %r10d
	subl	8(%rsp), %r10d
	subl	12(%rsp), %r13d
	subl	16(%rsp), %r14d
	subl	20(%rsp), %ebp
	subl	24(%rsp), %ebx
	imull	%r8d, %edi
	imull	%esi, %r10d
	movl	%r10d, %r12d
	imull	%ecx, %r13d
	imull	%edx, %r14d
	imull	%eax, %ebp
	imull	%r9d, %ebx
	imull	%r8d, %edi
	imull	%esi, %r12d
	imull	%ecx, %r13d
	imull	%edx, %r14d
	imull	%eax, %ebp
	imull	%r9d, %ebx
	imull	%r8d, %edi
	imull	%esi, %r12d
	imull	%ecx, %r13d
	imull	%edx, %r14d
	imull	%eax, %ebp
	imull	%r9d, %ebx
	imull	%r8d, %edi
	imull	%esi, %r12d
	imull	%ecx, %r13d
	imull	%edx, %r14d
	imull	%eax, %ebp
	imull	%r9d, %ebx
	imull	%r8d, %edi
	imull	%esi, %r12d
	imull	%ecx, %r13d
	imull	%edx, %r14d
	imull	%eax, %ebp
	imull	%r9d, %ebx
	imull	%r8d, %edi
	imull	%esi, %r12d
	imull	%ecx, %r13d
	imull	%edx, %r14d
	imull	%eax, %ebp
	imull	%r9d, %ebx
	imull	%r8d, %edi
	imull	%esi, %r12d
	imull	%ecx, %r13d
	imull	%edx, %r14d
	imull	%eax, %ebp
	imull	%r9d, %ebx
	imull	%r8d, %edi
	imull	%esi, %r12d
	imull	%ecx, %r13d
	imull	%edx, %r14d
	imull	%eax, %ebp
	imull	%r9d, %ebx
	imull	%r8d, %edi
	imull	%esi, %r12d
	imull	%ecx, %r13d
	imull	%edx, %r14d
	imull	%eax, %ebp
	imull	%r9d, %ebx
	imull	%r8d, %edi
	imull	%esi, %r12d
	imull	%ecx, %r13d
	imull	%edx, %r14d
	imull	%eax, %ebp
	imull	%r9d, %ebx
	subq	$1, %r15
	cmpq	$-1, %r15
	jne	.L202
.L201:
	call	use_int@PLT
	movl	%r12d, %edi
	call	use_int@PLT
	movl	%r13d, %edi
	call	use_int@PLT
	movl	%r14d, %edi
	call	use_int@PLT
	movl	%ebp, %edi
	call	use_int@PLT
	movl	%ebx, %edi
	call	use_int@PLT
	addq	$40, %rsp
	.cfi_def_cfa_offset 56
	popq	%rbx
	.cfi_def_cfa_offset 48
	popq	%rbp
	.cfi_def_cfa_offset 40
	popq	%r12
	.cfi_def_cfa_offset 32
	popq	%r13
	.cfi_def_cfa_offset 24
	popq	%r14
	.cfi_def_cfa_offset 16
	popq	%r15
	.cfi_def_cfa_offset 8
	ret
	.cfi_endproc
.LFE110:
	.size	integer_mul_5, .-integer_mul_5
	.globl	integer_mul_6
	.type	integer_mul_6, @function
integer_mul_6:
.LFB111:
	.cfi_startproc
	endbr64
	pushq	%r15
	.cfi_def_cfa_offset 16
	.cfi_offset 15, -16
	pushq	%r14
	.cfi_def_cfa_offset 24
	.cfi_offset 14, -24
	pushq	%r13
	.cfi_def_cfa_offset 32
	.cfi_offset 13, -32
	pushq	%r12
	.cfi_def_cfa_offset 40
	.cfi_offset 12, -40
	pushq	%rbp
	.cfi_def_cfa_offset 48
	.cfi_offset 6, -48
	pushq	%rbx
	.cfi_def_cfa_offset 56
	.cfi_offset 3, -56
	subq	$56, %rsp
	.cfi_def_cfa_offset 112
	movq	%rdi, %r11
	movq	%rsi, %rax
	movl	12(%rsi), %r8d
	leal	37432(%r8), %ecx
	addl	$5, %r8d
	movl	%ecx, %edx
	imull	%r8d, %edx
	imull	%r8d, %edx
	imull	%r8d, %edx
	imull	%r8d, %edx
	imull	%r8d, %edx
	imull	%r8d, %edx
	imull	%r8d, %edx
	imull	%r8d, %edx
	imull	%r8d, %edx
	imull	%r8d, %edx
	movl	%edx, %r14d
	movl	%edx, %esi
	subl	%ecx, %esi
	movl	%esi, 12(%rsp)
	movl	16(%rax), %edi
	leal	37431(%rdi), %ecx
	addl	$4, %edi
	movl	%ecx, %edx
	imull	%edi, %edx
	imull	%edi, %edx
	imull	%edi, %edx
	imull	%edi, %edx
	imull	%edi, %edx
	imull	%edi, %edx
	imull	%edi, %edx
	imull	%edi, %edx
	imull	%edi, %edx
	imull	%edi, %edx
	movl	%edx, %r13d
	movl	%edx, %esi
	subl	%ecx, %esi
	movl	%esi, 16(%rsp)
	movl	20(%rax), %esi
	leal	37430(%rsi), %ecx
	addl	$3, %esi
	movl	%ecx, %edx
	imull	%esi, %edx
	imull	%esi, %edx
	imull	%esi, %edx
	imull	%esi, %edx
	imull	%esi, %edx
	imull	%esi, %edx
	imull	%esi, %edx
	imull	%esi, %edx
	imull	%esi, %edx
	imull	%esi, %edx
	movl	%edx, %r12d
	subl	%ecx, %edx
	movl	%edx, 20(%rsp)
	movl	24(%rax), %ecx
	leal	37429(%rcx), %edx
	addl	$2, %ecx
	movl	%edx, %r9d
	imull	%ecx, %r9d
	imull	%ecx, %r9d
	imull	%ecx, %r9d
	imull	%ecx, %r9d
	imull	%ecx, %r9d
	imull	%ecx, %r9d
	imull	%ecx, %r9d
	imull	%ecx, %r9d
	imull	%ecx, %r9d
	imull	%ecx, %r9d
	movl	%r9d, 40(%rsp)
	movl	%r9d, %ebx
	subl	%edx, %ebx
	movl	%ebx, 24(%rsp)
	movl	28(%rax), %edx
	leal	37428(%rdx), %r9d
	addl	$1, %edx
	movl	%r9d, %r10d
	imull	%edx, %r10d
	imull	%edx, %r10d
	imull	%edx, %r10d
	imull	%edx, %r10d
	imull	%edx, %r10d
	imull	%edx, %r10d
	imull	%edx, %r10d
	imull	%edx, %r10d
	imull	%edx, %r10d
	imull	%edx, %r10d
	movl	%r10d, 44(%rsp)
	movl	%r10d, %r15d
	subl	%r9d, %r15d
	movl	%r15d, 28(%rsp)
	movl	32(%rax), %r9d
	leal	37427(%r9), %r10d
	movl	%r9d, %ebp
	imull	%r10d, %ebp
	imull	%r9d, %ebp
	imull	%r9d, %ebp
	imull	%r9d, %ebp
	imull	%r9d, %ebp
	imull	%r9d, %ebp
	imull	%r9d, %ebp
	imull	%r9d, %ebp
	imull	%r9d, %ebp
	imull	%r9d, %ebp
	movl	%ebp, %ebx
	subl	%r10d, %ebx
	movl	%ebx, 32(%rsp)
	movl	36(%rax), %eax
	leal	37426(%rax), %r10d
	subl	$1, %eax
	movl	%r10d, %ebx
	imull	%eax, %ebx
	imull	%eax, %ebx
	imull	%eax, %ebx
	imull	%eax, %ebx
	imull	%eax, %ebx
	imull	%eax, %ebx
	imull	%eax, %ebx
	imull	%eax, %ebx
	imull	%eax, %ebx
	imull	%eax, %ebx
	movl	%ebx, %r15d
	subl	%r10d, %r15d
	movl	%r15d, 36(%rsp)
	testq	%r11, %r11
	je	.L206
	leaq	-1(%r11), %r15
	movl	%r9d, %r11d
	movl	%r8d, %r10d
	movl	40(%rsp), %r8d
	movl	44(%rsp), %r9d
.L207:
	subl	12(%rsp), %r14d
	subl	16(%rsp), %r13d
	subl	20(%rsp), %r12d
	subl	24(%rsp), %r8d
	subl	28(%rsp), %r9d
	subl	32(%rsp), %ebp
	subl	36(%rsp), %ebx
	imull	%r10d, %r14d
	imull	%edi, %r13d
	imull	%esi, %r12d
	imull	%ecx, %r8d
	imull	%edx, %r9d
	imull	%r11d, %ebp
	imull	%eax, %ebx
	imull	%r10d, %r14d
	imull	%edi, %r13d
	imull	%esi, %r12d
	imull	%ecx, %r8d
	imull	%edx, %r9d
	imull	%r11d, %ebp
	imull	%eax, %ebx
	imull	%r10d, %r14d
	imull	%edi, %r13d
	imull	%esi, %r12d
	imull	%ecx, %r8d
	imull	%edx, %r9d
	imull	%r11d, %ebp
	imull	%eax, %ebx
	imull	%r10d, %r14d
	imull	%edi, %r13d
	imull	%esi, %r12d
	imull	%ecx, %r8d
	imull	%edx, %r9d
	imull	%r11d, %ebp
	imull	%eax, %ebx
	imull	%r10d, %r14d
	imull	%edi, %r13d
	imull	%esi, %r12d
	imull	%ecx, %r8d
	imull	%edx, %r9d
	imull	%r11d, %ebp
	imull	%eax, %ebx
	imull	%r10d, %r14d
	imull	%edi, %r13d
	imull	%esi, %r12d
	imull	%ecx, %r8d
	imull	%edx, %r9d
	imull	%r11d, %ebp
	imull	%eax, %ebx
	imull	%r10d, %r14d
	imull	%edi, %r13d
	imull	%esi, %r12d
	imull	%ecx, %r8d
	imull	%edx, %r9d
	imull	%r11d, %ebp
	imull	%eax, %ebx
	imull	%r10d, %r14d
	imull	%edi, %r13d
	imull	%esi, %r12d
	imull	%ecx, %r8d
	imull	%edx, %r9d
	imull	%r11d, %ebp
	imull	%eax, %ebx
	imull	%r10d, %r14d
	imull	%edi, %r13d
	imull	%esi, %r12d
	imull	%ecx, %r8d
	imull	%edx, %r9d
	imull	%r11d, %ebp
	imull	%eax, %ebx
	imull	%r10d, %r14d
	imull	%edi, %r13d
	imull	%esi, %r12d
	imull	%ecx, %r8d
	imull	%edx, %r9d
	imull	%r11d, %ebp
	imull	%eax, %ebx
	subq	$1, %r15
	cmpq	$-1, %r15
	jne	.L207
	movl	%r8d, 40(%rsp)
	movl	%r9d, 44(%rsp)
.L206:
	movl	%r14d, %edi
	call	use_int@PLT
	movl	%r13d, %edi
	call	use_int@PLT
	movl	%r12d, %edi
	call	use_int@PLT
	movl	40(%rsp), %edi
	call	use_int@PLT
	movl	44(%rsp), %edi
	call	use_int@PLT
	movl	%ebp, %edi
	call	use_int@PLT
	movl	%ebx, %edi
	call	use_int@PLT
	addq	$56, %rsp
	.cfi_def_cfa_offset 56
	popq	%rbx
	.cfi_def_cfa_offset 48
	popq	%rbp
	.cfi_def_cfa_offset 40
	popq	%r12
	.cfi_def_cfa_offset 32
	popq	%r13
	.cfi_def_cfa_offset 24
	popq	%r14
	.cfi_def_cfa_offset 16
	popq	%r15
	.cfi_def_cfa_offset 8
	ret
	.cfi_endproc
.LFE111:
	.size	integer_mul_6, .-integer_mul_6
	.globl	integer_mul_7
	.type	integer_mul_7, @function
integer_mul_7:
.LFB112:
	.cfi_startproc
	endbr64
	pushq	%r15
	.cfi_def_cfa_offset 16
	.cfi_offset 15, -16
	pushq	%r14
	.cfi_def_cfa_offset 24
	.cfi_offset 14, -24
	pushq	%r13
	.cfi_def_cfa_offset 32
	.cfi_offset 13, -32
	pushq	%r12
	.cfi_def_cfa_offset 40
	.cfi_offset 12, -40
	pushq	%rbp
	.cfi_def_cfa_offset 48
	.cfi_offset 6, -48
	pushq	%rbx
	.cfi_def_cfa_offset 56
	.cfi_offset 3, -56
	subq	$72, %rsp
	.cfi_def_cfa_offset 128
	movq	%rdi, %r10
	movq	%rsi, %rax
	movl	12(%rsi), %edi
	leal	37432(%rdi), %ecx
	addl	$5, %edi
	movl	%ecx, %edx
	imull	%edi, %edx
	imull	%edi, %edx
	imull	%edi, %edx
	imull	%edi, %edx
	imull	%edi, %edx
	imull	%edi, %edx
	imull	%edi, %edx
	imull	%edi, %edx
	imull	%edi, %edx
	imull	%edi, %edx
	movl	%edx, %r14d
	subl	%ecx, %edx
	movl	%edx, 20(%rsp)
	movl	16(%rsi), %esi
	leal	37431(%rsi), %ecx
	addl	$4, %esi
	movl	%ecx, %edx
	imull	%esi, %edx
	imull	%esi, %edx
	imull	%esi, %edx
	imull	%esi, %edx
	imull	%esi, %edx
	imull	%esi, %edx
	imull	%esi, %edx
	imull	%esi, %edx
	imull	%esi, %edx
	imull	%esi, %edx
	movl	%edx, %r13d
	subl	%ecx, %edx
	movl	%edx, 24(%rsp)
	movl	20(%rax), %edx
	leal	37430(%rdx), %ecx
	leal	3(%rdx), %r15d
	movl	%ecx, %edx
	imull	%r15d, %edx
	imull	%r15d, %edx
	imull	%r15d, %edx
	imull	%r15d, %edx
	imull	%r15d, %edx
	imull	%r15d, %edx
	imull	%r15d, %edx
	imull	%r15d, %edx
	imull	%r15d, %edx
	imull	%r15d, %edx
	movl	%edx, %r12d
	subl	%ecx, %edx
	movl	%edx, 28(%rsp)
	movl	24(%rax), %ecx
	leal	37429(%rcx), %edx
	leal	2(%rcx), %ebx
	movl	%ebx, 16(%rsp)
	movl	%ebx, %ecx
	imull	%edx, %ecx
	imull	%ebx, %ecx
	imull	%ebx, %ecx
	imull	%ebx, %ecx
	imull	%ebx, %ecx
	imull	%ebx, %ecx
	imull	%ebx, %ecx
	imull	%ebx, %ecx
	imull	%ebx, %ecx
	imull	%ebx, %ecx
	movl	%ecx, 52(%rsp)
	movl	%ecx, %ebx
	subl	%edx, %ebx
	movl	%ebx, 32(%rsp)
	movl	28(%rax), %ecx
	leal	37428(%rcx), %edx
	addl	$1, %ecx
	movl	%edx, %r8d
	imull	%ecx, %r8d
	imull	%ecx, %r8d
	imull	%ecx, %r8d
	imull	%ecx, %r8d
	imull	%ecx, %r8d
	imull	%ecx, %r8d
	imull	%ecx, %r8d
	imull	%ecx, %r8d
	imull	%ecx, %r8d
	imull	%ecx, %r8d
	movl	%r8d, 56(%rsp)
	movl	%r8d, %r11d
	subl	%edx, %r11d
	movl	%r11d, 36(%rsp)
	movl	32(%rax), %r8d
	leal	37427(%r8), %edx
	movl	%r8d, %r9d
	imull	%edx, %r9d
	imull	%r8d, %r9d
	imull	%r8d, %r9d
	imull	%r8d, %r9d
	imull	%r8d, %r9d
	imull	%r8d, %r9d
	imull	%r8d, %r9d
	imull	%r8d, %r9d
	imull	%r8d, %r9d
	imull	%r8d, %r9d
	movl	%r9d, 60(%rsp)
	movl	%r9d, %ebp
	subl	%edx, %ebp
	movl	%ebp, 40(%rsp)
	movl	36(%rax), %edx
	leal	37426(%rdx), %r9d
	subl	$1, %edx
	movl	%r9d, %ebp
	imull	%edx, %ebp
	imull	%edx, %ebp
	imull	%edx, %ebp
	imull	%edx, %ebp
	imull	%edx, %ebp
	imull	%edx, %ebp
	imull	%edx, %ebp
	imull	%edx, %ebp
	imull	%edx, %ebp
	imull	%edx, %ebp
	movl	%ebp, %ebx
	subl	%r9d, %ebx
	movl	%ebx, 44(%rsp)
	movl	40(%rax), %eax
	leal	37425(%rax), %r9d
	subl	$2, %eax
	movl	%r9d, %ebx
	imull	%eax, %ebx
	imull	%eax, %ebx
	imull	%eax, %ebx
	imull	%eax, %ebx
	imull	%eax, %ebx
	imull	%eax, %ebx
	imull	%eax, %ebx
	imull	%eax, %ebx
	imull	%eax, %ebx
	imull	%eax, %ebx
	movl	%ebx, %r11d
	subl	%r9d, %r11d
	movl	%r11d, 48(%rsp)
	leaq	-1(%r10), %r11
	movq	%r11, 8(%rsp)
	testq	%r10, %r10
	je	.L211
	movl	%r8d, %r11d
	movl	%edi, %r10d
	movl	%esi, %r9d
	movl	52(%rsp), %r8d
	movl	56(%rsp), %esi
	movl	60(%rsp), %edi
.L212:
	subl	20(%rsp), %r14d
	subl	24(%rsp), %r13d
	subl	28(%rsp), %r12d
	subl	32(%rsp), %r8d
	subl	36(%rsp), %esi
	subl	40(%rsp), %edi
	subl	44(%rsp), %ebp
	subl	48(%rsp), %ebx
	imull	%r10d, %r14d
	imull	%r9d, %r13d
	imull	%r15d, %r12d
	imull	16(%rsp), %r8d
	imull	%ecx, %esi
	imull	%r11d, %edi
	imull	%edx, %ebp
	imull	%eax, %ebx
	imull	%r10d, %r14d
	imull	%r9d, %r13d
	imull	%r15d, %r12d
	imull	16(%rsp), %r8d
	imull	%ecx, %esi
	imull	%r11d, %edi
	imull	%edx, %ebp
	imull	%eax, %ebx
	imull	%r10d, %r14d
	imull	%r9d, %r13d
	imull	%r15d, %r12d
	imull	16(%rsp), %r8d
	imull	%ecx, %esi
	imull	%r11d, %edi
	imull	%edx, %ebp
	imull	%eax, %ebx
	imull	%r10d, %r14d
	imull	%r9d, %r13d
	imull	%r15d, %r12d
	imull	16(%rsp), %r8d
	imull	%ecx, %esi
	imull	%r11d, %edi
	imull	%edx, %ebp
	imull	%eax, %ebx
	imull	%r10d, %r14d
	imull	%r9d, %r13d
	imull	%r15d, %r12d
	imull	16(%rsp), %r8d
	imull	%ecx, %esi
	imull	%r11d, %edi
	imull	%edx, %ebp
	imull	%eax, %ebx
	imull	%r10d, %r14d
	imull	%r9d, %r13d
	imull	%r15d, %r12d
	imull	16(%rsp), %r8d
	imull	%ecx, %esi
	imull	%r11d, %edi
	imull	%edx, %ebp
	imull	%eax, %ebx
	imull	%r10d, %r14d
	imull	%r9d, %r13d
	imull	%r15d, %r12d
	imull	16(%rsp), %r8d
	imull	%ecx, %esi
	imull	%r11d, %edi
	imull	%edx, %ebp
	imull	%eax, %ebx
	imull	%r10d, %r14d
	imull	%r9d, %r13d
	imull	%r15d, %r12d
	imull	16(%rsp), %r8d
	imull	%ecx, %esi
	imull	%r11d, %edi
	imull	%edx, %ebp
	imull	%eax, %ebx
	imull	%r10d, %r14d
	imull	%r9d, %r13d
	imull	%r15d, %r12d
	imull	16(%rsp), %r8d
	imull	%ecx, %esi
	imull	%r11d, %edi
	imull	%edx, %ebp
	imull	%eax, %ebx
	imull	%r10d, %r14d
	imull	%r9d, %r13d
	imull	%r15d, %r12d
	imull	16(%rsp), %r8d
	imull	%ecx, %esi
	imull	%r11d, %edi
	imull	%edx, %ebp
	imull	%eax, %ebx
	subq	$1, 8(%rsp)
	cmpq	$-1, 8(%rsp)
	jne	.L212
	movl	%r8d, 52(%rsp)
	movl	%esi, 56(%rsp)
	movl	%edi, 60(%rsp)
.L211:
	movl	%r14d, %edi
	call	use_int@PLT
	movl	%r13d, %edi
	call	use_int@PLT
	movl	%r12d, %edi
	call	use_int@PLT
	movl	52(%rsp), %edi
	call	use_int@PLT
	movl	56(%rsp), %edi
	call	use_int@PLT
	movl	60(%rsp), %edi
	call	use_int@PLT
	movl	%ebp, %edi
	call	use_int@PLT
	movl	%ebx, %edi
	call	use_int@PLT
	addq	$72, %rsp
	.cfi_def_cfa_offset 56
	popq	%rbx
	.cfi_def_cfa_offset 48
	popq	%rbp
	.cfi_def_cfa_offset 40
	popq	%r12
	.cfi_def_cfa_offset 32
	popq	%r13
	.cfi_def_cfa_offset 24
	popq	%r14
	.cfi_def_cfa_offset 16
	popq	%r15
	.cfi_def_cfa_offset 8
	ret
	.cfi_endproc
.LFE112:
	.size	integer_mul_7, .-integer_mul_7
	.globl	integer_mul_8
	.type	integer_mul_8, @function
integer_mul_8:
.LFB113:
	.cfi_startproc
	endbr64
	pushq	%r15
	.cfi_def_cfa_offset 16
	.cfi_offset 15, -16
	pushq	%r14
	.cfi_def_cfa_offset 24
	.cfi_offset 14, -24
	pushq	%r13
	.cfi_def_cfa_offset 32
	.cfi_offset 13, -32
	pushq	%r12
	.cfi_def_cfa_offset 40
	.cfi_offset 12, -40
	pushq	%rbp
	.cfi_def_cfa_offset 48
	.cfi_offset 6, -48
	pushq	%rbx
	.cfi_def_cfa_offset 56
	.cfi_offset 3, -56
	subq	$88, %rsp
	.cfi_def_cfa_offset 144
	movq	%rdi, %r9
	movq	%rsi, %rax
	movl	12(%rsi), %esi
	leal	37432(%rsi), %ecx
	addl	$5, %esi
	movl	%ecx, %edx
	imull	%esi, %edx
	imull	%esi, %edx
	imull	%esi, %edx
	imull	%esi, %edx
	imull	%esi, %edx
	imull	%esi, %edx
	imull	%esi, %edx
	imull	%esi, %edx
	imull	%esi, %edx
	imull	%esi, %edx
	movl	%edx, %r14d
	subl	%ecx, %edx
	movl	%edx, 28(%rsp)
	movl	16(%rax), %edx
	leal	37431(%rdx), %ecx
	leal	4(%rdx), %r15d
	movl	%ecx, %edx
	imull	%r15d, %edx
	imull	%r15d, %edx
	imull	%r15d, %edx
	imull	%r15d, %edx
	imull	%r15d, %edx
	imull	%r15d, %edx
	imull	%r15d, %edx
	imull	%r15d, %edx
	imull	%r15d, %edx
	imull	%r15d, %edx
	movl	%edx, %r13d
	subl	%ecx, %edx
	movl	%edx, 32(%rsp)
	movl	20(%rax), %edx
	leal	37430(%rdx), %ecx
	leal	3(%rdx), %ebx
	movl	%ebx, 8(%rsp)
	movl	%ebx, %edx
	imull	%ecx, %edx
	imull	%ebx, %edx
	imull	%ebx, %edx
	imull	%ebx, %edx
	imull	%ebx, %edx
	imull	%ebx, %edx
	imull	%ebx, %edx
	imull	%ebx, %edx
	imull	%ebx, %edx
	imull	%ebx, %edx
	movl	%edx, %r12d
	subl	%ecx, %edx
	movl	%edx, 36(%rsp)
	movl	24(%rax), %ecx
	leal	37429(%rcx), %edx
	leal	2(%rcx), %edi
	movl	%edi, 12(%rsp)
	movl	%edi, %ecx
	imull	%edx, %ecx
	imull	%edi, %ecx
	imull	%edi, %ecx
	imull	%edi, %ecx
	imull	%edi, %ecx
	imull	%edi, %ecx
	imull	%edi, %ecx
	imull	%edi, %ecx
	imull	%edi, %ecx
	imull	%edi, %ecx
	movl	%ecx, 64(%rsp)
	movl	%ecx, %edi
	subl	%edx, %edi
	movl	%edi, 40(%rsp)
	movl	28(%rax), %ecx
	leal	37428(%rcx), %edx
	leal	1(%rcx), %ebx
	movl	%ebx, 24(%rsp)
	movl	%ebx, %ecx
	imull	%edx, %ecx
	imull	%ebx, %ecx
	imull	%ebx, %ecx
	imull	%ebx, %ecx
	imull	%ebx, %ecx
	imull	%ebx, %ecx
	imull	%ebx, %ecx
	imull	%ebx, %ecx
	imull	%ebx, %ecx
	imull	%ebx, %ecx
	movl	%ecx, %ebx
	movl	%ecx, 68(%rsp)
	subl	%edx, %ebx
	movl	%ebx, 44(%rsp)
	movl	32(%rax), %edi
	leal	37427(%rdi), %edx
	movl	%edi, %ecx
	imull	%edx, %ecx
	imull	%edi, %ecx
	imull	%edi, %ecx
	imull	%edi, %ecx
	imull	%edi, %ecx
	imull	%edi, %ecx
	imull	%edi, %ecx
	imull	%edi, %ecx
	imull	%edi, %ecx
	imull	%edi, %ecx
	movl	%ecx, %r10d
	movl	%ecx, 72(%rsp)
	subl	%edx, %r10d
	movl	%r10d, 48(%rsp)
	movl	36(%rax), %ecx
	leal	37426(%rcx), %r8d
	subl	$1, %ecx
	movl	%r8d, %edx
	imull	%ecx, %edx
	imull	%ecx, %edx
	imull	%ecx, %edx
	imull	%ecx, %edx
	imull	%ecx, %edx
	imull	%ecx, %edx
	imull	%ecx, %edx
	imull	%ecx, %edx
	imull	%ecx, %edx
	imull	%ecx, %edx
	movl	%edx, 76(%rsp)
	movl	%edx, %r11d
	subl	%r8d, %r11d
	movl	%r11d, 52(%rsp)
	movl	40(%rax), %edx
	leal	37425(%rdx), %r8d
	subl	$2, %edx
	movl	%r8d, %ebp
	imull	%edx, %ebp
	imull	%edx, %ebp
	imull	%edx, %ebp
	imull	%edx, %ebp
	imull	%edx, %ebp
	imull	%edx, %ebp
	imull	%edx, %ebp
	imull	%edx, %ebp
	imull	%edx, %ebp
	imull	%edx, %ebp
	movl	%ebp, %r11d
	subl	%r8d, %r11d
	movl	%r11d, 56(%rsp)
	movl	44(%rax), %eax
	leal	37424(%rax), %r8d
	subl	$3, %eax
	movl	%r8d, %ebx
	imull	%eax, %ebx
	imull	%eax, %ebx
	imull	%eax, %ebx
	imull	%eax, %ebx
	imull	%eax, %ebx
	imull	%eax, %ebx
	imull	%eax, %ebx
	imull	%eax, %ebx
	imull	%eax, %ebx
	imull	%eax, %ebx
	movl	%ebx, %r11d
	subl	%r8d, %r11d
	movl	%r11d, 60(%rsp)
	leaq	-1(%r9), %r8
	movq	%r8, 16(%rsp)
	testq	%r9, %r9
	je	.L216
	movl	%edi, %r11d
	movl	%esi, %r10d
	movl	64(%rsp), %r8d
	movl	68(%rsp), %r9d
	movl	72(%rsp), %esi
	movl	76(%rsp), %edi
.L217:
	subl	28(%rsp), %r14d
	subl	32(%rsp), %r13d
	subl	36(%rsp), %r12d
	subl	40(%rsp), %r8d
	subl	44(%rsp), %r9d
	subl	48(%rsp), %esi
	subl	52(%rsp), %edi
	subl	56(%rsp), %ebp
	subl	60(%rsp), %ebx
	imull	%r10d, %r14d
	imull	%r15d, %r13d
	imull	8(%rsp), %r12d
	imull	12(%rsp), %r8d
	imull	24(%rsp), %r9d
	imull	%r11d, %esi
	imull	%ecx, %edi
	imull	%edx, %ebp
	imull	%eax, %ebx
	imull	%r10d, %r14d
	imull	%r15d, %r13d
	imull	8(%rsp), %r12d
	imull	12(%rsp), %r8d
	imull	24(%rsp), %r9d
	imull	%r11d, %esi
	imull	%ecx, %edi
	imull	%edx, %ebp
	imull	%eax, %ebx
	imull	%r10d, %r14d
	imull	%r15d, %r13d
	imull	8(%rsp), %r12d
	imull	12(%rsp), %r8d
	imull	24(%rsp), %r9d
	imull	%r11d, %esi
	imull	%ecx, %edi
	imull	%edx, %ebp
	imull	%eax, %ebx
	imull	%r10d, %r14d
	imull	%r15d, %r13d
	imull	8(%rsp), %r12d
	imull	12(%rsp), %r8d
	imull	24(%rsp), %r9d
	imull	%r11d, %esi
	imull	%ecx, %edi
	imull	%edx, %ebp
	imull	%eax, %ebx
	imull	%r10d, %r14d
	imull	%r15d, %r13d
	imull	8(%rsp), %r12d
	imull	12(%rsp), %r8d
	imull	24(%rsp), %r9d
	imull	%r11d, %esi
	imull	%ecx, %edi
	imull	%edx, %ebp
	imull	%eax, %ebx
	imull	%r10d, %r14d
	imull	%r15d, %r13d
	imull	8(%rsp), %r12d
	imull	12(%rsp), %r8d
	imull	24(%rsp), %r9d
	imull	%r11d, %esi
	imull	%ecx, %edi
	imull	%edx, %ebp
	imull	%eax, %ebx
	imull	%r10d, %r14d
	imull	%r15d, %r13d
	imull	8(%rsp), %r12d
	imull	12(%rsp), %r8d
	imull	24(%rsp), %r9d
	imull	%r11d, %esi
	imull	%ecx, %edi
	imull	%edx, %ebp
	imull	%eax, %ebx
	imull	%r10d, %r14d
	imull	%r15d, %r13d
	imull	8(%rsp), %r12d
	imull	12(%rsp), %r8d
	imull	24(%rsp), %r9d
	imull	%r11d, %esi
	imull	%ecx, %edi
	imull	%edx, %ebp
	imull	%eax, %ebx
	imull	%r10d, %r14d
	imull	%r15d, %r13d
	imull	8(%rsp), %r12d
	imull	12(%rsp), %r8d
	imull	24(%rsp), %r9d
	imull	%r11d, %esi
	imull	%ecx, %edi
	imull	%edx, %ebp
	imull	%eax, %ebx
	imull	%r10d, %r14d
	imull	%r15d, %r13d
	imull	8(%rsp), %r12d
	imull	12(%rsp), %r8d
	imull	24(%rsp), %r9d
	imull	%r11d, %esi
	imull	%ecx, %edi
	imull	%edx, %ebp
	imull	%eax, %ebx
	subq	$1, 16(%rsp)
	cmpq	$-1, 16(%rsp)
	jne	.L217
	movl	%r8d, 64(%rsp)
	movl	%r9d, 68(%rsp)
	movl	%esi, 72(%rsp)
	movl	%edi, 76(%rsp)
.L216:
	movl	%r14d, %edi
	call	use_int@PLT
	movl	%r13d, %edi
	call	use_int@PLT
	movl	%r12d, %edi
	call	use_int@PLT
	movl	64(%rsp), %edi
	call	use_int@PLT
	movl	68(%rsp), %edi
	call	use_int@PLT
	movl	72(%rsp), %edi
	call	use_int@PLT
	movl	76(%rsp), %edi
	call	use_int@PLT
	movl	%ebp, %edi
	call	use_int@PLT
	movl	%ebx, %edi
	call	use_int@PLT
	addq	$88, %rsp
	.cfi_def_cfa_offset 56
	popq	%rbx
	.cfi_def_cfa_offset 48
	popq	%rbp
	.cfi_def_cfa_offset 40
	popq	%r12
	.cfi_def_cfa_offset 32
	popq	%r13
	.cfi_def_cfa_offset 24
	popq	%r14
	.cfi_def_cfa_offset 16
	popq	%r15
	.cfi_def_cfa_offset 8
	ret
	.cfi_endproc
.LFE113:
	.size	integer_mul_8, .-integer_mul_8
	.globl	integer_mul_9
	.type	integer_mul_9, @function
integer_mul_9:
.LFB114:
	.cfi_startproc
	endbr64
	pushq	%r15
	.cfi_def_cfa_offset 16
	.cfi_offset 15, -16
	pushq	%r14
	.cfi_def_cfa_offset 24
	.cfi_offset 14, -24
	pushq	%r13
	.cfi_def_cfa_offset 32
	.cfi_offset 13, -32
	pushq	%r12
	.cfi_def_cfa_offset 40
	.cfi_offset 12, -40
	pushq	%rbp
	.cfi_def_cfa_offset 48
	.cfi_offset 6, -48
	pushq	%rbx
	.cfi_def_cfa_offset 56
	.cfi_offset 3, -56
	subq	$104, %rsp
	.cfi_def_cfa_offset 160
	movq	%rdi, %r8
	movq	%rsi, %rax
	movl	12(%rsi), %edx
	leal	37432(%rdx), %ecx
	leal	5(%rdx), %esi
	movl	%esi, 8(%rsp)
	movl	%esi, %edx
	imull	%ecx, %edx
	imull	%esi, %edx
	imull	%esi, %edx
	imull	%esi, %edx
	imull	%esi, %edx
	imull	%esi, %edx
	imull	%esi, %edx
	imull	%esi, %edx
	imull	%esi, %edx
	imull	%esi, %edx
	movl	%edx, %r14d
	movl	%edx, %edi
	subl	%ecx, %edi
	movl	%edi, 36(%rsp)
	movl	16(%rax), %edx
	leal	37431(%rdx), %ecx
	leal	4(%rdx), %edi
	movl	%edi, 12(%rsp)
	movl	%edi, %edx
	imull	%ecx, %edx
	imull	%edi, %edx
	imull	%edi, %edx
	imull	%edi, %edx
	imull	%edi, %edx
	imull	%edi, %edx
	imull	%edi, %edx
	imull	%edi, %edx
	imull	%edi, %edx
	imull	%edi, %edx
	movl	%edx, %r13d
	movl	%edx, %edi
	subl	%ecx, %edi
	movl	%edi, 40(%rsp)
	movl	20(%rax), %edx
	leal	37430(%rdx), %ecx
	leal	3(%rdx), %ebx
	movl	%ebx, 16(%rsp)
	movl	%ebx, %edx
	imull	%ecx, %edx
	imull	%ebx, %edx
	imull	%ebx, %edx
	imull	%ebx, %edx
	imull	%ebx, %edx
	imull	%ebx, %edx
	imull	%ebx, %edx
	imull	%ebx, %edx
	imull	%ebx, %edx
	imull	%ebx, %edx
	movl	%edx, %r12d
	movl	%edx, %edi
	subl	%ecx, %edi
	movl	%edi, 44(%rsp)
	movl	24(%rax), %ecx
	leal	37429(%rcx), %edx
	leal	2(%rcx), %esi
	movl	%esi, 20(%rsp)
	movl	%esi, %ecx
	imull	%edx, %ecx
	imull	%esi, %ecx
	imull	%esi, %ecx
	imull	%esi, %ecx
	imull	%esi, %ecx
	imull	%esi, %ecx
	imull	%esi, %ecx
	imull	%esi, %ecx
	imull	%esi, %ecx
	imull	%esi, %ecx
	movl	%ecx, 76(%rsp)
	movl	%ecx, %esi
	subl	%edx, %esi
	movl	%esi, 48(%rsp)
	movl	28(%rax), %ecx
	leal	37428(%rcx), %edx
	leal	1(%rcx), %ebx
	movl	%ebx, 32(%rsp)
	movl	%ebx, %ecx
	imull	%edx, %ecx
	imull	%ebx, %ecx
	imull	%ebx, %ecx
	imull	%ebx, %ecx
	imull	%ebx, %ecx
	imull	%ebx, %ecx
	imull	%ebx, %ecx
	imull	%ebx, %ecx
	imull	%ebx, %ecx
	movl	%ecx, %edi
	imull	%ebx, %edi
	movl	%edi, 80(%rsp)
	movl	%edi, %ebx
	subl	%edx, %ebx
	movl	%ebx, 52(%rsp)
	movl	32(%rax), %r15d
	leal	37427(%r15), %edx
	movl	%r15d, %ecx
	imull	%edx, %ecx
	imull	%r15d, %ecx
	imull	%r15d, %ecx
	imull	%r15d, %ecx
	imull	%r15d, %ecx
	imull	%r15d, %ecx
	imull	%r15d, %ecx
	imull	%r15d, %ecx
	imull	%r15d, %ecx
	imull	%r15d, %ecx
	movl	%ecx, %r9d
	movl	%ecx, 84(%rsp)
	subl	%edx, %r9d
	movl	%r9d, 56(%rsp)
	movl	36(%rax), %esi
	leal	37426(%rsi), %ecx
	subl	$1, %esi
	movl	%ecx, %edx
	imull	%esi, %edx
	imull	%esi, %edx
	imull	%esi, %edx
	imull	%esi, %edx
	imull	%esi, %edx
	imull	%esi, %edx
	imull	%esi, %edx
	imull	%esi, %edx
	imull	%esi, %edx
	imull	%esi, %edx
	movl	%edx, %r10d
	movl	%edx, 88(%rsp)
	subl	%ecx, %r10d
	movl	%r10d, 60(%rsp)
	movl	40(%rax), %ecx
	leal	37425(%rcx), %edi
	subl	$2, %ecx
	movl	%edi, %edx
	imull	%ecx, %edx
	imull	%ecx, %edx
	imull	%ecx, %edx
	imull	%ecx, %edx
	imull	%ecx, %edx
	imull	%ecx, %edx
	imull	%ecx, %edx
	imull	%ecx, %edx
	imull	%ecx, %edx
	imull	%ecx, %edx
	movl	%edx, %r11d
	movl	%edx, 92(%rsp)
	subl	%edi, %r11d
	movl	%r11d, 64(%rsp)
	movl	44(%rax), %edx
	leal	37424(%rdx), %edi
	subl	$3, %edx
	movl	%edi, %ebp
	imull	%edx, %ebp
	imull	%edx, %ebp
	imull	%edx, %ebp
	imull	%edx, %ebp
	imull	%edx, %ebp
	imull	%edx, %ebp
	imull	%edx, %ebp
	imull	%edx, %ebp
	imull	%edx, %ebp
	imull	%edx, %ebp
	movl	%ebp, %ebx
	subl	%edi, %ebx
	movl	%ebx, 68(%rsp)
	movl	48(%rax), %eax
	leal	37423(%rax), %edi
	subl	$4, %eax
	movl	%edi, %ebx
	imull	%eax, %ebx
	imull	%eax, %ebx
	imull	%eax, %ebx
	imull	%eax, %ebx
	imull	%eax, %ebx
	imull	%eax, %ebx
	imull	%eax, %ebx
	imull	%eax, %ebx
	imull	%eax, %ebx
	imull	%eax, %ebx
	movl	%ebx, %r9d
	subl	%edi, %r9d
	movl	%r9d, 72(%rsp)
	leaq	-1(%r8), %rdi
	movq	%rdi, 24(%rsp)
	testq	%r8, %r8
	je	.L221
	movl	%esi, %r11d
	movl	%ecx, %r10d
	movl	%edx, %r9d
	movl	76(%rsp), %edi
	movl	80(%rsp), %r8d
	movl	84(%rsp), %edx
	movl	88(%rsp), %ecx
	movl	92(%rsp), %esi
.L222:
	subl	36(%rsp), %r14d
	subl	40(%rsp), %r13d
	subl	44(%rsp), %r12d
	subl	48(%rsp), %edi
	subl	52(%rsp), %r8d
	subl	56(%rsp), %edx
	subl	60(%rsp), %ecx
	subl	64(%rsp), %esi
	subl	68(%rsp), %ebp
	subl	72(%rsp), %ebx
	imull	8(%rsp), %r14d
	imull	12(%rsp), %r13d
	imull	16(%rsp), %r12d
	imull	20(%rsp), %edi
	imull	32(%rsp), %r8d
	imull	%r15d, %edx
	imull	%r11d, %ecx
	imull	%r10d, %esi
	imull	%r9d, %ebp
	imull	%eax, %ebx
	imull	8(%rsp), %r14d
	imull	12(%rsp), %r13d
	imull	16(%rsp), %r12d
	imull	20(%rsp), %edi
	imull	32(%rsp), %r8d
	imull	%r15d, %edx
	imull	%r11d, %ecx
	imull	%r10d, %esi
	imull	%r9d, %ebp
	imull	%eax, %ebx
	imull	8(%rsp), %r14d
	imull	12(%rsp), %r13d
	imull	16(%rsp), %r12d
	imull	20(%rsp), %edi
	imull	32(%rsp), %r8d
	imull	%r15d, %edx
	imull	%r11d, %ecx
	imull	%r10d, %esi
	imull	%r9d, %ebp
	imull	%eax, %ebx
	imull	8(%rsp), %r14d
	imull	12(%rsp), %r13d
	imull	16(%rsp), %r12d
	imull	20(%rsp), %edi
	imull	32(%rsp), %r8d
	imull	%r15d, %edx
	imull	%r11d, %ecx
	imull	%r10d, %esi
	imull	%r9d, %ebp
	imull	%eax, %ebx
	imull	8(%rsp), %r14d
	imull	12(%rsp), %r13d
	imull	16(%rsp), %r12d
	imull	20(%rsp), %edi
	imull	32(%rsp), %r8d
	imull	%r15d, %edx
	imull	%r11d, %ecx
	imull	%r10d, %esi
	imull	%r9d, %ebp
	imull	%eax, %ebx
	imull	8(%rsp), %r14d
	imull	12(%rsp), %r13d
	imull	16(%rsp), %r12d
	imull	20(%rsp), %edi
	imull	32(%rsp), %r8d
	imull	%r15d, %edx
	imull	%r11d, %ecx
	imull	%r10d, %esi
	imull	%r9d, %ebp
	imull	%eax, %ebx
	imull	8(%rsp), %r14d
	imull	12(%rsp), %r13d
	imull	16(%rsp), %r12d
	imull	20(%rsp), %edi
	imull	32(%rsp), %r8d
	imull	%r15d, %edx
	imull	%r11d, %ecx
	imull	%r10d, %esi
	imull	%r9d, %ebp
	imull	%eax, %ebx
	imull	8(%rsp), %r14d
	imull	12(%rsp), %r13d
	imull	16(%rsp), %r12d
	imull	20(%rsp), %edi
	imull	32(%rsp), %r8d
	imull	%r15d, %edx
	imull	%r11d, %ecx
	imull	%r10d, %esi
	imull	%r9d, %ebp
	imull	%eax, %ebx
	imull	8(%rsp), %r14d
	imull	12(%rsp), %r13d
	imull	16(%rsp), %r12d
	imull	20(%rsp), %edi
	imull	32(%rsp), %r8d
	imull	%r15d, %edx
	imull	%r11d, %ecx
	imull	%r10d, %esi
	imull	%r9d, %ebp
	imull	%eax, %ebx
	imull	8(%rsp), %r14d
	imull	12(%rsp), %r13d
	imull	16(%rsp), %r12d
	imull	20(%rsp), %edi
	imull	32(%rsp), %r8d
	imull	%r15d, %edx
	imull	%r11d, %ecx
	imull	%r10d, %esi
	imull	%r9d, %ebp
	imull	%eax, %ebx
	subq	$1, 24(%rsp)
	cmpq	$-1, 24(%rsp)
	jne	.L222
	movl	%edi, 76(%rsp)
	movl	%r8d, 80(%rsp)
	movl	%edx, 84(%rsp)
	movl	%ecx, 88(%rsp)
	movl	%esi, 92(%rsp)
.L221:
	movl	%r14d, %edi
	call	use_int@PLT
	movl	%r13d, %edi
	call	use_int@PLT
	movl	%r12d, %edi
	call	use_int@PLT
	movl	76(%rsp), %edi
	call	use_int@PLT
	movl	80(%rsp), %edi
	call	use_int@PLT
	movl	84(%rsp), %edi
	call	use_int@PLT
	movl	88(%rsp), %edi
	call	use_int@PLT
	movl	92(%rsp), %edi
	call	use_int@PLT
	movl	%ebp, %edi
	call	use_int@PLT
	movl	%ebx, %edi
	call	use_int@PLT
	addq	$104, %rsp
	.cfi_def_cfa_offset 56
	popq	%rbx
	.cfi_def_cfa_offset 48
	popq	%rbp
	.cfi_def_cfa_offset 40
	popq	%r12
	.cfi_def_cfa_offset 32
	popq	%r13
	.cfi_def_cfa_offset 24
	popq	%r14
	.cfi_def_cfa_offset 16
	popq	%r15
	.cfi_def_cfa_offset 8
	ret
	.cfi_endproc
.LFE114:
	.size	integer_mul_9, .-integer_mul_9
	.globl	integer_mul_10
	.type	integer_mul_10, @function
integer_mul_10:
.LFB115:
	.cfi_startproc
	endbr64
	pushq	%r15
	.cfi_def_cfa_offset 16
	.cfi_offset 15, -16
	pushq	%r14
	.cfi_def_cfa_offset 24
	.cfi_offset 14, -24
	pushq	%r13
	.cfi_def_cfa_offset 32
	.cfi_offset 13, -32
	pushq	%r12
	.cfi_def_cfa_offset 40
	.cfi_offset 12, -40
	pushq	%rbp
	.cfi_def_cfa_offset 48
	.cfi_offset 6, -48
	pushq	%rbx
	.cfi_def_cfa_offset 56
	.cfi_offset 3, -56
	subq	$120, %rsp
	.cfi_def_cfa_offset 176
	movq	%rsi, %rax
	movl	12(%rsi), %edx
	leal	37432(%rdx), %ecx
	leal	5(%rdx), %esi
	movl	%esi, 8(%rsp)
	movl	%esi, %edx
	imull	%ecx, %edx
	imull	%esi, %edx
	imull	%esi, %edx
	imull	%esi, %edx
	imull	%esi, %edx
	imull	%esi, %edx
	imull	%esi, %edx
	imull	%esi, %edx
	imull	%esi, %edx
	imull	%esi, %edx
	movl	%edx, %r14d
	movl	%edx, %esi
	subl	%ecx, %esi
	movl	%esi, 44(%rsp)
	movl	16(%rax), %edx
	leal	37431(%rdx), %ecx
	leal	4(%rdx), %ebx
	movl	%ebx, 12(%rsp)
	movl	%ebx, %edx
	imull	%ecx, %edx
	imull	%ebx, %edx
	imull	%ebx, %edx
	imull	%ebx, %edx
	imull	%ebx, %edx
	imull	%ebx, %edx
	imull	%ebx, %edx
	imull	%ebx, %edx
	imull	%ebx, %edx
	imull	%ebx, %edx
	movl	%edx, %r13d
	movl	%edx, %esi
	subl	%ecx, %esi
	movl	%esi, 48(%rsp)
	movl	20(%rax), %edx
	leal	37430(%rdx), %ecx
	leal	3(%rdx), %esi
	movl	%esi, 16(%rsp)
	movl	%esi, %edx
	imull	%ecx, %edx
	imull	%esi, %edx
	imull	%esi, %edx
	imull	%esi, %edx
	imull	%esi, %edx
	imull	%esi, %edx
	imull	%esi, %edx
	imull	%esi, %edx
	imull	%esi, %edx
	imull	%esi, %edx
	movl	%edx, %r12d
	movl	%edx, %esi
	subl	%ecx, %esi
	movl	%esi, 52(%rsp)
	movl	24(%rax), %ecx
	leal	37429(%rcx), %edx
	leal	2(%rcx), %ebx
	movl	%ebx, 20(%rsp)
	movl	%ebx, %ecx
	imull	%edx, %ecx
	imull	%ebx, %ecx
	imull	%ebx, %ecx
	imull	%ebx, %ecx
	imull	%ebx, %ecx
	imull	%ebx, %ecx
	imull	%ebx, %ecx
	imull	%ebx, %ecx
	imull	%ebx, %ecx
	imull	%ebx, %ecx
	movl	%ecx, %r8d
	movl	%ecx, 108(%rsp)
	subl	%edx, %ecx
	movl	%ecx, 56(%rsp)
	movl	28(%rax), %ecx
	leal	37428(%rcx), %edx
	leal	1(%rcx), %ebx
	movl	%ebx, 24(%rsp)
	movl	%ebx, %ecx
	imull	%edx, %ecx
	imull	%ebx, %ecx
	imull	%ebx, %ecx
	imull	%ebx, %ecx
	imull	%ebx, %ecx
	imull	%ebx, %ecx
	imull	%ebx, %ecx
	imull	%ebx, %ecx
	imull	%ebx, %ecx
	imull	%ebx, %ecx
	movl	%ecx, 88(%rsp)
	movl	%ecx, %esi
	subl	%edx, %esi
	movl	%esi, 60(%rsp)
	movl	32(%rax), %r15d
	leal	37427(%r15), %edx
	movl	%r15d, %ecx
	imull	%edx, %ecx
	imull	%r15d, %ecx
	imull	%r15d, %ecx
	imull	%r15d, %ecx
	imull	%r15d, %ecx
	imull	%r15d, %ecx
	imull	%r15d, %ecx
	imull	%r15d, %ecx
	imull	%r15d, %ecx
	imull	%r15d, %ecx
	movl	%ecx, %ebx
	movl	%ecx, 92(%rsp)
	subl	%edx, %ebx
	movl	%ebx, 64(%rsp)
	movl	36(%rax), %edx
	leal	37426(%rdx), %ecx
	leal	-1(%rdx), %ebx
	movl	%ebx, 28(%rsp)
	movl	%ebx, %edx
	imull	%ecx, %edx
	imull	%ebx, %edx
	imull	%ebx, %edx
	imull	%ebx, %edx
	imull	%ebx, %edx
	imull	%ebx, %edx
	imull	%ebx, %edx
	imull	%ebx, %edx
	imull	%ebx, %edx
	imull	%ebx, %edx
	movl	%edx, 96(%rsp)
	movl	%edx, %r9d
	subl	%ecx, %r9d
	movl	%r9d, 68(%rsp)
	movl	40(%rax), %edx
	leal	37425(%rdx), %ecx
	leal	-2(%rdx), %ebx
	movl	%ebx, 40(%rsp)
	movl	%ebx, %edx
	imull	%ecx, %edx
	imull	%ebx, %edx
	imull	%ebx, %edx
	imull	%ebx, %edx
	imull	%ebx, %edx
	imull	%ebx, %edx
	imull	%ebx, %edx
	imull	%ebx, %edx
	imull	%ebx, %edx
	imull	%ebx, %edx
	movl	%edx, %r10d
	movl	%edx, 100(%rsp)
	subl	%ecx, %r10d
	movl	%r10d, 72(%rsp)
	movl	44(%rax), %ecx
	leal	37424(%rcx), %esi
	subl	$3, %ecx
	movl	%esi, %r11d
	imull	%ecx, %r11d
	movl	%r11d, %edx
	imull	%ecx, %edx
	imull	%ecx, %edx
	imull	%ecx, %edx
	imull	%ecx, %edx
	imull	%ecx, %edx
	imull	%ecx, %edx
	imull	%ecx, %edx
	imull	%ecx, %edx
	movl	%edx, %r11d
	imull	%ecx, %r11d
	movl	%r11d, 104(%rsp)
	movl	%r11d, %ebp
	subl	%esi, %ebp
	movl	%ebp, 76(%rsp)
	movl	48(%rax), %edx
	leal	37423(%rdx), %esi
	subl	$4, %edx
	movl	%esi, %ebp
	imull	%edx, %ebp
	imull	%edx, %ebp
	imull	%edx, %ebp
	imull	%edx, %ebp
	imull	%edx, %ebp
	imull	%edx, %ebp
	imull	%edx, %ebp
	imull	%edx, %ebp
	imull	%edx, %ebp
	imull	%edx, %ebp
	movl	%ebp, %r9d
	subl	%esi, %r9d
	movl	%r9d, 80(%rsp)
	movl	52(%rax), %eax
	leal	37422(%rax), %esi
	subl	$5, %eax
	movl	%esi, %ebx
	imull	%eax, %ebx
	imull	%eax, %ebx
	imull	%eax, %ebx
	imull	%eax, %ebx
	imull	%eax, %ebx
	imull	%eax, %ebx
	imull	%eax, %ebx
	imull	%eax, %ebx
	imull	%eax, %ebx
	imull	%eax, %ebx
	movl	%ebx, %r9d
	subl	%esi, %r9d
	movl	%r9d, 84(%rsp)
	leaq	-1(%rdi), %rsi
	movq	%rsi, 32(%rsp)
	testq	%rdi, %rdi
	je	.L226
	movl	%ecx, %r11d
	movl	%edx, %r10d
	movl	%eax, %r9d
	movl	%r8d, %esi
	movl	88(%rsp), %edi
	movl	92(%rsp), %r8d
	movl	96(%rsp), %eax
	movl	100(%rsp), %edx
	movl	104(%rsp), %ecx
.L227:
	subl	44(%rsp), %r14d
	subl	48(%rsp), %r13d
	subl	52(%rsp), %r12d
	subl	56(%rsp), %esi
	subl	60(%rsp), %edi
	subl	64(%rsp), %r8d
	subl	68(%rsp), %eax
	subl	72(%rsp), %edx
	subl	76(%rsp), %ecx
	subl	80(%rsp), %ebp
	subl	84(%rsp), %ebx
	imull	8(%rsp), %r14d
	imull	12(%rsp), %r13d
	imull	16(%rsp), %r12d
	imull	20(%rsp), %esi
	imull	24(%rsp), %edi
	imull	%r15d, %r8d
	imull	28(%rsp), %eax
	imull	40(%rsp), %edx
	imull	%r11d, %ecx
	imull	%r10d, %ebp
	imull	%r9d, %ebx
	imull	8(%rsp), %r14d
	imull	12(%rsp), %r13d
	imull	16(%rsp), %r12d
	imull	20(%rsp), %esi
	imull	24(%rsp), %edi
	imull	%r15d, %r8d
	imull	28(%rsp), %eax
	imull	40(%rsp), %edx
	imull	%r11d, %ecx
	imull	%r10d, %ebp
	imull	%r9d, %ebx
	imull	8(%rsp), %r14d
	imull	12(%rsp), %r13d
	imull	16(%rsp), %r12d
	imull	20(%rsp), %esi
	imull	24(%rsp), %edi
	imull	%r15d, %r8d
	imull	28(%rsp), %eax
	imull	40(%rsp), %edx
	imull	%r11d, %ecx
	imull	%r10d, %ebp
	imull	%r9d, %ebx
	imull	8(%rsp), %r14d
	imull	12(%rsp), %r13d
	imull	16(%rsp), %r12d
	imull	20(%rsp), %esi
	imull	24(%rsp), %edi
	imull	%r15d, %r8d
	imull	28(%rsp), %eax
	imull	40(%rsp), %edx
	imull	%r11d, %ecx
	imull	%r10d, %ebp
	imull	%r9d, %ebx
	imull	8(%rsp), %r14d
	imull	12(%rsp), %r13d
	imull	16(%rsp), %r12d
	imull	20(%rsp), %esi
	imull	24(%rsp), %edi
	imull	%r15d, %r8d
	imull	28(%rsp), %eax
	imull	40(%rsp), %edx
	imull	%r11d, %ecx
	imull	%r10d, %ebp
	imull	%r9d, %ebx
	imull	8(%rsp), %r14d
	imull	12(%rsp), %r13d
	imull	16(%rsp), %r12d
	imull	20(%rsp), %esi
	imull	24(%rsp), %edi
	imull	%r15d, %r8d
	imull	28(%rsp), %eax
	imull	40(%rsp), %edx
	imull	%r11d, %ecx
	imull	%r10d, %ebp
	imull	%r9d, %ebx
	imull	8(%rsp), %r14d
	imull	12(%rsp), %r13d
	imull	16(%rsp), %r12d
	imull	20(%rsp), %esi
	imull	24(%rsp), %edi
	imull	%r15d, %r8d
	imull	28(%rsp), %eax
	imull	40(%rsp), %edx
	imull	%r11d, %ecx
	imull	%r10d, %ebp
	imull	%r9d, %ebx
	imull	8(%rsp), %r14d
	imull	12(%rsp), %r13d
	imull	16(%rsp), %r12d
	imull	20(%rsp), %esi
	imull	24(%rsp), %edi
	imull	%r15d, %r8d
	imull	28(%rsp), %eax
	imull	40(%rsp), %edx
	imull	%r11d, %ecx
	imull	%r10d, %ebp
	imull	%r9d, %ebx
	imull	8(%rsp), %r14d
	imull	12(%rsp), %r13d
	imull	16(%rsp), %r12d
	imull	20(%rsp), %esi
	imull	24(%rsp), %edi
	imull	%r15d, %r8d
	imull	28(%rsp), %eax
	imull	40(%rsp), %edx
	imull	%r11d, %ecx
	imull	%r10d, %ebp
	imull	%r9d, %ebx
	imull	8(%rsp), %r14d
	imull	12(%rsp), %r13d
	imull	16(%rsp), %r12d
	imull	20(%rsp), %esi
	imull	24(%rsp), %edi
	imull	%r15d, %r8d
	imull	28(%rsp), %eax
	imull	40(%rsp), %edx
	imull	%r11d, %ecx
	imull	%r10d, %ebp
	imull	%r9d, %ebx
	subq	$1, 32(%rsp)
	cmpq	$-1, 32(%rsp)
	jne	.L227
	movl	%esi, 108(%rsp)
	movl	%edi, 88(%rsp)
	movl	%r8d, 92(%rsp)
	movl	%eax, 96(%rsp)
	movl	%edx, 100(%rsp)
	movl	%ecx, 104(%rsp)
.L226:
	movl	%r14d, %edi
	call	use_int@PLT
	movl	%r13d, %edi
	call	use_int@PLT
	movl	%r12d, %edi
	call	use_int@PLT
	movl	108(%rsp), %edi
	call	use_int@PLT
	movl	88(%rsp), %edi
	call	use_int@PLT
	movl	92(%rsp), %edi
	call	use_int@PLT
	movl	96(%rsp), %edi
	call	use_int@PLT
	movl	100(%rsp), %edi
	call	use_int@PLT
	movl	104(%rsp), %edi
	call	use_int@PLT
	movl	%ebp, %edi
	call	use_int@PLT
	movl	%ebx, %edi
	call	use_int@PLT
	addq	$120, %rsp
	.cfi_def_cfa_offset 56
	popq	%rbx
	.cfi_def_cfa_offset 48
	popq	%rbp
	.cfi_def_cfa_offset 40
	popq	%r12
	.cfi_def_cfa_offset 32
	popq	%r13
	.cfi_def_cfa_offset 24
	popq	%r14
	.cfi_def_cfa_offset 16
	popq	%r15
	.cfi_def_cfa_offset 8
	ret
	.cfi_endproc
.LFE115:
	.size	integer_mul_10, .-integer_mul_10
	.globl	integer_mul_11
	.type	integer_mul_11, @function
integer_mul_11:
.LFB116:
	.cfi_startproc
	endbr64
	pushq	%r15
	.cfi_def_cfa_offset 16
	.cfi_offset 15, -16
	pushq	%r14
	.cfi_def_cfa_offset 24
	.cfi_offset 14, -24
	pushq	%r13
	.cfi_def_cfa_offset 32
	.cfi_offset 13, -32
	pushq	%r12
	.cfi_def_cfa_offset 40
	.cfi_offset 12, -40
	pushq	%rbp
	.cfi_def_cfa_offset 48
	.cfi_offset 6, -48
	pushq	%rbx
	.cfi_def_cfa_offset 56
	.cfi_offset 3, -56
	subq	$136, %rsp
	.cfi_def_cfa_offset 192
	movq	%rsi, %rax
	movl	12(%rsi), %edx
	leal	37432(%rdx), %ecx
	leal	5(%rdx), %esi
	movl	%esi, 8(%rsp)
	movl	%esi, %edx
	imull	%ecx, %edx
	imull	%esi, %edx
	imull	%esi, %edx
	imull	%esi, %edx
	imull	%esi, %edx
	imull	%esi, %edx
	imull	%esi, %edx
	imull	%esi, %edx
	imull	%esi, %edx
	imull	%esi, %edx
	movl	%edx, %r14d
	subl	%ecx, %edx
	movl	%edx, 52(%rsp)
	movl	16(%rax), %edx
	leal	37431(%rdx), %ecx
	leal	4(%rdx), %ebx
	movl	%ebx, 12(%rsp)
	movl	%ebx, %edx
	imull	%ecx, %edx
	imull	%ebx, %edx
	imull	%ebx, %edx
	imull	%ebx, %edx
	imull	%ebx, %edx
	imull	%ebx, %edx
	imull	%ebx, %edx
	imull	%ebx, %edx
	imull	%ebx, %edx
	imull	%ebx, %edx
	movl	%edx, %r13d
	subl	%ecx, %edx
	movl	%edx, 56(%rsp)
	movl	20(%rax), %edx
	leal	37430(%rdx), %ecx
	leal	3(%rdx), %esi
	movl	%esi, 16(%rsp)
	movl	%esi, %edx
	imull	%ecx, %edx
	imull	%esi, %edx
	imull	%esi, %edx
	imull	%esi, %edx
	imull	%esi, %edx
	imull	%esi, %edx
	imull	%esi, %edx
	imull	%esi, %edx
	imull	%esi, %edx
	imull	%esi, %edx
	movl	%edx, %r12d
	subl	%ecx, %edx
	movl	%edx, 60(%rsp)
	movl	24(%rax), %ecx
	leal	37429(%rcx), %edx
	leal	2(%rcx), %ebx
	movl	%ebx, 20(%rsp)
	movl	%ebx, %ecx
	imull	%edx, %ecx
	imull	%ebx, %ecx
	imull	%ebx, %ecx
	imull	%ebx, %ecx
	imull	%ebx, %ecx
	imull	%ebx, %ecx
	imull	%ebx, %ecx
	imull	%ebx, %ecx
	imull	%ebx, %ecx
	imull	%ebx, %ecx
	movl	%ecx, %r8d
	movl	%ecx, 116(%rsp)
	movl	%ecx, %esi
	subl	%edx, %esi
	movl	%esi, 64(%rsp)
	movl	28(%rax), %ecx
	leal	37428(%rcx), %edx
	leal	1(%rcx), %esi
	movl	%esi, 24(%rsp)
	movl	%esi, %ecx
	imull	%edx, %ecx
	imull	%esi, %ecx
	imull	%esi, %ecx
	imull	%esi, %ecx
	imull	%esi, %ecx
	imull	%esi, %ecx
	imull	%esi, %ecx
	imull	%esi, %ecx
	imull	%esi, %ecx
	imull	%esi, %ecx
	movl	%ecx, %esi
	movl	%ecx, 120(%rsp)
	subl	%edx, %ecx
	movl	%ecx, 68(%rsp)
	movl	32(%rax), %r15d
	leal	37427(%r15), %edx
	movl	%r15d, %ecx
	imull	%edx, %ecx
	imull	%r15d, %ecx
	imull	%r15d, %ecx
	imull	%r15d, %ecx
	imull	%r15d, %ecx
	imull	%r15d, %ecx
	imull	%r15d, %ecx
	imull	%r15d, %ecx
	imull	%r15d, %ecx
	imull	%r15d, %ecx
	movl	%ecx, %r9d
	movl	%ecx, 124(%rsp)
	subl	%edx, %ecx
	movl	%ecx, 72(%rsp)
	movl	36(%rax), %ecx
	leal	37426(%rcx), %edx
	leal	-1(%rcx), %ebx
	movl	%ebx, 28(%rsp)
	movl	%ebx, %ecx
	imull	%edx, %ecx
	imull	%ebx, %ecx
	imull	%ebx, %ecx
	imull	%ebx, %ecx
	imull	%ebx, %ecx
	imull	%ebx, %ecx
	imull	%ebx, %ecx
	imull	%ebx, %ecx
	imull	%ebx, %ecx
	imull	%ebx, %ecx
	movl	%ecx, 100(%rsp)
	movl	%ecx, %ebx
	subl	%edx, %ebx
	movl	%ebx, 76(%rsp)
	movl	40(%rax), %ecx
	leal	37425(%rcx), %edx
	leal	-2(%rcx), %ebx
	movl	%ebx, 32(%rsp)
	movl	%ebx, %ecx
	imull	%edx, %ecx
	imull	%ebx, %ecx
	imull	%ebx, %ecx
	imull	%ebx, %ecx
	imull	%ebx, %ecx
	imull	%ebx, %ecx
	imull	%ebx, %ecx
	imull	%ebx, %ecx
	imull	%ebx, %ecx
	imull	%ebx, %ecx
	movl	%ecx, %r10d
	movl	%ecx, 104(%rsp)
	subl	%edx, %r10d
	movl	%r10d, 80(%rsp)
	movl	44(%rax), %ecx
	leal	37424(%rcx), %edx
	leal	-3(%rcx), %ebx
	movl	%ebx, 36(%rsp)
	movl	%ebx, %ecx
	imull	%edx, %ecx
	imull	%ebx, %ecx
	imull	%ebx, %ecx
	imull	%ebx, %ecx
	imull	%ebx, %ecx
	imull	%ebx, %ecx
	imull	%ebx, %ecx
	imull	%ebx, %ecx
	imull	%ebx, %ecx
	imull	%ebx, %ecx
	movl	%ecx, %r11d
	movl	%ecx, 108(%rsp)
	subl	%edx, %r11d
	movl	%r11d, 84(%rsp)
	movl	48(%rax), %edx
	leal	37423(%rdx), %ecx
	leal	-4(%rdx), %ebx
	movl	%ebx, 48(%rsp)
	movl	%ebx, %edx
	imull	%ecx, %edx
	imull	%ebx, %edx
	imull	%ebx, %edx
	imull	%ebx, %edx
	imull	%ebx, %edx
	imull	%ebx, %edx
	imull	%ebx, %edx
	imull	%ebx, %edx
	imull	%ebx, %edx
	imull	%ebx, %edx
	movl	%edx, 112(%rsp)
	movl	%edx, %ebp
	subl	%ecx, %ebp
	movl	%ebp, 88(%rsp)
	movl	52(%rax), %ecx
	leal	37422(%rcx), %edx
	subl	$5, %ecx
	movl	%edx, %ebp
	imull	%ecx, %ebp
	imull	%ecx, %ebp
	imull	%ecx, %ebp
	imull	%ecx, %ebp
	imull	%ecx, %ebp
	imull	%ecx, %ebp
	imull	%ecx, %ebp
	imull	%ecx, %ebp
	imull	%ecx, %ebp
	imull	%ecx, %ebp
	movl	%ebp, %ebx
	subl	%edx, %ebx
	movl	%ebx, 92(%rsp)
	movl	56(%rax), %edx
	leal	37421(%rdx), %eax
	subl	$6, %edx
	movl	%eax, %ebx
	imull	%edx, %ebx
	imull	%edx, %ebx
	imull	%edx, %ebx
	imull	%edx, %ebx
	imull	%edx, %ebx
	imull	%edx, %ebx
	imull	%edx, %ebx
	imull	%edx, %ebx
	imull	%edx, %ebx
	imull	%edx, %ebx
	movl	%ebx, %r10d
	subl	%eax, %r10d
	movl	%r10d, 96(%rsp)
	leaq	-1(%rdi), %rax
	movq	%rax, 40(%rsp)
	testq	%rdi, %rdi
	je	.L231
	movl	%ecx, %r11d
	movl	%edx, %r10d
	movl	%r8d, %ecx
	movl	%r9d, %edi
	movl	100(%rsp), %r8d
	movl	104(%rsp), %r9d
	movl	108(%rsp), %eax
	movl	112(%rsp), %edx
.L232:
	subl	52(%rsp), %r14d
	subl	56(%rsp), %r13d
	subl	60(%rsp), %r12d
	subl	64(%rsp), %ecx
	subl	68(%rsp), %esi
	subl	72(%rsp), %edi
	subl	76(%rsp), %r8d
	subl	80(%rsp), %r9d
	subl	84(%rsp), %eax
	subl	88(%rsp), %edx
	subl	92(%rsp), %ebp
	subl	96(%rsp), %ebx
	imull	8(%rsp), %r14d
	imull	12(%rsp), %r13d
	imull	16(%rsp), %r12d
	imull	20(%rsp), %ecx
	imull	24(%rsp), %esi
	imull	%r15d, %edi
	imull	28(%rsp), %r8d
	imull	32(%rsp), %r9d
	imull	36(%rsp), %eax
	imull	48(%rsp), %edx
	imull	%r11d, %ebp
	imull	%r10d, %ebx
	imull	8(%rsp), %r14d
	imull	12(%rsp), %r13d
	imull	16(%rsp), %r12d
	imull	20(%rsp), %ecx
	imull	24(%rsp), %esi
	imull	%r15d, %edi
	imull	28(%rsp), %r8d
	imull	32(%rsp), %r9d
	imull	36(%rsp), %eax
	imull	48(%rsp), %edx
	imull	%r11d, %ebp
	imull	%r10d, %ebx
	imull	8(%rsp), %r14d
	imull	12(%rsp), %r13d
	imull	16(%rsp), %r12d
	imull	20(%rsp), %ecx
	imull	24(%rsp), %esi
	imull	%r15d, %edi
	imull	28(%rsp), %r8d
	imull	32(%rsp), %r9d
	imull	36(%rsp), %eax
	imull	48(%rsp), %edx
	imull	%r11d, %ebp
	imull	%r10d, %ebx
	imull	8(%rsp), %r14d
	imull	12(%rsp), %r13d
	imull	16(%rsp), %r12d
	imull	20(%rsp), %ecx
	imull	24(%rsp), %esi
	imull	%r15d, %edi
	imull	28(%rsp), %r8d
	imull	32(%rsp), %r9d
	imull	36(%rsp), %eax
	imull	48(%rsp), %edx
	imull	%r11d, %ebp
	imull	%r10d, %ebx
	imull	8(%rsp), %r14d
	imull	12(%rsp), %r13d
	imull	16(%rsp), %r12d
	imull	20(%rsp), %ecx
	imull	24(%rsp), %esi
	imull	%r15d, %edi
	imull	28(%rsp), %r8d
	imull	32(%rsp), %r9d
	imull	36(%rsp), %eax
	imull	48(%rsp), %edx
	imull	%r11d, %ebp
	imull	%r10d, %ebx
	imull	8(%rsp), %r14d
	imull	12(%rsp), %r13d
	imull	16(%rsp), %r12d
	imull	20(%rsp), %ecx
	imull	24(%rsp), %esi
	imull	%r15d, %edi
	imull	28(%rsp), %r8d
	imull	32(%rsp), %r9d
	imull	36(%rsp), %eax
	imull	48(%rsp), %edx
	imull	%r11d, %ebp
	imull	%r10d, %ebx
	imull	8(%rsp), %r14d
	imull	12(%rsp), %r13d
	imull	16(%rsp), %r12d
	imull	20(%rsp), %ecx
	imull	24(%rsp), %esi
	imull	%r15d, %edi
	imull	28(%rsp), %r8d
	imull	32(%rsp), %r9d
	imull	36(%rsp), %eax
	imull	48(%rsp), %edx
	imull	%r11d, %ebp
	imull	%r10d, %ebx
	imull	8(%rsp), %r14d
	imull	12(%rsp), %r13d
	imull	16(%rsp), %r12d
	imull	20(%rsp), %ecx
	imull	24(%rsp), %esi
	imull	%r15d, %edi
	imull	28(%rsp), %r8d
	imull	32(%rsp), %r9d
	imull	36(%rsp), %eax
	imull	48(%rsp), %edx
	imull	%r11d, %ebp
	imull	%r10d, %ebx
	imull	8(%rsp), %r14d
	imull	12(%rsp), %r13d
	imull	16(%rsp), %r12d
	imull	20(%rsp), %ecx
	imull	24(%rsp), %esi
	imull	%r15d, %edi
	imull	28(%rsp), %r8d
	imull	32(%rsp), %r9d
	imull	36(%rsp), %eax
	imull	48(%rsp), %edx
	imull	%r11d, %ebp
	imull	%r10d, %ebx
	imull	8(%rsp), %r14d
	imull	12(%rsp), %r13d
	imull	16(%rsp), %r12d
	imull	20(%rsp), %ecx
	imull	24(%rsp), %esi
	imull	%r15d, %edi
	imull	28(%rsp), %r8d
	imull	32(%rsp), %r9d
	imull	36(%rsp), %eax
	imull	48(%rsp), %edx
	imull	%r11d, %ebp
	imull	%r10d, %ebx
	subq	$1, 40(%rsp)
	cmpq	$-1, 40(%rsp)
	jne	.L232
	movl	%ecx, 116(%rsp)
	movl	%esi, 120(%rsp)
	movl	%edi, 124(%rsp)
	movl	%r8d, 100(%rsp)
	movl	%r9d, 104(%rsp)
	movl	%eax, 108(%rsp)
	movl	%edx, 112(%rsp)
.L231:
	movl	%r14d, %edi
	call	use_int@PLT
	movl	%r13d, %edi
	call	use_int@PLT
	movl	%r12d, %edi
	call	use_int@PLT
	movl	116(%rsp), %edi
	call	use_int@PLT
	movl	120(%rsp), %edi
	call	use_int@PLT
	movl	124(%rsp), %edi
	call	use_int@PLT
	movl	100(%rsp), %edi
	call	use_int@PLT
	movl	104(%rsp), %edi
	call	use_int@PLT
	movl	108(%rsp), %edi
	call	use_int@PLT
	movl	112(%rsp), %edi
	call	use_int@PLT
	movl	%ebp, %edi
	call	use_int@PLT
	movl	%ebx, %edi
	call	use_int@PLT
	addq	$136, %rsp
	.cfi_def_cfa_offset 56
	popq	%rbx
	.cfi_def_cfa_offset 48
	popq	%rbp
	.cfi_def_cfa_offset 40
	popq	%r12
	.cfi_def_cfa_offset 32
	popq	%r13
	.cfi_def_cfa_offset 24
	popq	%r14
	.cfi_def_cfa_offset 16
	popq	%r15
	.cfi_def_cfa_offset 8
	ret
	.cfi_endproc
.LFE116:
	.size	integer_mul_11, .-integer_mul_11
	.globl	integer_mul_12
	.type	integer_mul_12, @function
integer_mul_12:
.LFB117:
	.cfi_startproc
	endbr64
	pushq	%r15
	.cfi_def_cfa_offset 16
	.cfi_offset 15, -16
	pushq	%r14
	.cfi_def_cfa_offset 24
	.cfi_offset 14, -24
	pushq	%r13
	.cfi_def_cfa_offset 32
	.cfi_offset 13, -32
	pushq	%r12
	.cfi_def_cfa_offset 40
	.cfi_offset 12, -40
	pushq	%rbp
	.cfi_def_cfa_offset 48
	.cfi_offset 6, -48
	pushq	%rbx
	.cfi_def_cfa_offset 56
	.cfi_offset 3, -56
	subq	$152, %rsp
	.cfi_def_cfa_offset 208
	movq	%rsi, %rdx
	movl	12(%rsi), %eax
	leal	37432(%rax), %ecx
	leal	5(%rax), %esi
	movl	%esi, 4(%rsp)
	movl	%esi, %eax
	imull	%ecx, %eax
	imull	%esi, %eax
	imull	%esi, %eax
	imull	%esi, %eax
	imull	%esi, %eax
	imull	%esi, %eax
	imull	%esi, %eax
	imull	%esi, %eax
	imull	%esi, %eax
	imull	%esi, %eax
	movl	%eax, %r13d
	subl	%ecx, %eax
	movl	%eax, 56(%rsp)
	movl	16(%rdx), %eax
	leal	37431(%rax), %ecx
	leal	4(%rax), %ebx
	movl	%ebx, 8(%rsp)
	movl	%ebx, %eax
	imull	%ecx, %eax
	imull	%ebx, %eax
	imull	%ebx, %eax
	imull	%ebx, %eax
	imull	%ebx, %eax
	imull	%ebx, %eax
	imull	%ebx, %eax
	imull	%ebx, %eax
	imull	%ebx, %eax
	imull	%ebx, %eax
	movl	%eax, %r12d
	subl	%ecx, %eax
	movl	%eax, 60(%rsp)
	movl	20(%rdx), %eax
	leal	37430(%rax), %ecx
	leal	3(%rax), %esi
	movl	%esi, 12(%rsp)
	movl	%esi, %eax
	imull	%ecx, %eax
	imull	%esi, %eax
	imull	%esi, %eax
	imull	%esi, %eax
	imull	%esi, %eax
	imull	%esi, %eax
	imull	%esi, %eax
	imull	%esi, %eax
	imull	%esi, %eax
	imull	%esi, %eax
	movl	%eax, %ebp
	subl	%ecx, %eax
	movl	%eax, 64(%rsp)
	movl	24(%rdx), %ecx
	leal	37429(%rcx), %eax
	leal	2(%rcx), %ebx
	movl	%ebx, 16(%rsp)
	movl	%ebx, %ecx
	imull	%eax, %ecx
	imull	%ebx, %ecx
	imull	%ebx, %ecx
	imull	%ebx, %ecx
	imull	%ebx, %ecx
	imull	%ebx, %ecx
	imull	%ebx, %ecx
	imull	%ebx, %ecx
	imull	%ebx, %ecx
	imull	%ebx, %ecx
	movl	%ecx, %r8d
	movl	%ecx, 124(%rsp)
	movl	%ecx, %esi
	subl	%eax, %esi
	movl	%esi, 68(%rsp)
	movl	28(%rdx), %ecx
	leal	37428(%rcx), %eax
	leal	1(%rcx), %esi
	movl	%esi, 20(%rsp)
	movl	%esi, %ecx
	imull	%eax, %ecx
	imull	%esi, %ecx
	imull	%esi, %ecx
	imull	%esi, %ecx
	imull	%esi, %ecx
	imull	%esi, %ecx
	imull	%esi, %ecx
	imull	%esi, %ecx
	imull	%esi, %ecx
	imull	%esi, %ecx
	movl	%ecx, %esi
	movl	%ecx, 128(%rsp)
	subl	%eax, %ecx
	movl	%ecx, 72(%rsp)
	movl	32(%rdx), %r15d
	leal	37427(%r15), %eax
	movl	%r15d, %ecx
	imull	%eax, %ecx
	imull	%r15d, %ecx
	imull	%r15d, %ecx
	imull	%r15d, %ecx
	imull	%r15d, %ecx
	imull	%r15d, %ecx
	imull	%r15d, %ecx
	imull	%r15d, %ecx
	imull	%r15d, %ecx
	imull	%r15d, %ecx
	movl	%ecx, %r9d
	movl	%ecx, 132(%rsp)
	subl	%eax, %ecx
	movl	%ecx, 76(%rsp)
	movl	36(%rdx), %ecx
	leal	37426(%rcx), %eax
	leal	-1(%rcx), %ebx
	movl	%ebx, 24(%rsp)
	movl	%ebx, %ecx
	imull	%eax, %ecx
	imull	%ebx, %ecx
	imull	%ebx, %ecx
	imull	%ebx, %ecx
	imull	%ebx, %ecx
	imull	%ebx, %ecx
	imull	%ebx, %ecx
	imull	%ebx, %ecx
	imull	%ebx, %ecx
	imull	%ebx, %ecx
	movl	%ecx, %r10d
	movl	%ecx, 136(%rsp)
	subl	%eax, %ecx
	movl	%ecx, 80(%rsp)
	movl	40(%rdx), %ecx
	leal	37425(%rcx), %eax
	leal	-2(%rcx), %ebx
	movl	%ebx, 28(%rsp)
	movl	%ebx, %ecx
	imull	%eax, %ecx
	imull	%ebx, %ecx
	imull	%ebx, %ecx
	imull	%ebx, %ecx
	imull	%ebx, %ecx
	imull	%ebx, %ecx
	imull	%ebx, %ecx
	imull	%ebx, %ecx
	imull	%ebx, %ecx
	imull	%ebx, %ecx
	movl	%ecx, %r11d
	movl	%ecx, 140(%rsp)
	subl	%eax, %ecx
	movl	%ecx, 84(%rsp)
	movl	44(%rdx), %ecx
	leal	37424(%rcx), %eax
	leal	-3(%rcx), %ebx
	movl	%ebx, 32(%rsp)
	movl	%ebx, %ecx
	imull	%eax, %ecx
	imull	%ebx, %ecx
	imull	%ebx, %ecx
	imull	%ebx, %ecx
	imull	%ebx, %ecx
	imull	%ebx, %ecx
	imull	%ebx, %ecx
	imull	%ebx, %ecx
	imull	%ebx, %ecx
	imull	%ebx, %ecx
	movl	%ecx, 108(%rsp)
	movl	%ecx, %ebx
	subl	%eax, %ebx
	movl	%ebx, 88(%rsp)
	movl	48(%rdx), %eax
	leal	37423(%rax), %ecx
	leal	-4(%rax), %ebx
	movl	%ebx, 36(%rsp)
	movl	%ebx, %eax
	imull	%ecx, %eax
	imull	%ebx, %eax
	imull	%ebx, %eax
	imull	%ebx, %eax
	imull	%ebx, %eax
	imull	%ebx, %eax
	imull	%ebx, %eax
	imull	%ebx, %eax
	imull	%ebx, %eax
	imull	%ebx, %eax
	movl	%eax, 112(%rsp)
	movl	%eax, %r14d
	subl	%ecx, %r14d
	movl	%r14d, 92(%rsp)
	movl	52(%rdx), %eax
	leal	37422(%rax), %ecx
	leal	-5(%rax), %ebx
	movl	%ebx, 40(%rsp)
	movl	%ebx, %eax
	imull	%ecx, %eax
	imull	%ebx, %eax
	imull	%ebx, %eax
	imull	%ebx, %eax
	imull	%ebx, %eax
	imull	%ebx, %eax
	imull	%ebx, %eax
	imull	%ebx, %eax
	imull	%ebx, %eax
	imull	%ebx, %eax
	movl	%eax, 116(%rsp)
	movl	%eax, %ebx
	subl	%ecx, %ebx
	movl	%ebx, 96(%rsp)
	movl	56(%rdx), %eax
	leal	37421(%rax), %ecx
	leal	-6(%rax), %ebx
	movl	%ebx, 44(%rsp)
	movl	%ebx, %eax
	imull	%ecx, %eax
	imull	%ebx, %eax
	imull	%ebx, %eax
	imull	%ebx, %eax
	imull	%ebx, %eax
	imull	%ebx, %eax
	imull	%ebx, %eax
	imull	%ebx, %eax
	imull	%ebx, %eax
	movl	%eax, %r14d
	imull	%ebx, %r14d
	movl	%r14d, 120(%rsp)
	subl	%ecx, %r14d
	movl	%r14d, 100(%rsp)
	movl	60(%rdx), %r14d
	leal	37420(%r14), %eax
	subl	$7, %r14d
	movl	%eax, %edx
	imull	%r14d, %edx
	movl	%edx, %ebx
	imull	%r14d, %ebx
	imull	%r14d, %ebx
	imull	%r14d, %ebx
	imull	%r14d, %ebx
	imull	%r14d, %ebx
	imull	%r14d, %ebx
	imull	%r14d, %ebx
	imull	%r14d, %ebx
	imull	%r14d, %ebx
	movl	%ebx, %edx
	subl	%eax, %edx
	movl	%edx, 104(%rsp)
	leaq	-1(%rdi), %rdx
	movq	%rdx, 48(%rsp)
	testq	%rdi, %rdi
	je	.L236
	movl	%r8d, %ecx
	movl	%r9d, %edi
	movl	%r10d, %r8d
	movl	%r11d, %r9d
	movl	108(%rsp), %r10d
	movl	112(%rsp), %r11d
	movl	116(%rsp), %eax
	movl	120(%rsp), %edx
.L237:
	subl	56(%rsp), %r13d
	subl	60(%rsp), %r12d
	subl	64(%rsp), %ebp
	subl	68(%rsp), %ecx
	subl	72(%rsp), %esi
	subl	76(%rsp), %edi
	subl	80(%rsp), %r8d
	subl	84(%rsp), %r9d
	subl	88(%rsp), %r10d
	subl	92(%rsp), %r11d
	subl	96(%rsp), %eax
	subl	100(%rsp), %edx
	subl	104(%rsp), %ebx
	imull	4(%rsp), %r13d
	imull	8(%rsp), %r12d
	imull	12(%rsp), %ebp
	imull	16(%rsp), %ecx
	imull	20(%rsp), %esi
	imull	%r15d, %edi
	imull	24(%rsp), %r8d
	imull	28(%rsp), %r9d
	imull	32(%rsp), %r10d
	imull	36(%rsp), %r11d
	imull	40(%rsp), %eax
	imull	44(%rsp), %edx
	imull	%r14d, %ebx
	imull	4(%rsp), %r13d
	imull	8(%rsp), %r12d
	imull	12(%rsp), %ebp
	imull	16(%rsp), %ecx
	imull	20(%rsp), %esi
	imull	%r15d, %edi
	imull	24(%rsp), %r8d
	imull	28(%rsp), %r9d
	imull	32(%rsp), %r10d
	imull	36(%rsp), %r11d
	imull	40(%rsp), %eax
	imull	44(%rsp), %edx
	imull	%r14d, %ebx
	imull	4(%rsp), %r13d
	imull	8(%rsp), %r12d
	imull	12(%rsp), %ebp
	imull	16(%rsp), %ecx
	imull	20(%rsp), %esi
	imull	%r15d, %edi
	imull	24(%rsp), %r8d
	imull	28(%rsp), %r9d
	imull	32(%rsp), %r10d
	imull	36(%rsp), %r11d
	imull	40(%rsp), %eax
	imull	44(%rsp), %edx
	imull	%r14d, %ebx
	imull	4(%rsp), %r13d
	imull	8(%rsp), %r12d
	imull	12(%rsp), %ebp
	imull	16(%rsp), %ecx
	imull	20(%rsp), %esi
	imull	%r15d, %edi
	imull	24(%rsp), %r8d
	imull	28(%rsp), %r9d
	imull	32(%rsp), %r10d
	imull	36(%rsp), %r11d
	imull	40(%rsp), %eax
	imull	44(%rsp), %edx
	imull	%r14d, %ebx
	imull	4(%rsp), %r13d
	imull	8(%rsp), %r12d
	imull	12(%rsp), %ebp
	imull	16(%rsp), %ecx
	imull	20(%rsp), %esi
	imull	%r15d, %edi
	imull	24(%rsp), %r8d
	imull	28(%rsp), %r9d
	imull	32(%rsp), %r10d
	imull	36(%rsp), %r11d
	imull	40(%rsp), %eax
	imull	44(%rsp), %edx
	imull	%r14d, %ebx
	imull	4(%rsp), %r13d
	imull	8(%rsp), %r12d
	imull	12(%rsp), %ebp
	imull	16(%rsp), %ecx
	imull	20(%rsp), %esi
	imull	%r15d, %edi
	imull	24(%rsp), %r8d
	imull	28(%rsp), %r9d
	imull	32(%rsp), %r10d
	imull	36(%rsp), %r11d
	imull	40(%rsp), %eax
	imull	44(%rsp), %edx
	imull	%r14d, %ebx
	imull	4(%rsp), %r13d
	imull	8(%rsp), %r12d
	imull	12(%rsp), %ebp
	imull	16(%rsp), %ecx
	imull	20(%rsp), %esi
	imull	%r15d, %edi
	imull	24(%rsp), %r8d
	imull	28(%rsp), %r9d
	imull	32(%rsp), %r10d
	imull	36(%rsp), %r11d
	imull	40(%rsp), %eax
	imull	44(%rsp), %edx
	imull	%r14d, %ebx
	imull	4(%rsp), %r13d
	imull	8(%rsp), %r12d
	imull	12(%rsp), %ebp
	imull	16(%rsp), %ecx
	imull	20(%rsp), %esi
	imull	%r15d, %edi
	imull	24(%rsp), %r8d
	imull	28(%rsp), %r9d
	imull	32(%rsp), %r10d
	imull	36(%rsp), %r11d
	imull	40(%rsp), %eax
	imull	44(%rsp), %edx
	imull	%r14d, %ebx
	imull	4(%rsp), %r13d
	imull	8(%rsp), %r12d
	imull	12(%rsp), %ebp
	imull	16(%rsp), %ecx
	imull	20(%rsp), %esi
	imull	%r15d, %edi
	imull	24(%rsp), %r8d
	imull	28(%rsp), %r9d
	imull	32(%rsp), %r10d
	imull	36(%rsp), %r11d
	imull	40(%rsp), %eax
	imull	44(%rsp), %edx
	imull	%r14d, %ebx
	imull	4(%rsp), %r13d
	imull	8(%rsp), %r12d
	imull	12(%rsp), %ebp
	imull	16(%rsp), %ecx
	imull	20(%rsp), %esi
	imull	%r15d, %edi
	imull	24(%rsp), %r8d
	imull	28(%rsp), %r9d
	imull	32(%rsp), %r10d
	imull	36(%rsp), %r11d
	imull	40(%rsp), %eax
	imull	44(%rsp), %edx
	imull	%r14d, %ebx
	subq	$1, 48(%rsp)
	cmpq	$-1, 48(%rsp)
	jne	.L237
	movl	%ecx, 124(%rsp)
	movl	%esi, 128(%rsp)
	movl	%edi, 132(%rsp)
	movl	%r8d, 136(%rsp)
	movl	%r9d, 140(%rsp)
	movl	%r10d, 108(%rsp)
	movl	%r11d, 112(%rsp)
	movl	%eax, 116(%rsp)
	movl	%edx, 120(%rsp)
.L236:
	movl	%r13d, %edi
	call	use_int@PLT
	movl	%r12d, %edi
	call	use_int@PLT
	movl	%ebp, %edi
	call	use_int@PLT
	movl	124(%rsp), %edi
	call	use_int@PLT
	movl	128(%rsp), %edi
	call	use_int@PLT
	movl	132(%rsp), %edi
	call	use_int@PLT
	movl	136(%rsp), %edi
	call	use_int@PLT
	movl	140(%rsp), %edi
	call	use_int@PLT
	movl	108(%rsp), %edi
	call	use_int@PLT
	movl	112(%rsp), %edi
	call	use_int@PLT
	movl	116(%rsp), %edi
	call	use_int@PLT
	movl	120(%rsp), %edi
	call	use_int@PLT
	movl	%ebx, %edi
	call	use_int@PLT
	addq	$152, %rsp
	.cfi_def_cfa_offset 56
	popq	%rbx
	.cfi_def_cfa_offset 48
	popq	%rbp
	.cfi_def_cfa_offset 40
	popq	%r12
	.cfi_def_cfa_offset 32
	popq	%r13
	.cfi_def_cfa_offset 24
	popq	%r14
	.cfi_def_cfa_offset 16
	popq	%r15
	.cfi_def_cfa_offset 8
	ret
	.cfi_endproc
.LFE117:
	.size	integer_mul_12, .-integer_mul_12
	.globl	integer_mul_13
	.type	integer_mul_13, @function
integer_mul_13:
.LFB118:
	.cfi_startproc
	endbr64
	pushq	%r15
	.cfi_def_cfa_offset 16
	.cfi_offset 15, -16
	pushq	%r14
	.cfi_def_cfa_offset 24
	.cfi_offset 14, -24
	pushq	%r13
	.cfi_def_cfa_offset 32
	.cfi_offset 13, -32
	pushq	%r12
	.cfi_def_cfa_offset 40
	.cfi_offset 12, -40
	pushq	%rbp
	.cfi_def_cfa_offset 48
	.cfi_offset 6, -48
	pushq	%rbx
	.cfi_def_cfa_offset 56
	.cfi_offset 3, -56
	subq	$168, %rsp
	.cfi_def_cfa_offset 224
	movq	%rsi, %rdx
	movl	12(%rsi), %eax
	leal	37432(%rax), %ecx
	leal	5(%rax), %ebx
	movl	%ebx, 12(%rsp)
	movl	%ebx, %eax
	imull	%ecx, %eax
	imull	%ebx, %eax
	imull	%ebx, %eax
	imull	%ebx, %eax
	imull	%ebx, %eax
	imull	%ebx, %eax
	imull	%ebx, %eax
	imull	%ebx, %eax
	imull	%ebx, %eax
	imull	%ebx, %eax
	movl	%eax, %r14d
	subl	%ecx, %eax
	movl	%eax, 68(%rsp)
	movl	16(%rsi), %eax
	leal	37431(%rax), %ecx
	leal	4(%rax), %esi
	movl	%esi, 16(%rsp)
	movl	%esi, %eax
	imull	%ecx, %eax
	imull	%esi, %eax
	imull	%esi, %eax
	imull	%esi, %eax
	imull	%esi, %eax
	imull	%esi, %eax
	imull	%esi, %eax
	imull	%esi, %eax
	imull	%esi, %eax
	imull	%esi, %eax
	movl	%eax, %r13d
	subl	%ecx, %eax
	movl	%eax, 72(%rsp)
	movl	20(%rdx), %eax
	leal	37430(%rax), %ecx
	leal	3(%rax), %ebx
	movl	%ebx, 20(%rsp)
	movl	%ebx, %eax
	imull	%ecx, %eax
	imull	%ebx, %eax
	imull	%ebx, %eax
	imull	%ebx, %eax
	imull	%ebx, %eax
	imull	%ebx, %eax
	imull	%ebx, %eax
	imull	%ebx, %eax
	imull	%ebx, %eax
	imull	%ebx, %eax
	movl	%eax, %r12d
	subl	%ecx, %eax
	movl	%eax, 76(%rsp)
	movl	24(%rdx), %ecx
	leal	37429(%rcx), %eax
	leal	2(%rcx), %esi
	movl	%esi, 24(%rsp)
	movl	%esi, %ecx
	imull	%eax, %ecx
	imull	%esi, %ecx
	imull	%esi, %ecx
	imull	%esi, %ecx
	imull	%esi, %ecx
	imull	%esi, %ecx
	imull	%esi, %ecx
	imull	%esi, %ecx
	imull	%esi, %ecx
	imull	%esi, %ecx
	movl	%ecx, %ebp
	movl	%ecx, %esi
	subl	%eax, %esi
	movl	%esi, 80(%rsp)
	movl	28(%rdx), %ecx
	leal	37428(%rcx), %eax
	leal	1(%rcx), %ebx
	movl	%ebx, 28(%rsp)
	movl	%ebx, %ecx
	imull	%eax, %ecx
	imull	%ebx, %ecx
	imull	%ebx, %ecx
	imull	%ebx, %ecx
	imull	%ebx, %ecx
	imull	%ebx, %ecx
	imull	%ebx, %ecx
	imull	%ebx, %ecx
	imull	%ebx, %ecx
	imull	%ebx, %ecx
	movl	%ecx, %r8d
	movl	%ecx, 140(%rsp)
	subl	%eax, %ecx
	movl	%ecx, 84(%rsp)
	movl	32(%rdx), %esi
	movl	%esi, 8(%rsp)
	leal	37427(%rsi), %eax
	movl	%esi, %ecx
	imull	%eax, %ecx
	imull	%esi, %ecx
	imull	%esi, %ecx
	imull	%esi, %ecx
	imull	%esi, %ecx
	imull	%esi, %ecx
	imull	%esi, %ecx
	imull	%esi, %ecx
	imull	%esi, %ecx
	imull	%esi, %ecx
	movl	%ecx, %r9d
	movl	%ecx, 144(%rsp)
	subl	%eax, %ecx
	movl	%ecx, 88(%rsp)
	movl	36(%rdx), %ecx
	leal	37426(%rcx), %eax
	leal	-1(%rcx), %esi
	movl	%esi, 32(%rsp)
	movl	%esi, %ecx
	imull	%eax, %ecx
	imull	%esi, %ecx
	imull	%esi, %ecx
	imull	%esi, %ecx
	imull	%esi, %ecx
	imull	%esi, %ecx
	imull	%esi, %ecx
	imull	%esi, %ecx
	imull	%esi, %ecx
	imull	%esi, %ecx
	movl	%ecx, %esi
	movl	%ecx, 148(%rsp)
	subl	%eax, %ecx
	movl	%ecx, 92(%rsp)
	movl	40(%rdx), %ecx
	leal	37425(%rcx), %eax
	leal	-2(%rcx), %ebx
	movl	%ebx, 36(%rsp)
	movl	%ebx, %ecx
	imull	%eax, %ecx
	imull	%ebx, %ecx
	imull	%ebx, %ecx
	imull	%ebx, %ecx
	imull	%ebx, %ecx
	imull	%ebx, %ecx
	imull	%ebx, %ecx
	imull	%ebx, %ecx
	imull	%ebx, %ecx
	imull	%ebx, %ecx
	movl	%ecx, %r10d
	movl	%ecx, 152(%rsp)
	subl	%eax, %ecx
	movl	%ecx, 96(%rsp)
	movl	44(%rdx), %ecx
	leal	37424(%rcx), %eax
	leal	-3(%rcx), %ebx
	movl	%ebx, 40(%rsp)
	movl	%ebx, %ecx
	imull	%eax, %ecx
	imull	%ebx, %ecx
	imull	%ebx, %ecx
	imull	%ebx, %ecx
	imull	%ebx, %ecx
	imull	%ebx, %ecx
	imull	%ebx, %ecx
	imull	%ebx, %ecx
	imull	%ebx, %ecx
	imull	%ebx, %ecx
	movl	%ecx, %r11d
	movl	%ecx, 156(%rsp)
	subl	%eax, %ecx
	movl	%ecx, 100(%rsp)
	movl	48(%rdx), %ecx
	leal	37423(%rcx), %eax
	leal	-4(%rcx), %ebx
	movl	%ebx, 44(%rsp)
	movl	%ebx, %ecx
	imull	%eax, %ecx
	imull	%ebx, %ecx
	imull	%ebx, %ecx
	imull	%ebx, %ecx
	imull	%ebx, %ecx
	imull	%ebx, %ecx
	imull	%ebx, %ecx
	imull	%ebx, %ecx
	imull	%ebx, %ecx
	imull	%ebx, %ecx
	movl	%ecx, 124(%rsp)
	movl	%ecx, %ebx
	subl	%eax, %ebx
	movl	%ebx, 104(%rsp)
	movl	52(%rdx), %eax
	leal	37422(%rax), %ecx
	leal	-5(%rax), %ebx
	movl	%ebx, 48(%rsp)
	movl	%ebx, %eax
	imull	%ecx, %eax
	imull	%ebx, %eax
	imull	%ebx, %eax
	imull	%ebx, %eax
	imull	%ebx, %eax
	imull	%ebx, %eax
	imull	%ebx, %eax
	imull	%ebx, %eax
	imull	%ebx, %eax
	imull	%ebx, %eax
	movl	%eax, 128(%rsp)
	movl	%eax, %r15d
	subl	%ecx, %r15d
	movl	%r15d, 108(%rsp)
	movl	56(%rdx), %eax
	leal	37421(%rax), %ecx
	leal	-6(%rax), %ebx
	movl	%ebx, 52(%rsp)
	movl	%ebx, %eax
	imull	%ecx, %eax
	imull	%ebx, %eax
	imull	%ebx, %eax
	imull	%ebx, %eax
	imull	%ebx, %eax
	imull	%ebx, %eax
	imull	%ebx, %eax
	imull	%ebx, %eax
	imull	%ebx, %eax
	imull	%ebx, %eax
	movl	%eax, 132(%rsp)
	movl	%eax, %ebx
	subl	%ecx, %ebx
	movl	%ebx, 112(%rsp)
	movl	60(%rdx), %eax
	leal	37420(%rax), %ecx
	leal	-7(%rax), %ebx
	movl	%ebx, 64(%rsp)
	movl	%ebx, %eax
	imull	%ecx, %eax
	imull	%ebx, %eax
	imull	%ebx, %eax
	imull	%ebx, %eax
	imull	%ebx, %eax
	imull	%ebx, %eax
	imull	%ebx, %eax
	imull	%ebx, %eax
	imull	%ebx, %eax
	movl	%eax, %r15d
	imull	%ebx, %r15d
	movl	%r15d, 136(%rsp)
	subl	%ecx, %r15d
	movl	%r15d, 116(%rsp)
	movl	64(%rdx), %r15d
	leal	37419(%r15), %eax
	subl	$8, %r15d
	movl	%eax, %edx
	imull	%r15d, %edx
	movl	%edx, %ebx
	imull	%r15d, %ebx
	imull	%r15d, %ebx
	imull	%r15d, %ebx
	imull	%r15d, %ebx
	imull	%r15d, %ebx
	imull	%r15d, %ebx
	imull	%r15d, %ebx
	imull	%r15d, %ebx
	imull	%r15d, %ebx
	movl	%ebx, %edx
	subl	%eax, %edx
	movl	%edx, 120(%rsp)
	leaq	-1(%rdi), %rdx
	movq	%rdx, 56(%rsp)
	testq	%rdi, %rdi
	je	.L241
	movl	%r8d, %edx
	movl	%r9d, %ecx
	movl	%r10d, %edi
	movl	%r11d, %r8d
	movl	124(%rsp), %r9d
	movl	128(%rsp), %r10d
	movl	132(%rsp), %eax
	movl	136(%rsp), %r11d
.L242:
	subl	68(%rsp), %r14d
	subl	72(%rsp), %r13d
	subl	76(%rsp), %r12d
	subl	80(%rsp), %ebp
	subl	84(%rsp), %edx
	subl	88(%rsp), %ecx
	subl	92(%rsp), %esi
	subl	96(%rsp), %edi
	subl	100(%rsp), %r8d
	subl	104(%rsp), %r9d
	subl	108(%rsp), %r10d
	subl	112(%rsp), %eax
	subl	116(%rsp), %r11d
	subl	120(%rsp), %ebx
	imull	12(%rsp), %r14d
	imull	16(%rsp), %r13d
	imull	20(%rsp), %r12d
	imull	24(%rsp), %ebp
	imull	28(%rsp), %edx
	imull	8(%rsp), %ecx
	imull	32(%rsp), %esi
	imull	36(%rsp), %edi
	imull	40(%rsp), %r8d
	imull	44(%rsp), %r9d
	imull	48(%rsp), %r10d
	imull	52(%rsp), %eax
	imull	64(%rsp), %r11d
	imull	%r15d, %ebx
	imull	12(%rsp), %r14d
	imull	16(%rsp), %r13d
	imull	20(%rsp), %r12d
	imull	24(%rsp), %ebp
	imull	28(%rsp), %edx
	imull	8(%rsp), %ecx
	imull	32(%rsp), %esi
	imull	36(%rsp), %edi
	imull	40(%rsp), %r8d
	imull	44(%rsp), %r9d
	imull	48(%rsp), %r10d
	imull	52(%rsp), %eax
	imull	64(%rsp), %r11d
	imull	%r15d, %ebx
	imull	12(%rsp), %r14d
	imull	16(%rsp), %r13d
	imull	20(%rsp), %r12d
	imull	24(%rsp), %ebp
	imull	28(%rsp), %edx
	imull	8(%rsp), %ecx
	imull	32(%rsp), %esi
	imull	36(%rsp), %edi
	imull	40(%rsp), %r8d
	imull	44(%rsp), %r9d
	imull	48(%rsp), %r10d
	imull	52(%rsp), %eax
	imull	64(%rsp), %r11d
	imull	%r15d, %ebx
	imull	12(%rsp), %r14d
	imull	16(%rsp), %r13d
	imull	20(%rsp), %r12d
	imull	24(%rsp), %ebp
	imull	28(%rsp), %edx
	imull	8(%rsp), %ecx
	imull	32(%rsp), %esi
	imull	36(%rsp), %edi
	imull	40(%rsp), %r8d
	imull	44(%rsp), %r9d
	imull	48(%rsp), %r10d
	imull	52(%rsp), %eax
	imull	64(%rsp), %r11d
	imull	%r15d, %ebx
	imull	12(%rsp), %r14d
	imull	16(%rsp), %r13d
	imull	20(%rsp), %r12d
	imull	24(%rsp), %ebp
	imull	28(%rsp), %edx
	imull	8(%rsp), %ecx
	imull	32(%rsp), %esi
	imull	36(%rsp), %edi
	imull	40(%rsp), %r8d
	imull	44(%rsp), %r9d
	imull	48(%rsp), %r10d
	imull	52(%rsp), %eax
	imull	64(%rsp), %r11d
	imull	%r15d, %ebx
	imull	12(%rsp), %r14d
	imull	16(%rsp), %r13d
	imull	20(%rsp), %r12d
	imull	24(%rsp), %ebp
	imull	28(%rsp), %edx
	imull	8(%rsp), %ecx
	imull	32(%rsp), %esi
	imull	36(%rsp), %edi
	imull	40(%rsp), %r8d
	imull	44(%rsp), %r9d
	imull	48(%rsp), %r10d
	imull	52(%rsp), %eax
	imull	64(%rsp), %r11d
	imull	%r15d, %ebx
	imull	12(%rsp), %r14d
	imull	16(%rsp), %r13d
	imull	20(%rsp), %r12d
	imull	24(%rsp), %ebp
	imull	28(%rsp), %edx
	imull	8(%rsp), %ecx
	imull	32(%rsp), %esi
	imull	36(%rsp), %edi
	imull	40(%rsp), %r8d
	imull	44(%rsp), %r9d
	imull	48(%rsp), %r10d
	imull	52(%rsp), %eax
	imull	64(%rsp), %r11d
	imull	%r15d, %ebx
	imull	12(%rsp), %r14d
	imull	16(%rsp), %r13d
	imull	20(%rsp), %r12d
	imull	24(%rsp), %ebp
	imull	28(%rsp), %edx
	imull	8(%rsp), %ecx
	imull	32(%rsp), %esi
	imull	36(%rsp), %edi
	imull	40(%rsp), %r8d
	imull	44(%rsp), %r9d
	imull	48(%rsp), %r10d
	imull	52(%rsp), %eax
	imull	64(%rsp), %r11d
	imull	%r15d, %ebx
	imull	12(%rsp), %r14d
	imull	16(%rsp), %r13d
	imull	20(%rsp), %r12d
	imull	24(%rsp), %ebp
	imull	28(%rsp), %edx
	imull	8(%rsp), %ecx
	imull	32(%rsp), %esi
	imull	36(%rsp), %edi
	imull	40(%rsp), %r8d
	imull	44(%rsp), %r9d
	imull	48(%rsp), %r10d
	imull	52(%rsp), %eax
	imull	64(%rsp), %r11d
	imull	%r15d, %ebx
	imull	12(%rsp), %r14d
	imull	16(%rsp), %r13d
	imull	20(%rsp), %r12d
	imull	24(%rsp), %ebp
	imull	28(%rsp), %edx
	imull	8(%rsp), %ecx
	imull	32(%rsp), %esi
	imull	36(%rsp), %edi
	imull	40(%rsp), %r8d
	imull	44(%rsp), %r9d
	imull	48(%rsp), %r10d
	imull	52(%rsp), %eax
	imull	64(%rsp), %r11d
	imull	%r15d, %ebx
	subq	$1, 56(%rsp)
	cmpq	$-1, 56(%rsp)
	jne	.L242
	movl	%edx, 140(%rsp)
	movl	%ecx, 144(%rsp)
	movl	%esi, 148(%rsp)
	movl	%edi, 152(%rsp)
	movl	%r8d, 156(%rsp)
	movl	%r9d, 124(%rsp)
	movl	%r10d, 128(%rsp)
	movl	%eax, 132(%rsp)
	movl	%r11d, 136(%rsp)
.L241:
	movl	%r14d, %edi
	call	use_int@PLT
	movl	%r13d, %edi
	call	use_int@PLT
	movl	%r12d, %edi
	call	use_int@PLT
	movl	%ebp, %edi
	call	use_int@PLT
	movl	140(%rsp), %edi
	call	use_int@PLT
	movl	144(%rsp), %edi
	call	use_int@PLT
	movl	148(%rsp), %edi
	call	use_int@PLT
	movl	152(%rsp), %edi
	call	use_int@PLT
	movl	156(%rsp), %edi
	call	use_int@PLT
	movl	124(%rsp), %edi
	call	use_int@PLT
	movl	128(%rsp), %edi
	call	use_int@PLT
	movl	132(%rsp), %edi
	call	use_int@PLT
	movl	136(%rsp), %edi
	call	use_int@PLT
	movl	%ebx, %edi
	call	use_int@PLT
	addq	$168, %rsp
	.cfi_def_cfa_offset 56
	popq	%rbx
	.cfi_def_cfa_offset 48
	popq	%rbp
	.cfi_def_cfa_offset 40
	popq	%r12
	.cfi_def_cfa_offset 32
	popq	%r13
	.cfi_def_cfa_offset 24
	popq	%r14
	.cfi_def_cfa_offset 16
	popq	%r15
	.cfi_def_cfa_offset 8
	ret
	.cfi_endproc
.LFE118:
	.size	integer_mul_13, .-integer_mul_13
	.globl	integer_mul_14
	.type	integer_mul_14, @function
integer_mul_14:
.LFB119:
	.cfi_startproc
	endbr64
	pushq	%r15
	.cfi_def_cfa_offset 16
	.cfi_offset 15, -16
	pushq	%r14
	.cfi_def_cfa_offset 24
	.cfi_offset 14, -24
	pushq	%r13
	.cfi_def_cfa_offset 32
	.cfi_offset 13, -32
	pushq	%r12
	.cfi_def_cfa_offset 40
	.cfi_offset 12, -40
	pushq	%rbp
	.cfi_def_cfa_offset 48
	.cfi_offset 6, -48
	pushq	%rbx
	.cfi_def_cfa_offset 56
	.cfi_offset 3, -56
	subq	$184, %rsp
	.cfi_def_cfa_offset 240
	movq	%rsi, %rdx
	movl	12(%rsi), %eax
	leal	37432(%rax), %ecx
	leal	5(%rax), %ebx
	movl	%ebx, 16(%rsp)
	movl	%ebx, %eax
	imull	%ecx, %eax
	imull	%ebx, %eax
	imull	%ebx, %eax
	imull	%ebx, %eax
	imull	%ebx, %eax
	imull	%ebx, %eax
	imull	%ebx, %eax
	imull	%ebx, %eax
	imull	%ebx, %eax
	imull	%ebx, %eax
	movl	%eax, %r15d
	subl	%ecx, %eax
	movl	%eax, 80(%rsp)
	movl	16(%rsi), %eax
	leal	37431(%rax), %ecx
	leal	4(%rax), %esi
	movl	%esi, 20(%rsp)
	movl	%esi, %eax
	imull	%ecx, %eax
	imull	%esi, %eax
	imull	%esi, %eax
	imull	%esi, %eax
	imull	%esi, %eax
	imull	%esi, %eax
	imull	%esi, %eax
	imull	%esi, %eax
	imull	%esi, %eax
	imull	%esi, %eax
	movl	%eax, %r14d
	subl	%ecx, %eax
	movl	%eax, 84(%rsp)
	movl	20(%rdx), %eax
	leal	37430(%rax), %ecx
	leal	3(%rax), %ebx
	movl	%ebx, 24(%rsp)
	movl	%ebx, %eax
	imull	%ecx, %eax
	imull	%ebx, %eax
	imull	%ebx, %eax
	imull	%ebx, %eax
	imull	%ebx, %eax
	imull	%ebx, %eax
	imull	%ebx, %eax
	imull	%ebx, %eax
	imull	%ebx, %eax
	imull	%ebx, %eax
	movl	%eax, %r13d
	subl	%ecx, %eax
	movl	%eax, 88(%rsp)
	movl	24(%rdx), %ecx
	leal	37429(%rcx), %eax
	leal	2(%rcx), %esi
	movl	%esi, 28(%rsp)
	movl	%esi, %ecx
	imull	%eax, %ecx
	imull	%esi, %ecx
	imull	%esi, %ecx
	imull	%esi, %ecx
	imull	%esi, %ecx
	imull	%esi, %ecx
	imull	%esi, %ecx
	imull	%esi, %ecx
	imull	%esi, %ecx
	imull	%esi, %ecx
	movl	%ecx, %r12d
	subl	%eax, %ecx
	movl	%ecx, 92(%rsp)
	movl	28(%rdx), %ecx
	leal	37428(%rcx), %eax
	leal	1(%rcx), %ebx
	movl	%ebx, 32(%rsp)
	movl	%ebx, %ecx
	imull	%eax, %ecx
	imull	%ebx, %ecx
	imull	%ebx, %ecx
	imull	%ebx, %ecx
	imull	%ebx, %ecx
	imull	%ebx, %ecx
	imull	%ebx, %ecx
	imull	%ebx, %ecx
	imull	%ebx, %ecx
	imull	%ebx, %ecx
	movl	%ecx, %ebp
	subl	%eax, %ecx
	movl	%ecx, 96(%rsp)
	movl	32(%rdx), %esi
	movl	%esi, 12(%rsp)
	leal	37427(%rsi), %eax
	movl	%esi, %ecx
	imull	%eax, %ecx
	imull	%esi, %ecx
	imull	%esi, %ecx
	imull	%esi, %ecx
	imull	%esi, %ecx
	imull	%esi, %ecx
	imull	%esi, %ecx
	imull	%esi, %ecx
	imull	%esi, %ecx
	imull	%esi, %ecx
	movl	%ecx, %r8d
	movl	%ecx, 156(%rsp)
	subl	%eax, %ecx
	movl	%ecx, 100(%rsp)
	movl	36(%rdx), %ecx
	leal	37426(%rcx), %eax
	leal	-1(%rcx), %esi
	movl	%esi, 36(%rsp)
	movl	%esi, %ecx
	imull	%eax, %ecx
	imull	%esi, %ecx
	imull	%esi, %ecx
	imull	%esi, %ecx
	imull	%esi, %ecx
	imull	%esi, %ecx
	imull	%esi, %ecx
	imull	%esi, %ecx
	imull	%esi, %ecx
	imull	%esi, %ecx
	movl	%ecx, %r9d
	movl	%ecx, 160(%rsp)
	subl	%eax, %ecx
	movl	%ecx, 104(%rsp)
	movl	40(%rdx), %ecx
	leal	37425(%rcx), %eax
	leal	-2(%rcx), %ebx
	movl	%ebx, 40(%rsp)
	movl	%ebx, %ecx
	imull	%eax, %ecx
	imull	%ebx, %ecx
	imull	%ebx, %ecx
	imull	%ebx, %ecx
	imull	%ebx, %ecx
	imull	%ebx, %ecx
	imull	%ebx, %ecx
	imull	%ebx, %ecx
	imull	%ebx, %ecx
	imull	%ebx, %ecx
	movl	%ecx, %r10d
	movl	%ecx, 164(%rsp)
	subl	%eax, %ecx
	movl	%ecx, 108(%rsp)
	movl	44(%rdx), %ecx
	leal	37424(%rcx), %eax
	leal	-3(%rcx), %esi
	movl	%esi, 44(%rsp)
	movl	%esi, %ecx
	imull	%eax, %ecx
	imull	%esi, %ecx
	imull	%esi, %ecx
	imull	%esi, %ecx
	imull	%esi, %ecx
	imull	%esi, %ecx
	imull	%esi, %ecx
	imull	%esi, %ecx
	imull	%esi, %ecx
	imull	%esi, %ecx
	movl	%ecx, %esi
	movl	%ecx, 168(%rsp)
	subl	%eax, %ecx
	movl	%ecx, 112(%rsp)
	movl	48(%rdx), %ecx
	leal	37423(%rcx), %eax
	leal	-4(%rcx), %ebx
	movl	%ebx, 48(%rsp)
	movl	%ebx, %ecx
	imull	%eax, %ecx
	imull	%ebx, %ecx
	imull	%ebx, %ecx
	imull	%ebx, %ecx
	imull	%ebx, %ecx
	imull	%ebx, %ecx
	imull	%ebx, %ecx
	imull	%ebx, %ecx
	imull	%ebx, %ecx
	imull	%ebx, %ecx
	movl	%ecx, %r11d
	movl	%ecx, 172(%rsp)
	subl	%eax, %ecx
	movl	%ecx, 116(%rsp)
	movl	52(%rdx), %eax
	leal	37422(%rax), %ecx
	leal	-5(%rax), %ebx
	movl	%ebx, 52(%rsp)
	movl	%ebx, %eax
	imull	%ecx, %eax
	imull	%ebx, %eax
	imull	%ebx, %eax
	imull	%ebx, %eax
	imull	%ebx, %eax
	imull	%ebx, %eax
	imull	%ebx, %eax
	imull	%ebx, %eax
	imull	%ebx, %eax
	imull	%ebx, %eax
	movl	%eax, 140(%rsp)
	movl	%eax, %ebx
	subl	%ecx, %ebx
	movl	%ebx, 120(%rsp)
	movl	56(%rdx), %eax
	leal	37421(%rax), %ecx
	leal	-6(%rax), %ebx
	movl	%ebx, 56(%rsp)
	movl	%ebx, %eax
	imull	%ecx, %eax
	imull	%ebx, %eax
	imull	%ebx, %eax
	imull	%ebx, %eax
	imull	%ebx, %eax
	imull	%ebx, %eax
	imull	%ebx, %eax
	imull	%ebx, %eax
	imull	%ebx, %eax
	imull	%ebx, %eax
	movl	%eax, 144(%rsp)
	movl	%eax, %ebx
	subl	%ecx, %ebx
	movl	%ebx, 124(%rsp)
	movl	60(%rdx), %eax
	leal	37420(%rax), %ecx
	leal	-7(%rax), %ebx
	movl	%ebx, 60(%rsp)
	movl	%ebx, %eax
	imull	%ecx, %eax
	imull	%ebx, %eax
	imull	%ebx, %eax
	imull	%ebx, %eax
	imull	%ebx, %eax
	imull	%ebx, %eax
	imull	%ebx, %eax
	imull	%ebx, %eax
	imull	%ebx, %eax
	imull	%ebx, %eax
	movl	%eax, 148(%rsp)
	movl	%eax, %ebx
	subl	%ecx, %ebx
	movl	%ebx, 128(%rsp)
	movl	64(%rdx), %eax
	leal	37419(%rax), %ecx
	leal	-8(%rax), %ebx
	movl	%ebx, 64(%rsp)
	movl	%ebx, %eax
	imull	%ecx, %eax
	imull	%ebx, %eax
	imull	%ebx, %eax
	imull	%ebx, %eax
	imull	%ebx, %eax
	imull	%ebx, %eax
	imull	%ebx, %eax
	imull	%ebx, %eax
	imull	%ebx, %eax
	imull	%ebx, %eax
	movl	%eax, 152(%rsp)
	movl	%eax, %ebx
	subl	%ecx, %ebx
	movl	%ebx, 132(%rsp)
	movl	68(%rdx), %eax
	leal	37418(%rax), %edx
	subl	$9, %eax
	movl	%eax, 68(%rsp)
	movl	%eax, %ebx
	imull	%edx, %ebx
	imull	%eax, %ebx
	imull	%eax, %ebx
	imull	%eax, %ebx
	imull	%eax, %ebx
	imull	%eax, %ebx
	imull	%eax, %ebx
	imull	%eax, %ebx
	imull	%eax, %ebx
	imull	%eax, %ebx
	movl	%ebx, %ecx
	subl	%edx, %ecx
	movl	%ecx, 136(%rsp)
	leaq	-1(%rdi), %rdx
	movq	%rdx, 72(%rsp)
	testq	%rdi, %rdi
	je	.L246
	movl	%r8d, %eax
	movl	%r9d, %edx
	movl	%r10d, %ecx
	movl	%r11d, %edi
	movl	140(%rsp), %r8d
	movl	144(%rsp), %r9d
	movl	148(%rsp), %r10d
	movl	152(%rsp), %r11d
.L247:
	subl	80(%rsp), %r15d
	subl	84(%rsp), %r14d
	subl	88(%rsp), %r13d
	subl	92(%rsp), %r12d
	subl	96(%rsp), %ebp
	subl	100(%rsp), %eax
	subl	104(%rsp), %edx
	subl	108(%rsp), %ecx
	subl	112(%rsp), %esi
	subl	116(%rsp), %edi
	subl	120(%rsp), %r8d
	subl	124(%rsp), %r9d
	subl	128(%rsp), %r10d
	subl	132(%rsp), %r11d
	subl	136(%rsp), %ebx
	imull	16(%rsp), %r15d
	imull	20(%rsp), %r14d
	imull	24(%rsp), %r13d
	imull	28(%rsp), %r12d
	imull	32(%rsp), %ebp
	imull	12(%rsp), %eax
	imull	36(%rsp), %edx
	imull	40(%rsp), %ecx
	imull	44(%rsp), %esi
	imull	48(%rsp), %edi
	imull	52(%rsp), %r8d
	imull	56(%rsp), %r9d
	imull	60(%rsp), %r10d
	imull	64(%rsp), %r11d
	imull	68(%rsp), %ebx
	imull	16(%rsp), %r15d
	imull	20(%rsp), %r14d
	imull	24(%rsp), %r13d
	imull	28(%rsp), %r12d
	imull	32(%rsp), %ebp
	imull	12(%rsp), %eax
	imull	36(%rsp), %edx
	imull	40(%rsp), %ecx
	imull	44(%rsp), %esi
	imull	48(%rsp), %edi
	imull	52(%rsp), %r8d
	imull	56(%rsp), %r9d
	imull	60(%rsp), %r10d
	imull	64(%rsp), %r11d
	imull	68(%rsp), %ebx
	imull	16(%rsp), %r15d
	imull	20(%rsp), %r14d
	imull	24(%rsp), %r13d
	imull	28(%rsp), %r12d
	imull	32(%rsp), %ebp
	imull	12(%rsp), %eax
	imull	36(%rsp), %edx
	imull	40(%rsp), %ecx
	imull	44(%rsp), %esi
	imull	48(%rsp), %edi
	imull	52(%rsp), %r8d
	imull	56(%rsp), %r9d
	imull	60(%rsp), %r10d
	imull	64(%rsp), %r11d
	imull	68(%rsp), %ebx
	imull	16(%rsp), %r15d
	imull	20(%rsp), %r14d
	imull	24(%rsp), %r13d
	imull	28(%rsp), %r12d
	imull	32(%rsp), %ebp
	imull	12(%rsp), %eax
	imull	36(%rsp), %edx
	imull	40(%rsp), %ecx
	imull	44(%rsp), %esi
	imull	48(%rsp), %edi
	imull	52(%rsp), %r8d
	imull	56(%rsp), %r9d
	imull	60(%rsp), %r10d
	imull	64(%rsp), %r11d
	imull	68(%rsp), %ebx
	imull	16(%rsp), %r15d
	imull	20(%rsp), %r14d
	imull	24(%rsp), %r13d
	imull	28(%rsp), %r12d
	imull	32(%rsp), %ebp
	imull	12(%rsp), %eax
	imull	36(%rsp), %edx
	imull	40(%rsp), %ecx
	imull	44(%rsp), %esi
	imull	48(%rsp), %edi
	imull	52(%rsp), %r8d
	imull	56(%rsp), %r9d
	imull	60(%rsp), %r10d
	imull	64(%rsp), %r11d
	imull	68(%rsp), %ebx
	imull	16(%rsp), %r15d
	imull	20(%rsp), %r14d
	imull	24(%rsp), %r13d
	imull	28(%rsp), %r12d
	imull	32(%rsp), %ebp
	imull	12(%rsp), %eax
	imull	36(%rsp), %edx
	imull	40(%rsp), %ecx
	imull	44(%rsp), %esi
	imull	48(%rsp), %edi
	imull	52(%rsp), %r8d
	imull	56(%rsp), %r9d
	imull	60(%rsp), %r10d
	imull	64(%rsp), %r11d
	imull	68(%rsp), %ebx
	imull	16(%rsp), %r15d
	imull	20(%rsp), %r14d
	imull	24(%rsp), %r13d
	imull	28(%rsp), %r12d
	imull	32(%rsp), %ebp
	imull	12(%rsp), %eax
	imull	36(%rsp), %edx
	imull	40(%rsp), %ecx
	imull	44(%rsp), %esi
	imull	48(%rsp), %edi
	imull	52(%rsp), %r8d
	imull	56(%rsp), %r9d
	imull	60(%rsp), %r10d
	imull	64(%rsp), %r11d
	imull	68(%rsp), %ebx
	imull	16(%rsp), %r15d
	imull	20(%rsp), %r14d
	imull	24(%rsp), %r13d
	imull	28(%rsp), %r12d
	imull	32(%rsp), %ebp
	imull	12(%rsp), %eax
	imull	36(%rsp), %edx
	imull	40(%rsp), %ecx
	imull	44(%rsp), %esi
	imull	48(%rsp), %edi
	imull	52(%rsp), %r8d
	imull	56(%rsp), %r9d
	imull	60(%rsp), %r10d
	imull	64(%rsp), %r11d
	imull	68(%rsp), %ebx
	imull	16(%rsp), %r15d
	imull	20(%rsp), %r14d
	imull	24(%rsp), %r13d
	imull	28(%rsp), %r12d
	imull	32(%rsp), %ebp
	imull	12(%rsp), %eax
	imull	36(%rsp), %edx
	imull	40(%rsp), %ecx
	imull	44(%rsp), %esi
	imull	48(%rsp), %edi
	imull	52(%rsp), %r8d
	imull	56(%rsp), %r9d
	imull	60(%rsp), %r10d
	imull	64(%rsp), %r11d
	imull	68(%rsp), %ebx
	imull	16(%rsp), %r15d
	imull	20(%rsp), %r14d
	imull	24(%rsp), %r13d
	imull	28(%rsp), %r12d
	imull	32(%rsp), %ebp
	imull	12(%rsp), %eax
	imull	36(%rsp), %edx
	imull	40(%rsp), %ecx
	imull	44(%rsp), %esi
	imull	48(%rsp), %edi
	imull	52(%rsp), %r8d
	imull	56(%rsp), %r9d
	imull	60(%rsp), %r10d
	imull	64(%rsp), %r11d
	imull	68(%rsp), %ebx
	subq	$1, 72(%rsp)
	cmpq	$-1, 72(%rsp)
	jne	.L247
	movl	%eax, 156(%rsp)
	movl	%edx, 160(%rsp)
	movl	%ecx, 164(%rsp)
	movl	%esi, 168(%rsp)
	movl	%edi, 172(%rsp)
	movl	%r8d, 140(%rsp)
	movl	%r9d, 144(%rsp)
	movl	%r10d, 148(%rsp)
	movl	%r11d, 152(%rsp)
.L246:
	movl	%r15d, %edi
	call	use_int@PLT
	movl	%r14d, %edi
	call	use_int@PLT
	movl	%r13d, %edi
	call	use_int@PLT
	movl	%r12d, %edi
	call	use_int@PLT
	movl	%ebp, %edi
	call	use_int@PLT
	movl	156(%rsp), %edi
	call	use_int@PLT
	movl	160(%rsp), %edi
	call	use_int@PLT
	movl	164(%rsp), %edi
	call	use_int@PLT
	movl	168(%rsp), %edi
	call	use_int@PLT
	movl	172(%rsp), %edi
	call	use_int@PLT
	movl	140(%rsp), %edi
	call	use_int@PLT
	movl	144(%rsp), %edi
	call	use_int@PLT
	movl	148(%rsp), %edi
	call	use_int@PLT
	movl	152(%rsp), %edi
	call	use_int@PLT
	movl	%ebx, %edi
	call	use_int@PLT
	addq	$184, %rsp
	.cfi_def_cfa_offset 56
	popq	%rbx
	.cfi_def_cfa_offset 48
	popq	%rbp
	.cfi_def_cfa_offset 40
	popq	%r12
	.cfi_def_cfa_offset 32
	popq	%r13
	.cfi_def_cfa_offset 24
	popq	%r14
	.cfi_def_cfa_offset 16
	popq	%r15
	.cfi_def_cfa_offset 8
	ret
	.cfi_endproc
.LFE119:
	.size	integer_mul_14, .-integer_mul_14
	.globl	integer_mul_15
	.type	integer_mul_15, @function
integer_mul_15:
.LFB120:
	.cfi_startproc
	endbr64
	pushq	%r15
	.cfi_def_cfa_offset 16
	.cfi_offset 15, -16
	pushq	%r14
	.cfi_def_cfa_offset 24
	.cfi_offset 14, -24
	pushq	%r13
	.cfi_def_cfa_offset 32
	.cfi_offset 13, -32
	pushq	%r12
	.cfi_def_cfa_offset 40
	.cfi_offset 12, -40
	pushq	%rbp
	.cfi_def_cfa_offset 48
	.cfi_offset 6, -48
	pushq	%rbx
	.cfi_def_cfa_offset 56
	.cfi_offset 3, -56
	subq	$184, %rsp
	.cfi_def_cfa_offset 240
	movq	%rsi, %rdx
	movl	12(%rsi), %eax
	leal	37432(%rax), %ecx
	leal	5(%rax), %ebx
	movl	%ebx, 4(%rsp)
	movl	%ebx, %eax
	imull	%ecx, %eax
	imull	%ebx, %eax
	imull	%ebx, %eax
	imull	%ebx, %eax
	imull	%ebx, %eax
	imull	%ebx, %eax
	imull	%ebx, %eax
	imull	%ebx, %eax
	imull	%ebx, %eax
	imull	%ebx, %eax
	movl	%eax, %r15d
	subl	%ecx, %eax
	movl	%eax, 84(%rsp)
	movl	16(%rsi), %eax
	leal	37431(%rax), %ecx
	leal	4(%rax), %ebx
	movl	%ebx, 8(%rsp)
	movl	%ebx, %eax
	imull	%ecx, %eax
	imull	%ebx, %eax
	imull	%ebx, %eax
	imull	%ebx, %eax
	imull	%ebx, %eax
	imull	%ebx, %eax
	imull	%ebx, %eax
	imull	%ebx, %eax
	imull	%ebx, %eax
	imull	%ebx, %eax
	movl	%eax, %r14d
	subl	%ecx, %eax
	movl	%eax, 88(%rsp)
	movl	20(%rsi), %eax
	leal	37430(%rax), %ecx
	leal	3(%rax), %esi
	movl	%esi, 12(%rsp)
	movl	%esi, %eax
	imull	%ecx, %eax
	imull	%esi, %eax
	imull	%esi, %eax
	imull	%esi, %eax
	imull	%esi, %eax
	imull	%esi, %eax
	imull	%esi, %eax
	imull	%esi, %eax
	imull	%esi, %eax
	imull	%esi, %eax
	movl	%eax, %r13d
	subl	%ecx, %eax
	movl	%eax, 92(%rsp)
	movl	24(%rdx), %ecx
	leal	37429(%rcx), %eax
	leal	2(%rcx), %ebx
	movl	%ebx, 16(%rsp)
	movl	%ebx, %ecx
	imull	%eax, %ecx
	imull	%ebx, %ecx
	imull	%ebx, %ecx
	imull	%ebx, %ecx
	imull	%ebx, %ecx
	imull	%ebx, %ecx
	imull	%ebx, %ecx
	imull	%ebx, %ecx
	imull	%ebx, %ecx
	imull	%ebx, %ecx
	movl	%ecx, %r12d
	movl	%ecx, %ebx
	subl	%eax, %ebx
	movl	%ebx, 96(%rsp)
	movl	28(%rdx), %ecx
	leal	37428(%rcx), %eax
	leal	1(%rcx), %esi
	movl	%esi, 20(%rsp)
	movl	%esi, %ecx
	imull	%eax, %ecx
	imull	%esi, %ecx
	imull	%esi, %ecx
	imull	%esi, %ecx
	imull	%esi, %ecx
	imull	%esi, %ecx
	imull	%esi, %ecx
	imull	%esi, %ecx
	imull	%esi, %ecx
	imull	%esi, %ecx
	movl	%ecx, %ebp
	movl	%ecx, %ebx
	subl	%eax, %ebx
	movl	%ebx, 100(%rsp)
	movl	32(%rdx), %esi
	movl	%esi, (%rsp)
	leal	37427(%rsi), %eax
	movl	%esi, %ecx
	imull	%eax, %ecx
	imull	%esi, %ecx
	imull	%esi, %ecx
	imull	%esi, %ecx
	imull	%esi, %ecx
	imull	%esi, %ecx
	imull	%esi, %ecx
	imull	%esi, %ecx
	imull	%esi, %ecx
	movl	%ecx, %ebx
	imull	%esi, %ebx
	movl	%ebx, %ecx
	subl	%eax, %ecx
	movl	%ecx, 104(%rsp)
	movl	36(%rdx), %ecx
	leal	37426(%rcx), %eax
	leal	-1(%rcx), %esi
	movl	%esi, 24(%rsp)
	movl	%esi, %ecx
	imull	%eax, %ecx
	imull	%esi, %ecx
	imull	%esi, %ecx
	imull	%esi, %ecx
	imull	%esi, %ecx
	imull	%esi, %ecx
	imull	%esi, %ecx
	imull	%esi, %ecx
	imull	%esi, %ecx
	imull	%esi, %ecx
	movl	%ecx, %r11d
	movl	%ecx, 160(%rsp)
	subl	%eax, %ecx
	movl	%ecx, 108(%rsp)
	movl	40(%rdx), %ecx
	leal	37425(%rcx), %eax
	leal	-2(%rcx), %esi
	movl	%esi, 28(%rsp)
	movl	%esi, %ecx
	imull	%eax, %ecx
	imull	%esi, %ecx
	imull	%esi, %ecx
	imull	%esi, %ecx
	imull	%esi, %ecx
	imull	%esi, %ecx
	imull	%esi, %ecx
	imull	%esi, %ecx
	imull	%esi, %ecx
	imull	%esi, %ecx
	movl	%ecx, %r10d
	movl	%ecx, 164(%rsp)
	subl	%eax, %ecx
	movl	%ecx, 112(%rsp)
	movl	44(%rdx), %ecx
	leal	37424(%rcx), %eax
	leal	-3(%rcx), %esi
	movl	%esi, 32(%rsp)
	movl	%esi, %ecx
	imull	%eax, %ecx
	imull	%esi, %ecx
	imull	%esi, %ecx
	imull	%esi, %ecx
	imull	%esi, %ecx
	imull	%esi, %ecx
	imull	%esi, %ecx
	imull	%esi, %ecx
	imull	%esi, %ecx
	imull	%esi, %ecx
	movl	%ecx, %r9d
	movl	%ecx, 168(%rsp)
	subl	%eax, %ecx
	movl	%ecx, 116(%rsp)
	movl	48(%rdx), %ecx
	leal	37423(%rcx), %eax
	leal	-4(%rcx), %esi
	movl	%esi, 36(%rsp)
	movl	%esi, %ecx
	imull	%eax, %ecx
	imull	%esi, %ecx
	imull	%esi, %ecx
	imull	%esi, %ecx
	imull	%esi, %ecx
	imull	%esi, %ecx
	imull	%esi, %ecx
	imull	%esi, %ecx
	imull	%esi, %ecx
	imull	%esi, %ecx
	movl	%ecx, %r8d
	movl	%ecx, 172(%rsp)
	subl	%eax, %ecx
	movl	%ecx, 120(%rsp)
	movl	52(%rdx), %ecx
	leal	37422(%rcx), %eax
	leal	-5(%rcx), %esi
	movl	%esi, 40(%rsp)
	movl	%esi, %ecx
	imull	%eax, %ecx
	imull	%esi, %ecx
	imull	%esi, %ecx
	imull	%esi, %ecx
	imull	%esi, %ecx
	imull	%esi, %ecx
	imull	%esi, %ecx
	imull	%esi, %ecx
	imull	%esi, %ecx
	imull	%esi, %ecx
	movl	%ecx, 80(%rsp)
	movl	%ecx, %esi
	subl	%eax, %esi
	movl	%esi, 124(%rsp)
	movl	56(%rdx), %eax
	leal	37421(%rax), %ecx
	leal	-6(%rax), %esi
	movl	%esi, 44(%rsp)
	movl	%esi, %eax
	imull	%ecx, %eax
	imull	%esi, %eax
	imull	%esi, %eax
	imull	%esi, %eax
	imull	%esi, %eax
	imull	%esi, %eax
	imull	%esi, %eax
	imull	%esi, %eax
	imull	%esi, %eax
	imull	%esi, %eax
	movl	%eax, 148(%rsp)
	subl	%ecx, %eax
	movl	%eax, 128(%rsp)
	movl	60(%rdx), %eax
	leal	37420(%rax), %ecx
	leal	-7(%rax), %esi
	movl	%esi, 48(%rsp)
	movl	%esi, %eax
	imull	%ecx, %eax
	imull	%esi, %eax
	imull	%esi, %eax
	imull	%esi, %eax
	imull	%esi, %eax
	imull	%esi, %eax
	imull	%esi, %eax
	imull	%esi, %eax
	imull	%esi, %eax
	imull	%esi, %eax
	movl	%eax, %esi
	movl	%eax, 152(%rsp)
	subl	%ecx, %esi
	movl	%esi, 132(%rsp)
	movl	64(%rdx), %eax
	leal	37419(%rax), %ecx
	leal	-8(%rax), %esi
	movl	%esi, 52(%rsp)
	movl	%esi, %eax
	imull	%ecx, %eax
	imull	%esi, %eax
	imull	%esi, %eax
	imull	%esi, %eax
	imull	%esi, %eax
	imull	%esi, %eax
	imull	%esi, %eax
	imull	%esi, %eax
	imull	%esi, %eax
	imull	%esi, %eax
	movl	%eax, 156(%rsp)
	subl	%ecx, %eax
	movl	%eax, 136(%rsp)
	movl	68(%rdx), %eax
	leal	37418(%rax), %ecx
	leal	-9(%rax), %esi
	movl	%esi, 56(%rsp)
	movl	%esi, %eax
	imull	%ecx, %eax
	imull	%esi, %eax
	imull	%esi, %eax
	imull	%esi, %eax
	imull	%esi, %eax
	imull	%esi, %eax
	imull	%esi, %eax
	imull	%esi, %eax
	imull	%esi, %eax
	imull	%esi, %eax
	movl	%eax, %esi
	movl	%eax, 72(%rsp)
	subl	%ecx, %esi
	movl	%esi, 140(%rsp)
	movl	72(%rdx), %eax
	leal	37417(%rax), %edx
	leal	-10(%rax), %ecx
	movl	%ecx, 60(%rsp)
	movl	%ecx, %eax
	imull	%edx, %eax
	imull	%ecx, %eax
	imull	%ecx, %eax
	imull	%ecx, %eax
	imull	%ecx, %eax
	imull	%ecx, %eax
	imull	%ecx, %eax
	imull	%ecx, %eax
	imull	%ecx, %eax
	imull	%ecx, %eax
	movl	%eax, %ecx
	movl	%eax, 76(%rsp)
	subl	%edx, %ecx
	movl	%ecx, 144(%rsp)
	leaq	-1(%rdi), %rdx
	movq	%rdx, 64(%rsp)
	testq	%rdi, %rdi
	je	.L251
	movl	80(%rsp), %edi
	movl	148(%rsp), %esi
	movl	152(%rsp), %ecx
	movl	156(%rsp), %edx
.L252:
	subl	84(%rsp), %r15d
	subl	88(%rsp), %r14d
	subl	92(%rsp), %r13d
	subl	96(%rsp), %r12d
	subl	100(%rsp), %ebp
	subl	104(%rsp), %ebx
	subl	108(%rsp), %r11d
	subl	112(%rsp), %r10d
	subl	116(%rsp), %r9d
	subl	120(%rsp), %r8d
	subl	124(%rsp), %edi
	subl	128(%rsp), %esi
	subl	132(%rsp), %ecx
	subl	136(%rsp), %edx
	movl	%edx, 80(%rsp)
	movl	72(%rsp), %eax
	subl	140(%rsp), %eax
	movl	76(%rsp), %edx
	subl	144(%rsp), %edx
	imull	4(%rsp), %r15d
	imull	8(%rsp), %r14d
	imull	12(%rsp), %r13d
	imull	16(%rsp), %r12d
	imull	20(%rsp), %ebp
	imull	(%rsp), %ebx
	imull	24(%rsp), %r11d
	imull	28(%rsp), %r10d
	imull	32(%rsp), %r9d
	imull	36(%rsp), %r8d
	imull	40(%rsp), %edi
	imull	44(%rsp), %esi
	movl	%esi, 72(%rsp)
	imull	48(%rsp), %ecx
	movl	80(%rsp), %esi
	imull	52(%rsp), %esi
	movl	%esi, 76(%rsp)
	imull	56(%rsp), %eax
	imull	60(%rsp), %edx
	movl	%edx, 80(%rsp)
	imull	4(%rsp), %r15d
	imull	8(%rsp), %r14d
	imull	12(%rsp), %r13d
	imull	16(%rsp), %r12d
	imull	20(%rsp), %ebp
	imull	(%rsp), %ebx
	imull	24(%rsp), %r11d
	imull	28(%rsp), %r10d
	imull	32(%rsp), %r9d
	imull	36(%rsp), %r8d
	imull	40(%rsp), %edi
	movl	72(%rsp), %esi
	imull	44(%rsp), %esi
	imull	48(%rsp), %ecx
	movl	%ecx, 72(%rsp)
	movl	76(%rsp), %ecx
	imull	52(%rsp), %ecx
	movl	%ecx, %edx
	imull	56(%rsp), %eax
	movl	%eax, 76(%rsp)
	movl	80(%rsp), %eax
	imull	60(%rsp), %eax
	movl	%eax, 80(%rsp)
	imull	4(%rsp), %r15d
	imull	8(%rsp), %r14d
	imull	12(%rsp), %r13d
	imull	16(%rsp), %r12d
	imull	20(%rsp), %ebp
	imull	(%rsp), %ebx
	imull	24(%rsp), %r11d
	imull	28(%rsp), %r10d
	imull	32(%rsp), %r9d
	imull	36(%rsp), %r8d
	imull	40(%rsp), %edi
	imull	44(%rsp), %esi
	movl	72(%rsp), %ecx
	imull	48(%rsp), %ecx
	imull	52(%rsp), %edx
	movl	76(%rsp), %eax
	imull	56(%rsp), %eax
	movl	%eax, 72(%rsp)
	movl	80(%rsp), %eax
	imull	60(%rsp), %eax
	movl	%eax, 76(%rsp)
	imull	4(%rsp), %r15d
	imull	8(%rsp), %r14d
	imull	12(%rsp), %r13d
	imull	16(%rsp), %r12d
	imull	20(%rsp), %ebp
	imull	(%rsp), %ebx
	imull	24(%rsp), %r11d
	imull	28(%rsp), %r10d
	imull	32(%rsp), %r9d
	imull	36(%rsp), %r8d
	imull	40(%rsp), %edi
	imull	44(%rsp), %esi
	imull	48(%rsp), %ecx
	imull	52(%rsp), %edx
	movl	72(%rsp), %eax
	imull	56(%rsp), %eax
	movl	%eax, 72(%rsp)
	movl	76(%rsp), %eax
	imull	60(%rsp), %eax
	movl	%eax, 76(%rsp)
	imull	4(%rsp), %r15d
	imull	8(%rsp), %r14d
	imull	12(%rsp), %r13d
	imull	16(%rsp), %r12d
	imull	20(%rsp), %ebp
	imull	(%rsp), %ebx
	imull	24(%rsp), %r11d
	imull	28(%rsp), %r10d
	imull	32(%rsp), %r9d
	imull	36(%rsp), %r8d
	imull	40(%rsp), %edi
	imull	44(%rsp), %esi
	imull	48(%rsp), %ecx
	imull	52(%rsp), %edx
	movl	72(%rsp), %eax
	imull	56(%rsp), %eax
	movl	%eax, 72(%rsp)
	movl	76(%rsp), %eax
	imull	60(%rsp), %eax
	movl	%eax, 76(%rsp)
	imull	4(%rsp), %r15d
	imull	8(%rsp), %r14d
	imull	12(%rsp), %r13d
	imull	16(%rsp), %r12d
	imull	20(%rsp), %ebp
	imull	(%rsp), %ebx
	imull	24(%rsp), %r11d
	imull	28(%rsp), %r10d
	imull	32(%rsp), %r9d
	imull	36(%rsp), %r8d
	imull	40(%rsp), %edi
	imull	44(%rsp), %esi
	imull	48(%rsp), %ecx
	imull	52(%rsp), %edx
	movl	72(%rsp), %eax
	imull	56(%rsp), %eax
	movl	%eax, 72(%rsp)
	movl	76(%rsp), %eax
	imull	60(%rsp), %eax
	movl	%eax, 76(%rsp)
	imull	4(%rsp), %r15d
	imull	8(%rsp), %r14d
	imull	12(%rsp), %r13d
	imull	16(%rsp), %r12d
	imull	20(%rsp), %ebp
	imull	(%rsp), %ebx
	imull	24(%rsp), %r11d
	imull	28(%rsp), %r10d
	imull	32(%rsp), %r9d
	imull	36(%rsp), %r8d
	imull	40(%rsp), %edi
	imull	44(%rsp), %esi
	imull	48(%rsp), %ecx
	imull	52(%rsp), %edx
	movl	72(%rsp), %eax
	imull	56(%rsp), %eax
	movl	%eax, 72(%rsp)
	movl	76(%rsp), %eax
	imull	60(%rsp), %eax
	movl	%eax, 76(%rsp)
	imull	4(%rsp), %r15d
	imull	8(%rsp), %r14d
	imull	12(%rsp), %r13d
	imull	16(%rsp), %r12d
	imull	20(%rsp), %ebp
	imull	(%rsp), %ebx
	imull	24(%rsp), %r11d
	imull	28(%rsp), %r10d
	imull	32(%rsp), %r9d
	imull	36(%rsp), %r8d
	imull	40(%rsp), %edi
	imull	44(%rsp), %esi
	imull	48(%rsp), %ecx
	imull	52(%rsp), %edx
	movl	72(%rsp), %eax
	imull	56(%rsp), %eax
	movl	%eax, 72(%rsp)
	movl	76(%rsp), %eax
	imull	60(%rsp), %eax
	movl	%eax, 76(%rsp)
	imull	4(%rsp), %r15d
	imull	8(%rsp), %r14d
	imull	12(%rsp), %r13d
	imull	16(%rsp), %r12d
	imull	20(%rsp), %ebp
	imull	(%rsp), %ebx
	imull	24(%rsp), %r11d
	imull	28(%rsp), %r10d
	imull	32(%rsp), %r9d
	imull	36(%rsp), %r8d
	imull	40(%rsp), %edi
	imull	44(%rsp), %esi
	imull	48(%rsp), %ecx
	imull	52(%rsp), %edx
	movl	72(%rsp), %eax
	imull	56(%rsp), %eax
	movl	%eax, 72(%rsp)
	movl	76(%rsp), %eax
	imull	60(%rsp), %eax
	movl	%eax, 76(%rsp)
	imull	4(%rsp), %r15d
	imull	8(%rsp), %r14d
	imull	12(%rsp), %r13d
	imull	16(%rsp), %r12d
	imull	20(%rsp), %ebp
	imull	(%rsp), %ebx
	imull	24(%rsp), %r11d
	imull	28(%rsp), %r10d
	imull	32(%rsp), %r9d
	imull	36(%rsp), %r8d
	imull	40(%rsp), %edi
	imull	44(%rsp), %esi
	imull	48(%rsp), %ecx
	imull	52(%rsp), %edx
	movl	72(%rsp), %eax
	imull	56(%rsp), %eax
	movl	%eax, 72(%rsp)
	movl	76(%rsp), %eax
	imull	60(%rsp), %eax
	movl	%eax, 76(%rsp)
	subq	$1, 64(%rsp)
	movq	64(%rsp), %rax
	cmpq	$-1, %rax
	jne	.L252
	movl	%r11d, 160(%rsp)
	movl	%r10d, 164(%rsp)
	movl	%r9d, 168(%rsp)
	movl	%r8d, 172(%rsp)
	movl	%edi, 80(%rsp)
	movl	%esi, 148(%rsp)
	movl	%ecx, 152(%rsp)
	movl	%edx, 156(%rsp)
.L251:
	movl	%r15d, %edi
	call	use_int@PLT
	movl	%r14d, %edi
	call	use_int@PLT
	movl	%r13d, %edi
	call	use_int@PLT
	movl	%r12d, %edi
	call	use_int@PLT
	movl	%ebp, %edi
	call	use_int@PLT
	movl	%ebx, %edi
	call	use_int@PLT
	movl	160(%rsp), %edi
	call	use_int@PLT
	movl	164(%rsp), %edi
	call	use_int@PLT
	movl	168(%rsp), %edi
	call	use_int@PLT
	movl	172(%rsp), %edi
	call	use_int@PLT
	movl	80(%rsp), %edi
	call	use_int@PLT
	movl	148(%rsp), %edi
	call	use_int@PLT
	movl	152(%rsp), %edi
	call	use_int@PLT
	movl	156(%rsp), %edi
	call	use_int@PLT
	movl	72(%rsp), %edi
	call	use_int@PLT
	movl	76(%rsp), %edi
	call	use_int@PLT
	addq	$184, %rsp
	.cfi_def_cfa_offset 56
	popq	%rbx
	.cfi_def_cfa_offset 48
	popq	%rbp
	.cfi_def_cfa_offset 40
	popq	%r12
	.cfi_def_cfa_offset 32
	popq	%r13
	.cfi_def_cfa_offset 24
	popq	%r14
	.cfi_def_cfa_offset 16
	popq	%r15
	.cfi_def_cfa_offset 8
	ret
	.cfi_endproc
.LFE120:
	.size	integer_mul_15, .-integer_mul_15
	.globl	integer_div_0
	.type	integer_div_0, @function
integer_div_0:
.LFB121:
	.cfi_startproc
	endbr64
	subq	$8, %rsp
	.cfi_def_cfa_offset 16
	movq	%rdi, %rax
	movl	12(%rsi), %ecx
	leal	37(%rcx), %edi
	addl	$38, %ecx
	sall	$20, %ecx
	leaq	-1(%rax), %rsi
	testq	%rax, %rax
	je	.L256
.L257:
	movl	%ecx, %eax
	cltd
	idivl	%edi
	movl	%eax, %edi
	movl	%ecx, %eax
	cltd
	idivl	%edi
	movl	%eax, %edi
	movl	%ecx, %eax
	cltd
	idivl	%edi
	movl	%eax, %edi
	movl	%ecx, %eax
	cltd
	idivl	%edi
	movl	%eax, %edi
	movl	%ecx, %eax
	cltd
	idivl	%edi
	movl	%eax, %edi
	movl	%ecx, %eax
	cltd
	idivl	%edi
	movl	%eax, %edi
	movl	%ecx, %eax
	cltd
	idivl	%edi
	movl	%eax, %edi
	movl	%ecx, %eax
	cltd
	idivl	%edi
	movl	%eax, %edi
	movl	%ecx, %eax
	cltd
	idivl	%edi
	movl	%eax, %edi
	movl	%ecx, %eax
	cltd
	idivl	%edi
	movl	%eax, %edi
	subq	$1, %rsi
	cmpq	$-1, %rsi
	jne	.L257
.L256:
	call	use_int@PLT
	addq	$8, %rsp
	.cfi_def_cfa_offset 8
	ret
	.cfi_endproc
.LFE121:
	.size	integer_div_0, .-integer_div_0
	.globl	integer_div_1
	.type	integer_div_1, @function
integer_div_1:
.LFB122:
	.cfi_startproc
	endbr64
	pushq	%rbx
	.cfi_def_cfa_offset 16
	.cfi_offset 3, -16
	movq	%rdi, %rax
	movl	12(%rsi), %r8d
	leal	37(%r8), %edi
	addl	$38, %r8d
	sall	$20, %r8d
	movl	16(%rsi), %ecx
	leal	36(%rcx), %ebx
	addl	$37, %ecx
	sall	$20, %ecx
	leaq	-1(%rax), %rsi
	testq	%rax, %rax
	je	.L261
.L262:
	movl	%r8d, %eax
	cltd
	idivl	%edi
	movl	%eax, %edi
	movl	%ecx, %eax
	cltd
	idivl	%ebx
	movl	%eax, %r9d
	movl	%r8d, %eax
	cltd
	idivl	%edi
	movl	%eax, %edi
	movl	%ecx, %eax
	cltd
	idivl	%r9d
	movl	%eax, %r9d
	movl	%r8d, %eax
	cltd
	idivl	%edi
	movl	%eax, %edi
	movl	%ecx, %eax
	cltd
	idivl	%r9d
	movl	%eax, %r9d
	movl	%r8d, %eax
	cltd
	idivl	%edi
	movl	%eax, %edi
	movl	%ecx, %eax
	cltd
	idivl	%r9d
	movl	%eax, %r9d
	movl	%r8d, %eax
	cltd
	idivl	%edi
	movl	%eax, %edi
	movl	%ecx, %eax
	cltd
	idivl	%r9d
	movl	%eax, %r9d
	movl	%r8d, %eax
	cltd
	idivl	%edi
	movl	%eax, %edi
	movl	%ecx, %eax
	cltd
	idivl	%r9d
	movl	%eax, %r9d
	movl	%r8d, %eax
	cltd
	idivl	%edi
	movl	%eax, %edi
	movl	%ecx, %eax
	cltd
	idivl	%r9d
	movl	%eax, %r9d
	movl	%r8d, %eax
	cltd
	idivl	%edi
	movl	%eax, %edi
	movl	%ecx, %eax
	cltd
	idivl	%r9d
	movl	%eax, %r9d
	movl	%r8d, %eax
	cltd
	idivl	%edi
	movl	%eax, %edi
	movl	%ecx, %eax
	cltd
	idivl	%r9d
	movl	%eax, %r9d
	movl	%r8d, %eax
	cltd
	idivl	%edi
	movl	%eax, %edi
	movl	%ecx, %eax
	cltd
	idivl	%r9d
	movl	%eax, %ebx
	subq	$1, %rsi
	cmpq	$-1, %rsi
	jne	.L262
.L261:
	call	use_int@PLT
	movl	%ebx, %edi
	call	use_int@PLT
	popq	%rbx
	.cfi_def_cfa_offset 8
	ret
	.cfi_endproc
.LFE122:
	.size	integer_div_1, .-integer_div_1
	.globl	integer_div_2
	.type	integer_div_2, @function
integer_div_2:
.LFB123:
	.cfi_startproc
	endbr64
	pushq	%rbp
	.cfi_def_cfa_offset 16
	.cfi_offset 6, -16
	pushq	%rbx
	.cfi_def_cfa_offset 24
	.cfi_offset 3, -24
	subq	$8, %rsp
	.cfi_def_cfa_offset 32
	movq	%rdi, %rax
	movl	12(%rsi), %r8d
	leal	37(%r8), %r9d
	addl	$38, %r8d
	sall	$20, %r8d
	movl	16(%rsi), %edi
	leal	36(%rdi), %ebp
	addl	$37, %edi
	sall	$20, %edi
	movl	20(%rsi), %ecx
	leal	35(%rcx), %ebx
	addl	$36, %ecx
	sall	$20, %ecx
	leaq	-1(%rax), %rsi
	testq	%rax, %rax
	je	.L266
.L267:
	movl	%r8d, %eax
	cltd
	idivl	%r9d
	movl	%eax, %r9d
	movl	%edi, %eax
	cltd
	idivl	%ebp
	movl	%eax, %r11d
	movl	%ecx, %eax
	cltd
	idivl	%ebx
	movl	%eax, %r10d
	movl	%r8d, %eax
	cltd
	idivl	%r9d
	movl	%eax, %r9d
	movl	%edi, %eax
	cltd
	idivl	%r11d
	movl	%eax, %r11d
	movl	%ecx, %eax
	cltd
	idivl	%r10d
	movl	%eax, %r10d
	movl	%r8d, %eax
	cltd
	idivl	%r9d
	movl	%eax, %r9d
	movl	%edi, %eax
	cltd
	idivl	%r11d
	movl	%eax, %r11d
	movl	%ecx, %eax
	cltd
	idivl	%r10d
	movl	%eax, %r10d
	movl	%r8d, %eax
	cltd
	idivl	%r9d
	movl	%eax, %r9d
	movl	%edi, %eax
	cltd
	idivl	%r11d
	movl	%eax, %r11d
	movl	%ecx, %eax
	cltd
	idivl	%r10d
	movl	%eax, %r10d
	movl	%r8d, %eax
	cltd
	idivl	%r9d
	movl	%eax, %r9d
	movl	%edi, %eax
	cltd
	idivl	%r11d
	movl	%eax, %r11d
	movl	%ecx, %eax
	cltd
	idivl	%r10d
	movl	%eax, %r10d
	movl	%r8d, %eax
	cltd
	idivl	%r9d
	movl	%eax, %r9d
	movl	%edi, %eax
	cltd
	idivl	%r11d
	movl	%eax, %r11d
	movl	%ecx, %eax
	cltd
	idivl	%r10d
	movl	%eax, %r10d
	movl	%r8d, %eax
	cltd
	idivl	%r9d
	movl	%eax, %r9d
	movl	%edi, %eax
	cltd
	idivl	%r11d
	movl	%eax, %r11d
	movl	%ecx, %eax
	cltd
	idivl	%r10d
	movl	%eax, %r10d
	movl	%r8d, %eax
	cltd
	idivl	%r9d
	movl	%eax, %r9d
	movl	%edi, %eax
	cltd
	idivl	%r11d
	movl	%eax, %r11d
	movl	%ecx, %eax
	cltd
	idivl	%r10d
	movl	%eax, %r10d
	movl	%r8d, %eax
	cltd
	idivl	%r9d
	movl	%eax, %r9d
	movl	%edi, %eax
	cltd
	idivl	%r11d
	movl	%eax, %r11d
	movl	%ecx, %eax
	cltd
	idivl	%r10d
	movl	%eax, %r10d
	movl	%r8d, %eax
	cltd
	idivl	%r9d
	movl	%eax, %r9d
	movl	%edi, %eax
	cltd
	idivl	%r11d
	movl	%eax, %ebp
	movl	%ecx, %eax
	cltd
	idivl	%r10d
	movl	%eax, %ebx
	subq	$1, %rsi
	cmpq	$-1, %rsi
	jne	.L267
.L266:
	movl	%r9d, %edi
	call	use_int@PLT
	movl	%ebp, %edi
	call	use_int@PLT
	movl	%ebx, %edi
	call	use_int@PLT
	addq	$8, %rsp
	.cfi_def_cfa_offset 24
	popq	%rbx
	.cfi_def_cfa_offset 16
	popq	%rbp
	.cfi_def_cfa_offset 8
	ret
	.cfi_endproc
.LFE123:
	.size	integer_div_2, .-integer_div_2
	.globl	integer_div_3
	.type	integer_div_3, @function
integer_div_3:
.LFB124:
	.cfi_startproc
	endbr64
	pushq	%r13
	.cfi_def_cfa_offset 16
	.cfi_offset 13, -16
	pushq	%r12
	.cfi_def_cfa_offset 24
	.cfi_offset 12, -24
	pushq	%rbp
	.cfi_def_cfa_offset 32
	.cfi_offset 6, -32
	pushq	%rbx
	.cfi_def_cfa_offset 40
	.cfi_offset 3, -40
	subq	$8, %rsp
	.cfi_def_cfa_offset 48
	movq	%rdi, %rax
	movl	12(%rsi), %r9d
	leal	37(%r9), %r10d
	addl	$38, %r9d
	sall	$20, %r9d
	movl	16(%rsi), %r8d
	leal	36(%r8), %r12d
	addl	$37, %r8d
	sall	$20, %r8d
	movl	20(%rsi), %edi
	leal	35(%rdi), %ebp
	addl	$36, %edi
	sall	$20, %edi
	movl	24(%rsi), %ecx
	leal	34(%rcx), %ebx
	addl	$35, %ecx
	sall	$20, %ecx
	leaq	-1(%rax), %rsi
	testq	%rax, %rax
	je	.L271
.L272:
	movl	%r9d, %eax
	cltd
	idivl	%r10d
	movl	%eax, %r10d
	movl	%r8d, %eax
	cltd
	idivl	%r12d
	movl	%eax, %r13d
	movl	%edi, %eax
	cltd
	idivl	%ebp
	movl	%eax, %r12d
	movl	%ecx, %eax
	cltd
	idivl	%ebx
	movl	%eax, %r11d
	movl	%r9d, %eax
	cltd
	idivl	%r10d
	movl	%eax, %r10d
	movl	%r8d, %eax
	cltd
	idivl	%r13d
	movl	%eax, %ebp
	movl	%edi, %eax
	cltd
	idivl	%r12d
	movl	%eax, %ebx
	movl	%ecx, %eax
	cltd
	idivl	%r11d
	movl	%eax, %r11d
	movl	%r9d, %eax
	cltd
	idivl	%r10d
	movl	%eax, %r10d
	movl	%r8d, %eax
	cltd
	idivl	%ebp
	movl	%eax, %ebp
	movl	%edi, %eax
	cltd
	idivl	%ebx
	movl	%eax, %ebx
	movl	%ecx, %eax
	cltd
	idivl	%r11d
	movl	%eax, %r11d
	movl	%r9d, %eax
	cltd
	idivl	%r10d
	movl	%eax, %r10d
	movl	%r8d, %eax
	cltd
	idivl	%ebp
	movl	%eax, %ebp
	movl	%edi, %eax
	cltd
	idivl	%ebx
	movl	%eax, %ebx
	movl	%ecx, %eax
	cltd
	idivl	%r11d
	movl	%eax, %r11d
	movl	%r9d, %eax
	cltd
	idivl	%r10d
	movl	%eax, %r10d
	movl	%r8d, %eax
	cltd
	idivl	%ebp
	movl	%eax, %ebp
	movl	%edi, %eax
	cltd
	idivl	%ebx
	movl	%eax, %ebx
	movl	%ecx, %eax
	cltd
	idivl	%r11d
	movl	%eax, %r11d
	movl	%r9d, %eax
	cltd
	idivl	%r10d
	movl	%eax, %r10d
	movl	%r8d, %eax
	cltd
	idivl	%ebp
	movl	%eax, %ebp
	movl	%edi, %eax
	cltd
	idivl	%ebx
	movl	%eax, %ebx
	movl	%ecx, %eax
	cltd
	idivl	%r11d
	movl	%eax, %r11d
	movl	%r9d, %eax
	cltd
	idivl	%r10d
	movl	%eax, %r10d
	movl	%r8d, %eax
	cltd
	idivl	%ebp
	movl	%eax, %ebp
	movl	%edi, %eax
	cltd
	idivl	%ebx
	movl	%eax, %ebx
	movl	%ecx, %eax
	cltd
	idivl	%r11d
	movl	%eax, %r11d
	movl	%r9d, %eax
	cltd
	idivl	%r10d
	movl	%eax, %r10d
	movl	%r8d, %eax
	cltd
	idivl	%ebp
	movl	%eax, %ebp
	movl	%edi, %eax
	cltd
	idivl	%ebx
	movl	%eax, %ebx
	movl	%ecx, %eax
	cltd
	idivl	%r11d
	movl	%eax, %r11d
	movl	%r9d, %eax
	cltd
	idivl	%r10d
	movl	%eax, %r10d
	movl	%r8d, %eax
	cltd
	idivl	%ebp
	movl	%eax, %ebp
	movl	%edi, %eax
	cltd
	idivl	%ebx
	movl	%eax, %ebx
	movl	%ecx, %eax
	cltd
	idivl	%r11d
	movl	%eax, %r11d
	movl	%r9d, %eax
	cltd
	idivl	%r10d
	movl	%eax, %r10d
	movl	%r8d, %eax
	cltd
	idivl	%ebp
	movl	%eax, %r12d
	movl	%edi, %eax
	cltd
	idivl	%ebx
	movl	%eax, %ebp
	movl	%ecx, %eax
	cltd
	idivl	%r11d
	movl	%eax, %ebx
	subq	$1, %rsi
	cmpq	$-1, %rsi
	jne	.L272
.L271:
	movl	%r10d, %edi
	call	use_int@PLT
	movl	%r12d, %edi
	call	use_int@PLT
	movl	%ebp, %edi
	call	use_int@PLT
	movl	%ebx, %edi
	call	use_int@PLT
	addq	$8, %rsp
	.cfi_def_cfa_offset 40
	popq	%rbx
	.cfi_def_cfa_offset 32
	popq	%rbp
	.cfi_def_cfa_offset 24
	popq	%r12
	.cfi_def_cfa_offset 16
	popq	%r13
	.cfi_def_cfa_offset 8
	ret
	.cfi_endproc
.LFE124:
	.size	integer_div_3, .-integer_div_3
	.globl	integer_div_4
	.type	integer_div_4, @function
integer_div_4:
.LFB125:
	.cfi_startproc
	endbr64
	pushq	%r13
	.cfi_def_cfa_offset 16
	.cfi_offset 13, -16
	pushq	%r12
	.cfi_def_cfa_offset 24
	.cfi_offset 12, -24
	pushq	%rbp
	.cfi_def_cfa_offset 32
	.cfi_offset 6, -32
	pushq	%rbx
	.cfi_def_cfa_offset 40
	.cfi_offset 3, -40
	subq	$8, %rsp
	.cfi_def_cfa_offset 48
	movq	%rdi, %rdx
	movq	%rsi, %rax
	movl	12(%rsi), %r9d
	leal	37(%r9), %r10d
	addl	$38, %r9d
	sall	$20, %r9d
	movl	16(%rsi), %r8d
	leal	36(%r8), %ebp
	addl	$37, %r8d
	sall	$20, %r8d
	movl	20(%rsi), %edi
	leal	35(%rdi), %ebx
	addl	$36, %edi
	sall	$20, %edi
	movl	24(%rsi), %esi
	leal	34(%rsi), %r13d
	addl	$35, %esi
	sall	$20, %esi
	movl	28(%rax), %ecx
	leal	33(%rcx), %r12d
	addl	$34, %ecx
	sall	$20, %ecx
	leaq	-1(%rdx), %r11
	testq	%rdx, %rdx
	je	.L276
.L277:
	movl	%r9d, %eax
	cltd
	idivl	%r10d
	movl	%eax, %r10d
	movl	%r8d, %eax
	cltd
	idivl	%ebp
	movl	%eax, %ebp
	movl	%edi, %eax
	cltd
	idivl	%ebx
	movl	%eax, %ebx
	movl	%esi, %eax
	cltd
	idivl	%r13d
	movl	%eax, %r13d
	movl	%ecx, %eax
	cltd
	idivl	%r12d
	movl	%eax, %r12d
	movl	%r9d, %eax
	cltd
	idivl	%r10d
	movl	%eax, %r10d
	movl	%r8d, %eax
	cltd
	idivl	%ebp
	movl	%eax, %ebp
	movl	%edi, %eax
	cltd
	idivl	%ebx
	movl	%eax, %ebx
	movl	%esi, %eax
	cltd
	idivl	%r13d
	movl	%eax, %r13d
	movl	%ecx, %eax
	cltd
	idivl	%r12d
	movl	%eax, %r12d
	movl	%r9d, %eax
	cltd
	idivl	%r10d
	movl	%eax, %r10d
	movl	%r8d, %eax
	cltd
	idivl	%ebp
	movl	%eax, %ebp
	movl	%edi, %eax
	cltd
	idivl	%ebx
	movl	%eax, %ebx
	movl	%esi, %eax
	cltd
	idivl	%r13d
	movl	%eax, %r13d
	movl	%ecx, %eax
	cltd
	idivl	%r12d
	movl	%eax, %r12d
	movl	%r9d, %eax
	cltd
	idivl	%r10d
	movl	%eax, %r10d
	movl	%r8d, %eax
	cltd
	idivl	%ebp
	movl	%eax, %ebp
	movl	%edi, %eax
	cltd
	idivl	%ebx
	movl	%eax, %ebx
	movl	%esi, %eax
	cltd
	idivl	%r13d
	movl	%eax, %r13d
	movl	%ecx, %eax
	cltd
	idivl	%r12d
	movl	%eax, %r12d
	movl	%r9d, %eax
	cltd
	idivl	%r10d
	movl	%eax, %r10d
	movl	%r8d, %eax
	cltd
	idivl	%ebp
	movl	%eax, %ebp
	movl	%edi, %eax
	cltd
	idivl	%ebx
	movl	%eax, %ebx
	movl	%esi, %eax
	cltd
	idivl	%r13d
	movl	%eax, %r13d
	movl	%ecx, %eax
	cltd
	idivl	%r12d
	movl	%eax, %r12d
	movl	%r9d, %eax
	cltd
	idivl	%r10d
	movl	%eax, %r10d
	movl	%r8d, %eax
	cltd
	idivl	%ebp
	movl	%eax, %ebp
	movl	%edi, %eax
	cltd
	idivl	%ebx
	movl	%eax, %ebx
	movl	%esi, %eax
	cltd
	idivl	%r13d
	movl	%eax, %r13d
	movl	%ecx, %eax
	cltd
	idivl	%r12d
	movl	%eax, %r12d
	movl	%r9d, %eax
	cltd
	idivl	%r10d
	movl	%eax, %r10d
	movl	%r8d, %eax
	cltd
	idivl	%ebp
	movl	%eax, %ebp
	movl	%edi, %eax
	cltd
	idivl	%ebx
	movl	%eax, %ebx
	movl	%esi, %eax
	cltd
	idivl	%r13d
	movl	%eax, %r13d
	movl	%ecx, %eax
	cltd
	idivl	%r12d
	movl	%eax, %r12d
	movl	%r9d, %eax
	cltd
	idivl	%r10d
	movl	%eax, %r10d
	movl	%r8d, %eax
	cltd
	idivl	%ebp
	movl	%eax, %ebp
	movl	%edi, %eax
	cltd
	idivl	%ebx
	movl	%eax, %ebx
	movl	%esi, %eax
	cltd
	idivl	%r13d
	movl	%eax, %r13d
	movl	%ecx, %eax
	cltd
	idivl	%r12d
	movl	%eax, %r12d
	movl	%r9d, %eax
	cltd
	idivl	%r10d
	movl	%eax, %r10d
	movl	%r8d, %eax
	cltd
	idivl	%ebp
	movl	%eax, %ebp
	movl	%edi, %eax
	cltd
	idivl	%ebx
	movl	%eax, %ebx
	movl	%esi, %eax
	cltd
	idivl	%r13d
	movl	%eax, %r13d
	movl	%ecx, %eax
	cltd
	idivl	%r12d
	movl	%eax, %r12d
	movl	%r9d, %eax
	cltd
	idivl	%r10d
	movl	%eax, %r10d
	movl	%r8d, %eax
	cltd
	idivl	%ebp
	movl	%eax, %ebp
	movl	%edi, %eax
	cltd
	idivl	%ebx
	movl	%eax, %ebx
	movl	%esi, %eax
	cltd
	idivl	%r13d
	movl	%eax, %r13d
	movl	%ecx, %eax
	cltd
	idivl	%r12d
	movl	%eax, %r12d
	subq	$1, %r11
	cmpq	$-1, %r11
	jne	.L277
.L276:
	movl	%r10d, %edi
	call	use_int@PLT
	movl	%ebp, %edi
	call	use_int@PLT
	movl	%ebx, %edi
	call	use_int@PLT
	movl	%r13d, %edi
	call	use_int@PLT
	movl	%r12d, %edi
	call	use_int@PLT
	addq	$8, %rsp
	.cfi_def_cfa_offset 40
	popq	%rbx
	.cfi_def_cfa_offset 32
	popq	%rbp
	.cfi_def_cfa_offset 24
	popq	%r12
	.cfi_def_cfa_offset 16
	popq	%r13
	.cfi_def_cfa_offset 8
	ret
	.cfi_endproc
.LFE125:
	.size	integer_div_4, .-integer_div_4
	.globl	integer_div_5
	.type	integer_div_5, @function
integer_div_5:
.LFB126:
	.cfi_startproc
	endbr64
	pushq	%r15
	.cfi_def_cfa_offset 16
	.cfi_offset 15, -16
	pushq	%r14
	.cfi_def_cfa_offset 24
	.cfi_offset 14, -24
	pushq	%r13
	.cfi_def_cfa_offset 32
	.cfi_offset 13, -32
	pushq	%r12
	.cfi_def_cfa_offset 40
	.cfi_offset 12, -40
	pushq	%rbp
	.cfi_def_cfa_offset 48
	.cfi_offset 6, -48
	pushq	%rbx
	.cfi_def_cfa_offset 56
	.cfi_offset 3, -56
	subq	$8, %rsp
	.cfi_def_cfa_offset 64
	movq	%rdi, %rdx
	movq	%rsi, %rax
	movl	12(%rsi), %r10d
	leal	37(%r10), %r11d
	addl	$38, %r10d
	sall	$20, %r10d
	movl	16(%rsi), %r9d
	leal	36(%r9), %r15d
	addl	$37, %r9d
	sall	$20, %r9d
	movl	20(%rsi), %r8d
	leal	35(%r8), %r14d
	addl	$36, %r8d
	sall	$20, %r8d
	movl	24(%rsi), %edi
	leal	34(%rdi), %r13d
	addl	$35, %edi
	sall	$20, %edi
	movl	28(%rsi), %esi
	leal	33(%rsi), %r12d
	addl	$34, %esi
	sall	$20, %esi
	movl	32(%rax), %ecx
	leal	32(%rcx), %ebp
	addl	$33, %ecx
	sall	$20, %ecx
	leaq	-1(%rdx), %rbx
	testq	%rdx, %rdx
	je	.L281
.L282:
	movl	%r10d, %eax
	cltd
	idivl	%r11d
	movl	%eax, %r11d
	movl	%r9d, %eax
	cltd
	idivl	%r15d
	movl	%eax, %r15d
	movl	%r8d, %eax
	cltd
	idivl	%r14d
	movl	%eax, %r14d
	movl	%edi, %eax
	cltd
	idivl	%r13d
	movl	%eax, %r13d
	movl	%esi, %eax
	cltd
	idivl	%r12d
	movl	%eax, %r12d
	movl	%ecx, %eax
	cltd
	idivl	%ebp
	movl	%eax, %ebp
	movl	%r10d, %eax
	cltd
	idivl	%r11d
	movl	%eax, %r11d
	movl	%r9d, %eax
	cltd
	idivl	%r15d
	movl	%eax, %r15d
	movl	%r8d, %eax
	cltd
	idivl	%r14d
	movl	%eax, %r14d
	movl	%edi, %eax
	cltd
	idivl	%r13d
	movl	%eax, %r13d
	movl	%esi, %eax
	cltd
	idivl	%r12d
	movl	%eax, %r12d
	movl	%ecx, %eax
	cltd
	idivl	%ebp
	movl	%eax, %ebp
	movl	%r10d, %eax
	cltd
	idivl	%r11d
	movl	%eax, %r11d
	movl	%r9d, %eax
	cltd
	idivl	%r15d
	movl	%eax, %r15d
	movl	%r8d, %eax
	cltd
	idivl	%r14d
	movl	%eax, %r14d
	movl	%edi, %eax
	cltd
	idivl	%r13d
	movl	%eax, %r13d
	movl	%esi, %eax
	cltd
	idivl	%r12d
	movl	%eax, %r12d
	movl	%ecx, %eax
	cltd
	idivl	%ebp
	movl	%eax, %ebp
	movl	%r10d, %eax
	cltd
	idivl	%r11d
	movl	%eax, %r11d
	movl	%r9d, %eax
	cltd
	idivl	%r15d
	movl	%eax, %r15d
	movl	%r8d, %eax
	cltd
	idivl	%r14d
	movl	%eax, %r14d
	movl	%edi, %eax
	cltd
	idivl	%r13d
	movl	%eax, %r13d
	movl	%esi, %eax
	cltd
	idivl	%r12d
	movl	%eax, %r12d
	movl	%ecx, %eax
	cltd
	idivl	%ebp
	movl	%eax, %ebp
	movl	%r10d, %eax
	cltd
	idivl	%r11d
	movl	%eax, %r11d
	movl	%r9d, %eax
	cltd
	idivl	%r15d
	movl	%eax, %r15d
	movl	%r8d, %eax
	cltd
	idivl	%r14d
	movl	%eax, %r14d
	movl	%edi, %eax
	cltd
	idivl	%r13d
	movl	%eax, %r13d
	movl	%esi, %eax
	cltd
	idivl	%r12d
	movl	%eax, %r12d
	movl	%ecx, %eax
	cltd
	idivl	%ebp
	movl	%eax, %ebp
	movl	%r10d, %eax
	cltd
	idivl	%r11d
	movl	%eax, %r11d
	movl	%r9d, %eax
	cltd
	idivl	%r15d
	movl	%eax, %r15d
	movl	%r8d, %eax
	cltd
	idivl	%r14d
	movl	%eax, %r14d
	movl	%edi, %eax
	cltd
	idivl	%r13d
	movl	%eax, %r13d
	movl	%esi, %eax
	cltd
	idivl	%r12d
	movl	%eax, %r12d
	movl	%ecx, %eax
	cltd
	idivl	%ebp
	movl	%eax, %ebp
	movl	%r10d, %eax
	cltd
	idivl	%r11d
	movl	%eax, %r11d
	movl	%r9d, %eax
	cltd
	idivl	%r15d
	movl	%eax, %r15d
	movl	%r8d, %eax
	cltd
	idivl	%r14d
	movl	%eax, %r14d
	movl	%edi, %eax
	cltd
	idivl	%r13d
	movl	%eax, %r13d
	movl	%esi, %eax
	cltd
	idivl	%r12d
	movl	%eax, %r12d
	movl	%ecx, %eax
	cltd
	idivl	%ebp
	movl	%eax, %ebp
	movl	%r10d, %eax
	cltd
	idivl	%r11d
	movl	%eax, %r11d
	movl	%r9d, %eax
	cltd
	idivl	%r15d
	movl	%eax, %r15d
	movl	%r8d, %eax
	cltd
	idivl	%r14d
	movl	%eax, %r14d
	movl	%edi, %eax
	cltd
	idivl	%r13d
	movl	%eax, %r13d
	movl	%esi, %eax
	cltd
	idivl	%r12d
	movl	%eax, %r12d
	movl	%ecx, %eax
	cltd
	idivl	%ebp
	movl	%eax, %ebp
	movl	%r10d, %eax
	cltd
	idivl	%r11d
	movl	%eax, %r11d
	movl	%r9d, %eax
	cltd
	idivl	%r15d
	movl	%eax, %r15d
	movl	%r8d, %eax
	cltd
	idivl	%r14d
	movl	%eax, %r14d
	movl	%edi, %eax
	cltd
	idivl	%r13d
	movl	%eax, %r13d
	movl	%esi, %eax
	cltd
	idivl	%r12d
	movl	%eax, %r12d
	movl	%ecx, %eax
	cltd
	idivl	%ebp
	movl	%eax, %ebp
	movl	%r10d, %eax
	cltd
	idivl	%r11d
	movl	%eax, %r11d
	movl	%r9d, %eax
	cltd
	idivl	%r15d
	movl	%eax, %r15d
	movl	%r8d, %eax
	cltd
	idivl	%r14d
	movl	%eax, %r14d
	movl	%edi, %eax
	cltd
	idivl	%r13d
	movl	%eax, %r13d
	movl	%esi, %eax
	cltd
	idivl	%r12d
	movl	%eax, %r12d
	movl	%ecx, %eax
	cltd
	idivl	%ebp
	movl	%eax, %ebp
	subq	$1, %rbx
	cmpq	$-1, %rbx
	jne	.L282
.L281:
	movl	%r11d, %edi
	call	use_int@PLT
	movl	%r15d, %edi
	call	use_int@PLT
	movl	%r14d, %edi
	call	use_int@PLT
	movl	%r13d, %edi
	call	use_int@PLT
	movl	%r12d, %edi
	call	use_int@PLT
	movl	%ebp, %edi
	call	use_int@PLT
	addq	$8, %rsp
	.cfi_def_cfa_offset 56
	popq	%rbx
	.cfi_def_cfa_offset 48
	popq	%rbp
	.cfi_def_cfa_offset 40
	popq	%r12
	.cfi_def_cfa_offset 32
	popq	%r13
	.cfi_def_cfa_offset 24
	popq	%r14
	.cfi_def_cfa_offset 16
	popq	%r15
	.cfi_def_cfa_offset 8
	ret
	.cfi_endproc
.LFE126:
	.size	integer_div_5, .-integer_div_5
	.globl	integer_div_6
	.type	integer_div_6, @function
integer_div_6:
.LFB127:
	.cfi_startproc
	endbr64
	pushq	%r15
	.cfi_def_cfa_offset 16
	.cfi_offset 15, -16
	pushq	%r14
	.cfi_def_cfa_offset 24
	.cfi_offset 14, -24
	pushq	%r13
	.cfi_def_cfa_offset 32
	.cfi_offset 13, -32
	pushq	%r12
	.cfi_def_cfa_offset 40
	.cfi_offset 12, -40
	pushq	%rbp
	.cfi_def_cfa_offset 48
	.cfi_offset 6, -48
	pushq	%rbx
	.cfi_def_cfa_offset 56
	.cfi_offset 3, -56
	subq	$56, %rsp
	.cfi_def_cfa_offset 112
	movq	%rdi, %rdx
	movq	%rsi, %rax
	movl	12(%rsi), %ecx
	leal	37(%rcx), %edi
	addl	$38, %ecx
	sall	$20, %ecx
	movl	%ecx, 12(%rsp)
	movl	16(%rsi), %ecx
	leal	36(%rcx), %esi
	movl	%esi, 28(%rsp)
	addl	$37, %ecx
	movl	%ecx, %ebx
	sall	$20, %ebx
	movl	20(%rax), %ecx
	leal	35(%rcx), %r8d
	movl	%r8d, 32(%rsp)
	addl	$36, %ecx
	movl	%ecx, %r15d
	sall	$20, %r15d
	movl	24(%rax), %ecx
	leal	34(%rcx), %r9d
	movl	%r9d, 36(%rsp)
	addl	$35, %ecx
	movl	%ecx, %r14d
	sall	$20, %r14d
	movl	28(%rax), %ecx
	leal	33(%rcx), %r10d
	movl	%r10d, 40(%rsp)
	addl	$34, %ecx
	movl	%ecx, %r13d
	sall	$20, %r13d
	movl	32(%rax), %ecx
	leal	32(%rcx), %r11d
	movl	%r11d, 44(%rsp)
	addl	$33, %ecx
	movl	%ecx, %r12d
	sall	$20, %r12d
	movl	36(%rax), %eax
	leal	31(%rax), %ecx
	movl	%ecx, 24(%rsp)
	addl	$32, %eax
	sall	$20, %eax
	movl	%eax, %ebp
	leaq	-1(%rdx), %rax
	movq	%rax, 16(%rsp)
	testq	%rdx, %rdx
	je	.L286
	movl	%esi, %ecx
	movl	%r8d, %esi
	movl	%r9d, %r8d
	movl	%r10d, %r9d
	movl	%r11d, %r10d
	movl	24(%rsp), %r11d
.L287:
	movl	12(%rsp), %eax
	cltd
	idivl	%edi
	movl	%eax, %edi
	movl	%ebx, %eax
	cltd
	idivl	%ecx
	movl	%eax, %ecx
	movl	%r15d, %eax
	cltd
	idivl	%esi
	movl	%eax, %esi
	movl	%r14d, %eax
	cltd
	idivl	%r8d
	movl	%eax, %r8d
	movl	%r13d, %eax
	cltd
	idivl	%r9d
	movl	%eax, %r9d
	movl	%r12d, %eax
	cltd
	idivl	%r10d
	movl	%eax, %r10d
	movl	%ebp, %eax
	cltd
	idivl	%r11d
	movl	%eax, %r11d
	movl	12(%rsp), %eax
	cltd
	idivl	%edi
	movl	%eax, %edi
	movl	%ebx, %eax
	cltd
	idivl	%ecx
	movl	%eax, %ecx
	movl	%r15d, %eax
	cltd
	idivl	%esi
	movl	%eax, %esi
	movl	%r14d, %eax
	cltd
	idivl	%r8d
	movl	%eax, %r8d
	movl	%r13d, %eax
	cltd
	idivl	%r9d
	movl	%eax, %r9d
	movl	%r12d, %eax
	cltd
	idivl	%r10d
	movl	%eax, %r10d
	movl	%ebp, %eax
	cltd
	idivl	%r11d
	movl	%eax, %r11d
	movl	12(%rsp), %eax
	cltd
	idivl	%edi
	movl	%eax, %edi
	movl	%ebx, %eax
	cltd
	idivl	%ecx
	movl	%eax, %ecx
	movl	%r15d, %eax
	cltd
	idivl	%esi
	movl	%eax, %esi
	movl	%r14d, %eax
	cltd
	idivl	%r8d
	movl	%eax, %r8d
	movl	%r13d, %eax
	cltd
	idivl	%r9d
	movl	%eax, %r9d
	movl	%r12d, %eax
	cltd
	idivl	%r10d
	movl	%eax, %r10d
	movl	%ebp, %eax
	cltd
	idivl	%r11d
	movl	%eax, %r11d
	movl	12(%rsp), %eax
	cltd
	idivl	%edi
	movl	%eax, %edi
	movl	%ebx, %eax
	cltd
	idivl	%ecx
	movl	%eax, %ecx
	movl	%r15d, %eax
	cltd
	idivl	%esi
	movl	%eax, %esi
	movl	%r14d, %eax
	cltd
	idivl	%r8d
	movl	%eax, %r8d
	movl	%r13d, %eax
	cltd
	idivl	%r9d
	movl	%eax, %r9d
	movl	%r12d, %eax
	cltd
	idivl	%r10d
	movl	%eax, %r10d
	movl	%ebp, %eax
	cltd
	idivl	%r11d
	movl	%eax, %r11d
	movl	12(%rsp), %eax
	cltd
	idivl	%edi
	movl	%eax, %edi
	movl	%ebx, %eax
	cltd
	idivl	%ecx
	movl	%eax, %ecx
	movl	%r15d, %eax
	cltd
	idivl	%esi
	movl	%eax, %esi
	movl	%r14d, %eax
	cltd
	idivl	%r8d
	movl	%eax, %r8d
	movl	%r13d, %eax
	cltd
	idivl	%r9d
	movl	%eax, %r9d
	movl	%r12d, %eax
	cltd
	idivl	%r10d
	movl	%eax, %r10d
	movl	%ebp, %eax
	cltd
	idivl	%r11d
	movl	%eax, %r11d
	movl	12(%rsp), %eax
	cltd
	idivl	%edi
	movl	%eax, %edi
	movl	%ebx, %eax
	cltd
	idivl	%ecx
	movl	%eax, %ecx
	movl	%r15d, %eax
	cltd
	idivl	%esi
	movl	%eax, %esi
	movl	%r14d, %eax
	cltd
	idivl	%r8d
	movl	%eax, %r8d
	movl	%r13d, %eax
	cltd
	idivl	%r9d
	movl	%eax, %r9d
	movl	%r12d, %eax
	cltd
	idivl	%r10d
	movl	%eax, %r10d
	movl	%ebp, %eax
	cltd
	idivl	%r11d
	movl	%eax, %r11d
	movl	12(%rsp), %eax
	cltd
	idivl	%edi
	movl	%eax, %edi
	movl	%ebx, %eax
	cltd
	idivl	%ecx
	movl	%eax, %ecx
	movl	%r15d, %eax
	cltd
	idivl	%esi
	movl	%eax, %esi
	movl	%r14d, %eax
	cltd
	idivl	%r8d
	movl	%eax, %r8d
	movl	%r13d, %eax
	cltd
	idivl	%r9d
	movl	%eax, %r9d
	movl	%r12d, %eax
	cltd
	idivl	%r10d
	movl	%eax, %r10d
	movl	%ebp, %eax
	cltd
	idivl	%r11d
	movl	%eax, %r11d
	movl	12(%rsp), %eax
	cltd
	idivl	%edi
	movl	%eax, %edi
	movl	%ebx, %eax
	cltd
	idivl	%ecx
	movl	%eax, %ecx
	movl	%r15d, %eax
	cltd
	idivl	%esi
	movl	%eax, %esi
	movl	%r14d, %eax
	cltd
	idivl	%r8d
	movl	%eax, %r8d
	movl	%r13d, %eax
	cltd
	idivl	%r9d
	movl	%eax, %r9d
	movl	%r12d, %eax
	cltd
	idivl	%r10d
	movl	%eax, %r10d
	movl	%ebp, %eax
	cltd
	idivl	%r11d
	movl	%eax, %r11d
	movl	12(%rsp), %eax
	cltd
	idivl	%edi
	movl	%eax, %edi
	movl	%ebx, %eax
	cltd
	idivl	%ecx
	movl	%eax, %ecx
	movl	%r15d, %eax
	cltd
	idivl	%esi
	movl	%eax, %esi
	movl	%r14d, %eax
	cltd
	idivl	%r8d
	movl	%eax, %r8d
	movl	%r13d, %eax
	cltd
	idivl	%r9d
	movl	%eax, %r9d
	movl	%r12d, %eax
	cltd
	idivl	%r10d
	movl	%eax, %r10d
	movl	%ebp, %eax
	cltd
	idivl	%r11d
	movl	%eax, %r11d
	movl	12(%rsp), %eax
	cltd
	idivl	%edi
	movl	%eax, %edi
	movl	%ebx, %eax
	cltd
	idivl	%ecx
	movl	%eax, %ecx
	movl	%r15d, %eax
	cltd
	idivl	%esi
	movl	%eax, %esi
	movl	%r14d, %eax
	cltd
	idivl	%r8d
	movl	%eax, %r8d
	movl	%r13d, %eax
	cltd
	idivl	%r9d
	movl	%eax, %r9d
	movl	%r12d, %eax
	cltd
	idivl	%r10d
	movl	%eax, %r10d
	movl	%ebp, %eax
	cltd
	idivl	%r11d
	movl	%eax, %r11d
	subq	$1, 16(%rsp)
	movq	16(%rsp), %rax
	cmpq	$-1, %rax
	jne	.L287
	movl	%ecx, 28(%rsp)
	movl	%esi, 32(%rsp)
	movl	%r8d, 36(%rsp)
	movl	%r9d, 40(%rsp)
	movl	%r10d, 44(%rsp)
	movl	%r11d, 24(%rsp)
.L286:
	call	use_int@PLT
	movl	28(%rsp), %edi
	call	use_int@PLT
	movl	32(%rsp), %edi
	call	use_int@PLT
	movl	36(%rsp), %edi
	call	use_int@PLT
	movl	40(%rsp), %edi
	call	use_int@PLT
	movl	44(%rsp), %edi
	call	use_int@PLT
	movl	24(%rsp), %edi
	call	use_int@PLT
	addq	$56, %rsp
	.cfi_def_cfa_offset 56
	popq	%rbx
	.cfi_def_cfa_offset 48
	popq	%rbp
	.cfi_def_cfa_offset 40
	popq	%r12
	.cfi_def_cfa_offset 32
	popq	%r13
	.cfi_def_cfa_offset 24
	popq	%r14
	.cfi_def_cfa_offset 16
	popq	%r15
	.cfi_def_cfa_offset 8
	ret
	.cfi_endproc
.LFE127:
	.size	integer_div_6, .-integer_div_6
	.globl	integer_div_7
	.type	integer_div_7, @function
integer_div_7:
.LFB128:
	.cfi_startproc
	endbr64
	pushq	%r15
	.cfi_def_cfa_offset 16
	.cfi_offset 15, -16
	pushq	%r14
	.cfi_def_cfa_offset 24
	.cfi_offset 14, -24
	pushq	%r13
	.cfi_def_cfa_offset 32
	.cfi_offset 13, -32
	pushq	%r12
	.cfi_def_cfa_offset 40
	.cfi_offset 12, -40
	pushq	%rbp
	.cfi_def_cfa_offset 48
	.cfi_offset 6, -48
	pushq	%rbx
	.cfi_def_cfa_offset 56
	.cfi_offset 3, -56
	subq	$40, %rsp
	.cfi_def_cfa_offset 96
	movq	%rdi, %rdx
	movq	%rsi, %rax
	movl	12(%rsi), %r8d
	leal	37(%r8), %r9d
	addl	$38, %r8d
	sall	$20, %r8d
	movl	16(%rsi), %edi
	leal	36(%rdi), %r14d
	addl	$37, %edi
	sall	$20, %edi
	movl	20(%rsi), %ecx
	leal	35(%rcx), %r13d
	addl	$36, %ecx
	sall	$20, %ecx
	movl	%ecx, 4(%rsp)
	movl	24(%rsi), %ecx
	leal	34(%rcx), %r12d
	addl	$35, %ecx
	sall	$20, %ecx
	movl	%ecx, 8(%rsp)
	movl	28(%rsi), %ecx
	leal	33(%rcx), %ebp
	addl	$34, %ecx
	sall	$20, %ecx
	movl	%ecx, 12(%rsp)
	movl	32(%rsi), %ecx
	leal	32(%rcx), %esi
	movl	%esi, 24(%rsp)
	addl	$33, %ecx
	sall	$20, %ecx
	movl	%ecx, %r15d
	movl	36(%rax), %esi
	leal	31(%rsi), %ebx
	movl	%ebx, 28(%rsp)
	addl	$32, %esi
	sall	$20, %esi
	movl	40(%rax), %ecx
	leal	30(%rcx), %ebx
	addl	$31, %ecx
	sall	$20, %ecx
	leaq	-1(%rdx), %rax
	movq	%rax, 16(%rsp)
	testq	%rdx, %rdx
	je	.L291
	movl	%r13d, %r11d
	movl	%r15d, %r13d
	movl	%ecx, %r15d
	movl	%r14d, %ecx
	movl	%esi, %r14d
	movl	%r12d, %r10d
	movl	%edi, %r12d
	movl	%ebp, %eax
	movl	%r8d, %ebp
	movl	24(%rsp), %edi
	movl	28(%rsp), %esi
	movl	%eax, %r8d
.L292:
	movl	%ebp, %eax
	cltd
	idivl	%r9d
	movl	%eax, %r9d
	movl	%r12d, %eax
	cltd
	idivl	%ecx
	movl	%eax, 24(%rsp)
	movl	4(%rsp), %eax
	cltd
	idivl	%r11d
	movl	%eax, %r11d
	movl	8(%rsp), %eax
	cltd
	idivl	%r10d
	movl	%eax, %r10d
	movl	12(%rsp), %eax
	cltd
	idivl	%r8d
	movl	%eax, %r8d
	movl	%r13d, %eax
	cltd
	idivl	%edi
	movl	%eax, %edi
	movl	%r14d, %eax
	cltd
	idivl	%esi
	movl	%eax, %esi
	movl	%r15d, %eax
	cltd
	idivl	%ebx
	movl	%eax, %ecx
	movl	%ebp, %eax
	cltd
	idivl	%r9d
	movl	%eax, %r9d
	movl	%r12d, %eax
	cltd
	idivl	24(%rsp)
	movl	%eax, %ebx
	movl	4(%rsp), %eax
	cltd
	idivl	%r11d
	movl	%eax, %r11d
	movl	8(%rsp), %eax
	cltd
	idivl	%r10d
	movl	%eax, %r10d
	movl	12(%rsp), %eax
	cltd
	idivl	%r8d
	movl	%eax, %r8d
	movl	%r13d, %eax
	cltd
	idivl	%edi
	movl	%eax, %edi
	movl	%r14d, %eax
	cltd
	idivl	%esi
	movl	%eax, %esi
	movl	%r15d, %eax
	cltd
	idivl	%ecx
	movl	%eax, %ecx
	movl	%ebp, %eax
	cltd
	idivl	%r9d
	movl	%eax, %r9d
	movl	%r12d, %eax
	cltd
	idivl	%ebx
	movl	%eax, %ebx
	movl	4(%rsp), %eax
	cltd
	idivl	%r11d
	movl	%eax, %r11d
	movl	8(%rsp), %eax
	cltd
	idivl	%r10d
	movl	%eax, %r10d
	movl	12(%rsp), %eax
	cltd
	idivl	%r8d
	movl	%eax, %r8d
	movl	%r13d, %eax
	cltd
	idivl	%edi
	movl	%eax, %edi
	movl	%r14d, %eax
	cltd
	idivl	%esi
	movl	%eax, %esi
	movl	%r15d, %eax
	cltd
	idivl	%ecx
	movl	%eax, %ecx
	movl	%ebp, %eax
	cltd
	idivl	%r9d
	movl	%eax, %r9d
	movl	%r12d, %eax
	cltd
	idivl	%ebx
	movl	%eax, %ebx
	movl	4(%rsp), %eax
	cltd
	idivl	%r11d
	movl	%eax, %r11d
	movl	8(%rsp), %eax
	cltd
	idivl	%r10d
	movl	%eax, %r10d
	movl	12(%rsp), %eax
	cltd
	idivl	%r8d
	movl	%eax, %r8d
	movl	%r13d, %eax
	cltd
	idivl	%edi
	movl	%eax, %edi
	movl	%r14d, %eax
	cltd
	idivl	%esi
	movl	%eax, %esi
	movl	%r15d, %eax
	cltd
	idivl	%ecx
	movl	%eax, %ecx
	movl	%ebp, %eax
	cltd
	idivl	%r9d
	movl	%eax, %r9d
	movl	%r12d, %eax
	cltd
	idivl	%ebx
	movl	%eax, %ebx
	movl	4(%rsp), %eax
	cltd
	idivl	%r11d
	movl	%eax, %r11d
	movl	8(%rsp), %eax
	cltd
	idivl	%r10d
	movl	%eax, %r10d
	movl	12(%rsp), %eax
	cltd
	idivl	%r8d
	movl	%eax, %r8d
	movl	%r13d, %eax
	cltd
	idivl	%edi
	movl	%eax, %edi
	movl	%r14d, %eax
	cltd
	idivl	%esi
	movl	%eax, %esi
	movl	%r15d, %eax
	cltd
	idivl	%ecx
	movl	%eax, %ecx
	movl	%ebp, %eax
	cltd
	idivl	%r9d
	movl	%eax, %r9d
	movl	%r12d, %eax
	cltd
	idivl	%ebx
	movl	%eax, %ebx
	movl	4(%rsp), %eax
	cltd
	idivl	%r11d
	movl	%eax, %r11d
	movl	8(%rsp), %eax
	cltd
	idivl	%r10d
	movl	%eax, %r10d
	movl	12(%rsp), %eax
	cltd
	idivl	%r8d
	movl	%eax, %r8d
	movl	%r13d, %eax
	cltd
	idivl	%edi
	movl	%eax, %edi
	movl	%r14d, %eax
	cltd
	idivl	%esi
	movl	%eax, %esi
	movl	%r15d, %eax
	cltd
	idivl	%ecx
	movl	%eax, %ecx
	movl	%ebp, %eax
	cltd
	idivl	%r9d
	movl	%eax, %r9d
	movl	%r12d, %eax
	cltd
	idivl	%ebx
	movl	%eax, %ebx
	movl	4(%rsp), %eax
	cltd
	idivl	%r11d
	movl	%eax, %r11d
	movl	8(%rsp), %eax
	cltd
	idivl	%r10d
	movl	%eax, %r10d
	movl	12(%rsp), %eax
	cltd
	idivl	%r8d
	movl	%eax, %r8d
	movl	%r13d, %eax
	cltd
	idivl	%edi
	movl	%eax, %edi
	movl	%r14d, %eax
	cltd
	idivl	%esi
	movl	%eax, %esi
	movl	%r15d, %eax
	cltd
	idivl	%ecx
	movl	%eax, %ecx
	movl	%ebp, %eax
	cltd
	idivl	%r9d
	movl	%eax, %r9d
	movl	%r12d, %eax
	cltd
	idivl	%ebx
	movl	%eax, %ebx
	movl	4(%rsp), %eax
	cltd
	idivl	%r11d
	movl	%eax, %r11d
	movl	8(%rsp), %eax
	cltd
	idivl	%r10d
	movl	%eax, %r10d
	movl	12(%rsp), %eax
	cltd
	idivl	%r8d
	movl	%eax, %r8d
	movl	%r13d, %eax
	cltd
	idivl	%edi
	movl	%eax, %edi
	movl	%r14d, %eax
	cltd
	idivl	%esi
	movl	%eax, %esi
	movl	%r15d, %eax
	cltd
	idivl	%ecx
	movl	%eax, %ecx
	movl	%ebp, %eax
	cltd
	idivl	%r9d
	movl	%eax, %r9d
	movl	%r12d, %eax
	cltd
	idivl	%ebx
	movl	%eax, %ebx
	movl	4(%rsp), %eax
	cltd
	idivl	%r11d
	movl	%eax, %r11d
	movl	8(%rsp), %eax
	cltd
	idivl	%r10d
	movl	%eax, %r10d
	movl	12(%rsp), %eax
	cltd
	idivl	%r8d
	movl	%eax, %r8d
	movl	%r13d, %eax
	cltd
	idivl	%edi
	movl	%eax, %edi
	movl	%r14d, %eax
	cltd
	idivl	%esi
	movl	%eax, %esi
	movl	%r15d, %eax
	cltd
	idivl	%ecx
	movl	%eax, 24(%rsp)
	movl	%ebp, %eax
	cltd
	idivl	%r9d
	movl	%eax, %r9d
	movl	%r12d, %eax
	cltd
	idivl	%ebx
	movl	%eax, %ecx
	movl	4(%rsp), %eax
	cltd
	idivl	%r11d
	movl	%eax, %r11d
	movl	8(%rsp), %eax
	cltd
	idivl	%r10d
	movl	%eax, %r10d
	movl	12(%rsp), %eax
	cltd
	idivl	%r8d
	movl	%eax, %r8d
	movl	%r13d, %eax
	cltd
	idivl	%edi
	movl	%eax, %edi
	movl	%r14d, %eax
	cltd
	idivl	%esi
	movl	%eax, %esi
	movl	%r15d, %eax
	cltd
	idivl	24(%rsp)
	movl	%eax, %ebx
	subq	$1, 16(%rsp)
	movq	16(%rsp), %rax
	cmpq	$-1, %rax
	jne	.L292
	movl	%ecx, %r14d
	movl	%r11d, %r13d
	movl	%r10d, %r12d
	movl	%r8d, %ebp
	movl	%edi, 24(%rsp)
	movl	%esi, 28(%rsp)
.L291:
	movl	%r9d, %edi
	call	use_int@PLT
	movl	%r14d, %edi
	call	use_int@PLT
	movl	%r13d, %edi
	call	use_int@PLT
	movl	%r12d, %edi
	call	use_int@PLT
	movl	%ebp, %edi
	call	use_int@PLT
	movl	24(%rsp), %edi
	call	use_int@PLT
	movl	28(%rsp), %edi
	call	use_int@PLT
	movl	%ebx, %edi
	call	use_int@PLT
	addq	$40, %rsp
	.cfi_def_cfa_offset 56
	popq	%rbx
	.cfi_def_cfa_offset 48
	popq	%rbp
	.cfi_def_cfa_offset 40
	popq	%r12
	.cfi_def_cfa_offset 32
	popq	%r13
	.cfi_def_cfa_offset 24
	popq	%r14
	.cfi_def_cfa_offset 16
	popq	%r15
	.cfi_def_cfa_offset 8
	ret
	.cfi_endproc
.LFE128:
	.size	integer_div_7, .-integer_div_7
	.globl	integer_div_8
	.type	integer_div_8, @function
integer_div_8:
.LFB129:
	.cfi_startproc
	endbr64
	pushq	%r15
	.cfi_def_cfa_offset 16
	.cfi_offset 15, -16
	pushq	%r14
	.cfi_def_cfa_offset 24
	.cfi_offset 14, -24
	pushq	%r13
	.cfi_def_cfa_offset 32
	.cfi_offset 13, -32
	pushq	%r12
	.cfi_def_cfa_offset 40
	.cfi_offset 12, -40
	pushq	%rbp
	.cfi_def_cfa_offset 48
	.cfi_offset 6, -48
	pushq	%rbx
	.cfi_def_cfa_offset 56
	.cfi_offset 3, -56
	subq	$56, %rsp
	.cfi_def_cfa_offset 112
	movq	%rdi, %rdx
	movq	%rsi, %rax
	movl	12(%rsi), %r8d
	leal	37(%r8), %r15d
	addl	$38, %r8d
	sall	$20, %r8d
	movl	16(%rsi), %ecx
	leal	36(%rcx), %r14d
	addl	$37, %ecx
	sall	$20, %ecx
	movl	%ecx, 4(%rsp)
	movl	20(%rsi), %ecx
	leal	35(%rcx), %r13d
	addl	$36, %ecx
	sall	$20, %ecx
	movl	%ecx, 8(%rsp)
	movl	24(%rsi), %ecx
	leal	34(%rcx), %r12d
	addl	$35, %ecx
	sall	$20, %ecx
	movl	%ecx, 12(%rsp)
	movl	28(%rsi), %ecx
	leal	33(%rcx), %ebp
	addl	$34, %ecx
	sall	$20, %ecx
	movl	%ecx, 16(%rsp)
	movl	32(%rsi), %ecx
	leal	32(%rcx), %ebx
	movl	%ebx, 36(%rsp)
	addl	$33, %ecx
	sall	$20, %ecx
	movl	%ecx, 20(%rsp)
	movl	36(%rsi), %edi
	leal	31(%rdi), %ebx
	movl	%ebx, 40(%rsp)
	addl	$32, %edi
	sall	$20, %edi
	movl	40(%rsi), %esi
	leal	30(%rsi), %r9d
	movl	%r9d, 32(%rsp)
	addl	$31, %esi
	sall	$20, %esi
	movl	44(%rax), %ecx
	leal	29(%rcx), %ebx
	addl	$30, %ecx
	sall	$20, %ecx
	leaq	-1(%rdx), %rax
	movq	%rax, 24(%rsp)
	testq	%rdx, %rdx
	je	.L296
	movl	%ecx, 32(%rsp)
	movl	%r15d, %ecx
	movl	%esi, %r15d
	movl	%r14d, %r11d
	movl	%edi, %r14d
	movl	%r13d, %eax
	movl	%r8d, %r13d
	movl	%r9d, %esi
	movl	%eax, %r8d
.L297:
	movl	%r13d, %eax
	cltd
	idivl	%ecx
	movl	%eax, %ecx
	movl	4(%rsp), %eax
	cltd
	idivl	%r11d
	movl	%eax, 44(%rsp)
	movl	8(%rsp), %eax
	cltd
	idivl	%r8d
	movl	%eax, %r9d
	movl	12(%rsp), %eax
	cltd
	idivl	%r12d
	movl	%eax, %r8d
	movl	16(%rsp), %eax
	cltd
	idivl	%ebp
	movl	%eax, %edi
	movl	20(%rsp), %eax
	cltd
	idivl	36(%rsp)
	movl	%eax, %ebp
	movl	%r14d, %eax
	cltd
	idivl	40(%rsp)
	movl	%eax, %r11d
	movl	%r15d, %eax
	cltd
	idivl	%esi
	movl	%eax, %r10d
	movl	32(%rsp), %eax
	cltd
	idivl	%ebx
	movl	%eax, %esi
	movl	%r13d, %eax
	cltd
	idivl	%ecx
	movl	%eax, %ebx
	movl	4(%rsp), %eax
	cltd
	idivl	44(%rsp)
	movl	%eax, %ecx
	movl	8(%rsp), %eax
	cltd
	idivl	%r9d
	movl	%eax, %r9d
	movl	12(%rsp), %eax
	cltd
	idivl	%r8d
	movl	%eax, %r8d
	movl	16(%rsp), %eax
	cltd
	idivl	%edi
	movl	%eax, %edi
	movl	20(%rsp), %eax
	cltd
	idivl	%ebp
	movl	%eax, %ebp
	movl	%r14d, %eax
	cltd
	idivl	%r11d
	movl	%eax, %r11d
	movl	%r15d, %eax
	cltd
	idivl	%r10d
	movl	%eax, %r10d
	movl	32(%rsp), %eax
	cltd
	idivl	%esi
	movl	%eax, %r12d
	movl	%r13d, %eax
	cltd
	idivl	%ebx
	movl	%eax, %esi
	movl	4(%rsp), %eax
	cltd
	idivl	%ecx
	movl	%eax, %ecx
	movl	8(%rsp), %eax
	cltd
	idivl	%r9d
	movl	%eax, %r9d
	movl	12(%rsp), %eax
	cltd
	idivl	%r8d
	movl	%eax, %r8d
	movl	16(%rsp), %eax
	cltd
	idivl	%edi
	movl	%eax, %ebx
	movl	20(%rsp), %eax
	cltd
	idivl	%ebp
	movl	%eax, %ebp
	movl	%r14d, %eax
	cltd
	idivl	%r11d
	movl	%eax, %r11d
	movl	%r15d, %eax
	cltd
	idivl	%r10d
	movl	%eax, %r10d
	movl	32(%rsp), %eax
	cltd
	idivl	%r12d
	movl	%eax, %edi
	movl	%r13d, %eax
	cltd
	idivl	%esi
	movl	%eax, %esi
	movl	4(%rsp), %eax
	cltd
	idivl	%ecx
	movl	%eax, %ecx
	movl	8(%rsp), %eax
	cltd
	idivl	%r9d
	movl	%eax, %r9d
	movl	12(%rsp), %eax
	cltd
	idivl	%r8d
	movl	%eax, %r12d
	movl	16(%rsp), %eax
	cltd
	idivl	%ebx
	movl	%eax, %ebx
	movl	20(%rsp), %eax
	cltd
	idivl	%ebp
	movl	%eax, %ebp
	movl	%r14d, %eax
	cltd
	idivl	%r11d
	movl	%eax, %r11d
	movl	%r15d, %eax
	cltd
	idivl	%r10d
	movl	%eax, %r8d
	movl	32(%rsp), %eax
	cltd
	idivl	%edi
	movl	%eax, %edi
	movl	%r13d, %eax
	cltd
	idivl	%esi
	movl	%eax, %esi
	movl	4(%rsp), %eax
	cltd
	idivl	%ecx
	movl	%eax, %ecx
	movl	8(%rsp), %eax
	cltd
	idivl	%r9d
	movl	%eax, %r10d
	movl	12(%rsp), %eax
	cltd
	idivl	%r12d
	movl	%eax, %r12d
	movl	16(%rsp), %eax
	cltd
	idivl	%ebx
	movl	%eax, %ebx
	movl	20(%rsp), %eax
	cltd
	idivl	%ebp
	movl	%eax, %ebp
	movl	%r14d, %eax
	cltd
	idivl	%r11d
	movl	%eax, %r9d
	movl	%r15d, %eax
	cltd
	idivl	%r8d
	movl	%eax, %r8d
	movl	32(%rsp), %eax
	cltd
	idivl	%edi
	movl	%eax, %edi
	movl	%r13d, %eax
	cltd
	idivl	%esi
	movl	%eax, %esi
	movl	4(%rsp), %eax
	cltd
	idivl	%ecx
	movl	%eax, %r11d
	movl	8(%rsp), %eax
	cltd
	idivl	%r10d
	movl	%eax, %r10d
	movl	12(%rsp), %eax
	cltd
	idivl	%r12d
	movl	%eax, %r12d
	movl	16(%rsp), %eax
	cltd
	idivl	%ebx
	movl	%eax, %ebx
	movl	20(%rsp), %eax
	cltd
	idivl	%ebp
	movl	%eax, %ecx
	movl	%r14d, %eax
	cltd
	idivl	%r9d
	movl	%eax, %r9d
	movl	%r15d, %eax
	cltd
	idivl	%r8d
	movl	%eax, %r8d
	movl	32(%rsp), %eax
	cltd
	idivl	%edi
	movl	%eax, %edi
	movl	%r13d, %eax
	cltd
	idivl	%esi
	movl	%eax, %ebp
	movl	4(%rsp), %eax
	cltd
	idivl	%r11d
	movl	%eax, %r11d
	movl	8(%rsp), %eax
	cltd
	idivl	%r10d
	movl	%eax, %r10d
	movl	12(%rsp), %eax
	cltd
	idivl	%r12d
	movl	%eax, %r12d
	movl	16(%rsp), %eax
	cltd
	idivl	%ebx
	movl	%eax, %esi
	movl	20(%rsp), %eax
	cltd
	idivl	%ecx
	movl	%eax, %ecx
	movl	%r14d, %eax
	cltd
	idivl	%r9d
	movl	%eax, %r9d
	movl	%r15d, %eax
	cltd
	idivl	%r8d
	movl	%eax, %r8d
	movl	32(%rsp), %eax
	cltd
	idivl	%edi
	movl	%eax, %ebx
	movl	%r13d, %eax
	cltd
	idivl	%ebp
	movl	%eax, %ebp
	movl	4(%rsp), %eax
	cltd
	idivl	%r11d
	movl	%eax, %r11d
	movl	8(%rsp), %eax
	cltd
	idivl	%r10d
	movl	%eax, %r10d
	movl	12(%rsp), %eax
	cltd
	idivl	%r12d
	movl	%eax, %edi
	movl	16(%rsp), %eax
	cltd
	idivl	%esi
	movl	%eax, %esi
	movl	20(%rsp), %eax
	cltd
	idivl	%ecx
	movl	%eax, %ecx
	movl	%r14d, %eax
	cltd
	idivl	%r9d
	movl	%eax, %r9d
	movl	%r15d, %eax
	cltd
	idivl	%r8d
	movl	%eax, %r12d
	movl	32(%rsp), %eax
	cltd
	idivl	%ebx
	movl	%eax, %ebx
	movl	%r13d, %eax
	cltd
	idivl	%ebp
	movl	%eax, %ebp
	movl	4(%rsp), %eax
	cltd
	idivl	%r11d
	movl	%eax, %r11d
	movl	8(%rsp), %eax
	cltd
	idivl	%r10d
	movl	%eax, %r8d
	movl	12(%rsp), %eax
	cltd
	idivl	%edi
	movl	%eax, %edi
	movl	16(%rsp), %eax
	cltd
	idivl	%esi
	movl	%eax, %esi
	movl	20(%rsp), %eax
	cltd
	idivl	%ecx
	movl	%eax, 36(%rsp)
	movl	%r14d, %eax
	cltd
	idivl	%r9d
	movl	%eax, %r9d
	movl	%r15d, %eax
	cltd
	idivl	%r12d
	movl	%eax, %r10d
	movl	32(%rsp), %eax
	cltd
	idivl	%ebx
	movl	%eax, %ebx
	movl	%r13d, %eax
	cltd
	idivl	%ebp
	movl	%eax, %ecx
	movl	4(%rsp), %eax
	cltd
	idivl	%r11d
	movl	%eax, %r11d
	movl	8(%rsp), %eax
	cltd
	idivl	%r8d
	movl	%eax, %r8d
	movl	12(%rsp), %eax
	cltd
	idivl	%edi
	movl	%eax, %r12d
	movl	16(%rsp), %eax
	cltd
	idivl	%esi
	movl	%eax, %ebp
	movl	20(%rsp), %eax
	cltd
	idivl	36(%rsp)
	movl	%eax, 36(%rsp)
	movl	%r14d, %eax
	cltd
	idivl	%r9d
	movl	%eax, 40(%rsp)
	movl	%r15d, %eax
	cltd
	idivl	%r10d
	movl	%eax, %esi
	movl	32(%rsp), %eax
	cltd
	idivl	%ebx
	movl	%eax, %ebx
	subq	$1, 24(%rsp)
	movq	24(%rsp), %rax
	cmpq	$-1, %rax
	jne	.L297
	movl	%ecx, %r15d
	movl	%r11d, %r14d
	movl	%r8d, %r13d
	movl	%esi, 32(%rsp)
.L296:
	movl	%r15d, %edi
	call	use_int@PLT
	movl	%r14d, %edi
	call	use_int@PLT
	movl	%r13d, %edi
	call	use_int@PLT
	movl	%r12d, %edi
	call	use_int@PLT
	movl	%ebp, %edi
	call	use_int@PLT
	movl	36(%rsp), %edi
	call	use_int@PLT
	movl	40(%rsp), %edi
	call	use_int@PLT
	movl	32(%rsp), %edi
	call	use_int@PLT
	movl	%ebx, %edi
	call	use_int@PLT
	addq	$56, %rsp
	.cfi_def_cfa_offset 56
	popq	%rbx
	.cfi_def_cfa_offset 48
	popq	%rbp
	.cfi_def_cfa_offset 40
	popq	%r12
	.cfi_def_cfa_offset 32
	popq	%r13
	.cfi_def_cfa_offset 24
	popq	%r14
	.cfi_def_cfa_offset 16
	popq	%r15
	.cfi_def_cfa_offset 8
	ret
	.cfi_endproc
.LFE129:
	.size	integer_div_8, .-integer_div_8
	.globl	integer_div_9
	.type	integer_div_9, @function
integer_div_9:
.LFB130:
	.cfi_startproc
	endbr64
	pushq	%r15
	.cfi_def_cfa_offset 16
	.cfi_offset 15, -16
	pushq	%r14
	.cfi_def_cfa_offset 24
	.cfi_offset 14, -24
	pushq	%r13
	.cfi_def_cfa_offset 32
	.cfi_offset 13, -32
	pushq	%r12
	.cfi_def_cfa_offset 40
	.cfi_offset 12, -40
	pushq	%rbp
	.cfi_def_cfa_offset 48
	.cfi_offset 6, -48
	pushq	%rbx
	.cfi_def_cfa_offset 56
	.cfi_offset 3, -56
	subq	$72, %rsp
	.cfi_def_cfa_offset 128
	movq	%rsi, %rax
	movl	12(%rsi), %edx
	leal	37(%rdx), %r8d
	addl	$38, %edx
	sall	$20, %edx
	movl	%edx, 4(%rsp)
	movl	16(%rsi), %edx
	leal	36(%rdx), %ebx
	movl	%ebx, 44(%rsp)
	addl	$37, %edx
	sall	$20, %edx
	movl	%edx, 8(%rsp)
	movl	20(%rsi), %edx
	leal	35(%rdx), %ebx
	movl	%ebx, 48(%rsp)
	addl	$36, %edx
	sall	$20, %edx
	movl	%edx, 12(%rsp)
	movl	24(%rsi), %edx
	leal	34(%rdx), %ebx
	movl	%ebx, 52(%rsp)
	addl	$35, %edx
	sall	$20, %edx
	movl	%edx, 16(%rsp)
	movl	28(%rsi), %edx
	leal	33(%rdx), %esi
	movl	%esi, 56(%rsp)
	addl	$34, %edx
	sall	$20, %edx
	movl	%edx, 20(%rsp)
	movl	32(%rax), %edx
	leal	32(%rdx), %r14d
	addl	$33, %edx
	sall	$20, %edx
	movl	%edx, 24(%rsp)
	movl	36(%rax), %edx
	leal	31(%rdx), %r13d
	addl	$32, %edx
	sall	$20, %edx
	movl	%edx, 28(%rsp)
	movl	40(%rax), %edx
	leal	30(%rdx), %r12d
	addl	$31, %edx
	sall	$20, %edx
	movl	%edx, 40(%rsp)
	movl	44(%rax), %esi
	leal	29(%rsi), %ebp
	addl	$30, %esi
	sall	$20, %esi
	movl	48(%rax), %ecx
	leal	28(%rcx), %ebx
	addl	$29, %ecx
	sall	$20, %ecx
	leaq	-1(%rdi), %rax
	movq	%rax, 32(%rsp)
	testq	%rdi, %rdi
	je	.L301
	movl	%ecx, %r15d
	movl	%r8d, %r9d
	movl	%r14d, %r8d
	movl	%esi, %r14d
.L302:
	movl	4(%rsp), %eax
	cltd
	idivl	%r9d
	movl	%eax, 60(%rsp)
	movl	8(%rsp), %eax
	cltd
	idivl	44(%rsp)
	movl	%eax, 44(%rsp)
	movl	12(%rsp), %eax
	cltd
	idivl	48(%rsp)
	movl	%eax, %r11d
	movl	16(%rsp), %eax
	cltd
	idivl	52(%rsp)
	movl	%eax, %r10d
	movl	20(%rsp), %eax
	cltd
	idivl	56(%rsp)
	movl	%eax, %r9d
	movl	24(%rsp), %eax
	cltd
	idivl	%r8d
	movl	%eax, %edi
	movl	28(%rsp), %eax
	cltd
	idivl	%r13d
	movl	%eax, %esi
	movl	40(%rsp), %eax
	cltd
	idivl	%r12d
	movl	%eax, %ecx
	movl	%r14d, %eax
	cltd
	idivl	%ebp
	movl	%eax, %r8d
	movl	%r15d, %eax
	cltd
	idivl	%ebx
	movl	%eax, %ebx
	movl	4(%rsp), %eax
	cltd
	idivl	60(%rsp)
	movl	%eax, %ebp
	movl	8(%rsp), %eax
	cltd
	idivl	44(%rsp)
	movl	%eax, %r12d
	movl	12(%rsp), %eax
	cltd
	idivl	%r11d
	movl	%eax, %r11d
	movl	16(%rsp), %eax
	cltd
	idivl	%r10d
	movl	%eax, %r10d
	movl	20(%rsp), %eax
	cltd
	idivl	%r9d
	movl	%eax, %r9d
	movl	24(%rsp), %eax
	cltd
	idivl	%edi
	movl	%eax, %edi
	movl	28(%rsp), %eax
	cltd
	idivl	%esi
	movl	%eax, %esi
	movl	40(%rsp), %eax
	cltd
	idivl	%ecx
	movl	%eax, %ecx
	movl	%r14d, %eax
	cltd
	idivl	%r8d
	movl	%eax, %r13d
	movl	%r15d, %eax
	cltd
	idivl	%ebx
	movl	%eax, %ebx
	movl	4(%rsp), %eax
	cltd
	idivl	%ebp
	movl	%eax, %ebp
	movl	8(%rsp), %eax
	cltd
	idivl	%r12d
	movl	%eax, %r12d
	movl	12(%rsp), %eax
	cltd
	idivl	%r11d
	movl	%eax, %r11d
	movl	16(%rsp), %eax
	cltd
	idivl	%r10d
	movl	%eax, %r10d
	movl	20(%rsp), %eax
	cltd
	idivl	%r9d
	movl	%eax, %r8d
	movl	24(%rsp), %eax
	cltd
	idivl	%edi
	movl	%eax, %edi
	movl	28(%rsp), %eax
	cltd
	idivl	%esi
	movl	%eax, %esi
	movl	40(%rsp), %eax
	cltd
	idivl	%ecx
	movl	%eax, %r9d
	movl	%r14d, %eax
	cltd
	idivl	%r13d
	movl	%eax, %r13d
	movl	%r15d, %eax
	cltd
	idivl	%ebx
	movl	%eax, %ebx
	movl	4(%rsp), %eax
	cltd
	idivl	%ebp
	movl	%eax, %ebp
	movl	8(%rsp), %eax
	cltd
	idivl	%r12d
	movl	%eax, %r12d
	movl	12(%rsp), %eax
	cltd
	idivl	%r11d
	movl	%eax, %r11d
	movl	16(%rsp), %eax
	cltd
	idivl	%r10d
	movl	%eax, %ecx
	movl	20(%rsp), %eax
	cltd
	idivl	%r8d
	movl	%eax, %r8d
	movl	24(%rsp), %eax
	cltd
	idivl	%edi
	movl	%eax, %edi
	movl	28(%rsp), %eax
	cltd
	idivl	%esi
	movl	%eax, %r10d
	movl	40(%rsp), %eax
	cltd
	idivl	%r9d
	movl	%eax, %r9d
	movl	%r14d, %eax
	cltd
	idivl	%r13d
	movl	%eax, %r13d
	movl	%r15d, %eax
	cltd
	idivl	%ebx
	movl	%eax, %ebx
	movl	4(%rsp), %eax
	cltd
	idivl	%ebp
	movl	%eax, %ebp
	movl	8(%rsp), %eax
	cltd
	idivl	%r12d
	movl	%eax, %r12d
	movl	12(%rsp), %eax
	cltd
	idivl	%r11d
	movl	%eax, %esi
	movl	16(%rsp), %eax
	cltd
	idivl	%ecx
	movl	%eax, %ecx
	movl	20(%rsp), %eax
	cltd
	idivl	%r8d
	movl	%eax, %r8d
	movl	24(%rsp), %eax
	cltd
	idivl	%edi
	movl	%eax, %r11d
	movl	28(%rsp), %eax
	cltd
	idivl	%r10d
	movl	%eax, %r10d
	movl	40(%rsp), %eax
	cltd
	idivl	%r9d
	movl	%eax, %r9d
	movl	%r14d, %eax
	cltd
	idivl	%r13d
	movl	%eax, %r13d
	movl	%r15d, %eax
	cltd
	idivl	%ebx
	movl	%eax, %ebx
	movl	4(%rsp), %eax
	cltd
	idivl	%ebp
	movl	%eax, %ebp
	movl	8(%rsp), %eax
	cltd
	idivl	%r12d
	movl	%eax, %edi
	movl	12(%rsp), %eax
	cltd
	idivl	%esi
	movl	%eax, %esi
	movl	16(%rsp), %eax
	cltd
	idivl	%ecx
	movl	%eax, %ecx
	movl	20(%rsp), %eax
	cltd
	idivl	%r8d
	movl	%eax, %r12d
	movl	24(%rsp), %eax
	cltd
	idivl	%r11d
	movl	%eax, %r11d
	movl	28(%rsp), %eax
	cltd
	idivl	%r10d
	movl	%eax, %r10d
	movl	40(%rsp), %eax
	cltd
	idivl	%r9d
	movl	%eax, %r9d
	movl	%r14d, %eax
	cltd
	idivl	%r13d
	movl	%eax, %r13d
	movl	%r15d, %eax
	cltd
	idivl	%ebx
	movl	%eax, %ebx
	movl	4(%rsp), %eax
	cltd
	idivl	%ebp
	movl	%eax, %r8d
	movl	8(%rsp), %eax
	cltd
	idivl	%edi
	movl	%eax, %edi
	movl	12(%rsp), %eax
	cltd
	idivl	%esi
	movl	%eax, %esi
	movl	16(%rsp), %eax
	cltd
	idivl	%ecx
	movl	%eax, %ebp
	movl	20(%rsp), %eax
	cltd
	idivl	%r12d
	movl	%eax, %r12d
	movl	24(%rsp), %eax
	cltd
	idivl	%r11d
	movl	%eax, %r11d
	movl	28(%rsp), %eax
	cltd
	idivl	%r10d
	movl	%eax, %r10d
	movl	40(%rsp), %eax
	cltd
	idivl	%r9d
	movl	%eax, %r9d
	movl	%r14d, %eax
	cltd
	idivl	%r13d
	movl	%eax, %r13d
	movl	%r15d, %eax
	cltd
	idivl	%ebx
	movl	%eax, %ecx
	movl	4(%rsp), %eax
	cltd
	idivl	%r8d
	movl	%eax, %r8d
	movl	8(%rsp), %eax
	cltd
	idivl	%edi
	movl	%eax, %edi
	movl	12(%rsp), %eax
	cltd
	idivl	%esi
	movl	%eax, %ebx
	movl	16(%rsp), %eax
	cltd
	idivl	%ebp
	movl	%eax, %ebp
	movl	20(%rsp), %eax
	cltd
	idivl	%r12d
	movl	%eax, %r12d
	movl	24(%rsp), %eax
	cltd
	idivl	%r11d
	movl	%eax, %r11d
	movl	28(%rsp), %eax
	cltd
	idivl	%r10d
	movl	%eax, %r10d
	movl	40(%rsp), %eax
	cltd
	idivl	%r9d
	movl	%eax, %r9d
	movl	%r14d, %eax
	cltd
	idivl	%r13d
	movl	%eax, %esi
	movl	%r15d, %eax
	cltd
	idivl	%ecx
	movl	%eax, %ecx
	movl	4(%rsp), %eax
	cltd
	idivl	%r8d
	movl	%eax, %r8d
	movl	8(%rsp), %eax
	cltd
	idivl	%edi
	movl	%eax, %r13d
	movl	12(%rsp), %eax
	cltd
	idivl	%ebx
	movl	%eax, %ebx
	movl	16(%rsp), %eax
	cltd
	idivl	%ebp
	movl	%eax, %ebp
	movl	20(%rsp), %eax
	cltd
	idivl	%r12d
	movl	%eax, %r12d
	movl	24(%rsp), %eax
	cltd
	idivl	%r11d
	movl	%eax, %r11d
	movl	28(%rsp), %eax
	cltd
	idivl	%r10d
	movl	%eax, %r10d
	movl	40(%rsp), %eax
	cltd
	idivl	%r9d
	movl	%eax, %edi
	movl	%r14d, %eax
	cltd
	idivl	%esi
	movl	%eax, %esi
	movl	%r15d, %eax
	cltd
	idivl	%ecx
	movl	%eax, %ecx
	movl	4(%rsp), %eax
	cltd
	idivl	%r8d
	movl	%eax, %r9d
	movl	8(%rsp), %eax
	cltd
	idivl	%r13d
	movl	%eax, 44(%rsp)
	movl	12(%rsp), %eax
	cltd
	idivl	%ebx
	movl	%eax, 48(%rsp)
	movl	16(%rsp), %eax
	cltd
	idivl	%ebp
	movl	%eax, 52(%rsp)
	movl	20(%rsp), %eax
	cltd
	idivl	%r12d
	movl	%eax, 56(%rsp)
	movl	24(%rsp), %eax
	cltd
	idivl	%r11d
	movl	%eax, %r8d
	movl	28(%rsp), %eax
	cltd
	idivl	%r10d
	movl	%eax, %r13d
	movl	40(%rsp), %eax
	cltd
	idivl	%edi
	movl	%eax, %r12d
	movl	%r14d, %eax
	cltd
	idivl	%esi
	movl	%eax, %ebp
	movl	%r15d, %eax
	cltd
	idivl	%ecx
	movl	%eax, %ebx
	subq	$1, 32(%rsp)
	movq	32(%rsp), %rax
	cmpq	$-1, %rax
	jne	.L302
	movl	%r8d, %r14d
	movl	%r9d, %r8d
.L301:
	movl	%r8d, %edi
	call	use_int@PLT
	movl	44(%rsp), %edi
	call	use_int@PLT
	movl	48(%rsp), %edi
	call	use_int@PLT
	movl	52(%rsp), %edi
	call	use_int@PLT
	movl	56(%rsp), %edi
	call	use_int@PLT
	movl	%r14d, %edi
	call	use_int@PLT
	movl	%r13d, %edi
	call	use_int@PLT
	movl	%r12d, %edi
	call	use_int@PLT
	movl	%ebp, %edi
	call	use_int@PLT
	movl	%ebx, %edi
	call	use_int@PLT
	addq	$72, %rsp
	.cfi_def_cfa_offset 56
	popq	%rbx
	.cfi_def_cfa_offset 48
	popq	%rbp
	.cfi_def_cfa_offset 40
	popq	%r12
	.cfi_def_cfa_offset 32
	popq	%r13
	.cfi_def_cfa_offset 24
	popq	%r14
	.cfi_def_cfa_offset 16
	popq	%r15
	.cfi_def_cfa_offset 8
	ret
	.cfi_endproc
.LFE130:
	.size	integer_div_9, .-integer_div_9
	.globl	integer_div_10
	.type	integer_div_10, @function
integer_div_10:
.LFB131:
	.cfi_startproc
	endbr64
	pushq	%r15
	.cfi_def_cfa_offset 16
	.cfi_offset 15, -16
	pushq	%r14
	.cfi_def_cfa_offset 24
	.cfi_offset 14, -24
	pushq	%r13
	.cfi_def_cfa_offset 32
	.cfi_offset 13, -32
	pushq	%r12
	.cfi_def_cfa_offset 40
	.cfi_offset 12, -40
	pushq	%rbp
	.cfi_def_cfa_offset 48
	.cfi_offset 6, -48
	pushq	%rbx
	.cfi_def_cfa_offset 56
	.cfi_offset 3, -56
	subq	$88, %rsp
	.cfi_def_cfa_offset 144
	movq	%rdi, %r8
	movq	%rsi, %rax
	movl	12(%rsi), %edx
	leal	37(%rdx), %edi
	addl	$38, %edx
	sall	$20, %edx
	movl	%edx, 4(%rsp)
	movl	16(%rsi), %edx
	leal	36(%rdx), %esi
	movl	%esi, 52(%rsp)
	addl	$37, %edx
	sall	$20, %edx
	movl	%edx, 8(%rsp)
	movl	20(%rax), %edx
	leal	35(%rdx), %esi
	movl	%esi, 56(%rsp)
	addl	$36, %edx
	sall	$20, %edx
	movl	%edx, 12(%rsp)
	movl	24(%rax), %edx
	leal	34(%rdx), %esi
	movl	%esi, 60(%rsp)
	addl	$35, %edx
	sall	$20, %edx
	movl	%edx, 16(%rsp)
	movl	28(%rax), %edx
	leal	33(%rdx), %esi
	movl	%esi, %r15d
	addl	$34, %edx
	sall	$20, %edx
	movl	%edx, 20(%rsp)
	movl	32(%rax), %edx
	leal	32(%rdx), %ecx
	movl	%ecx, 64(%rsp)
	addl	$33, %edx
	sall	$20, %edx
	movl	%edx, 24(%rsp)
	movl	36(%rax), %edx
	leal	31(%rdx), %r14d
	addl	$32, %edx
	sall	$20, %edx
	movl	%edx, 28(%rsp)
	movl	40(%rax), %edx
	leal	30(%rdx), %r13d
	addl	$31, %edx
	sall	$20, %edx
	movl	%edx, 32(%rsp)
	movl	44(%rax), %edx
	leal	29(%rdx), %r12d
	addl	$30, %edx
	sall	$20, %edx
	movl	%edx, 36(%rsp)
	movl	48(%rax), %edx
	leal	28(%rdx), %ebp
	addl	$29, %edx
	sall	$20, %edx
	movl	%edx, 48(%rsp)
	movl	52(%rax), %ecx
	leal	27(%rcx), %ebx
	addl	$28, %ecx
	sall	$20, %ecx
	leaq	-1(%r8), %rax
	movq	%rax, 40(%rsp)
	testq	%r8, %r8
	je	.L306
	movl	%ecx, %r15d
.L307:
	movl	4(%rsp), %eax
	cltd
	idivl	%edi
	movl	%eax, 68(%rsp)
	movl	8(%rsp), %eax
	cltd
	idivl	52(%rsp)
	movl	%eax, %r11d
	movl	12(%rsp), %eax
	cltd
	idivl	56(%rsp)
	movl	%eax, %r10d
	movl	16(%rsp), %eax
	cltd
	idivl	60(%rsp)
	movl	%eax, %r9d
	movl	20(%rsp), %eax
	cltd
	idivl	%esi
	movl	%eax, %esi
	movl	24(%rsp), %eax
	cltd
	idivl	64(%rsp)
	movl	%eax, %r8d
	movl	28(%rsp), %eax
	cltd
	idivl	%r14d
	movl	%eax, %ecx
	movl	32(%rsp), %eax
	cltd
	idivl	%r13d
	movl	%eax, %r13d
	movl	36(%rsp), %eax
	cltd
	idivl	%r12d
	movl	%eax, %r12d
	movl	48(%rsp), %eax
	cltd
	idivl	%ebp
	movl	%eax, %edi
	movl	%r15d, %eax
	cltd
	idivl	%ebx
	movl	%eax, %ebx
	movl	4(%rsp), %eax
	cltd
	idivl	68(%rsp)
	movl	%eax, %ebp
	movl	8(%rsp), %eax
	cltd
	idivl	%r11d
	movl	%eax, %r11d
	movl	12(%rsp), %eax
	cltd
	idivl	%r10d
	movl	%eax, %r10d
	movl	16(%rsp), %eax
	cltd
	idivl	%r9d
	movl	%eax, %r9d
	movl	20(%rsp), %eax
	cltd
	idivl	%esi
	movl	%eax, %esi
	movl	24(%rsp), %eax
	cltd
	idivl	%r8d
	movl	%eax, %r8d
	movl	28(%rsp), %eax
	cltd
	idivl	%ecx
	movl	%eax, %r14d
	movl	32(%rsp), %eax
	cltd
	idivl	%r13d
	movl	%eax, %r13d
	movl	36(%rsp), %eax
	cltd
	idivl	%r12d
	movl	%eax, %ecx
	movl	48(%rsp), %eax
	cltd
	idivl	%edi
	movl	%eax, %r12d
	movl	%r15d, %eax
	cltd
	idivl	%ebx
	movl	%eax, %ebx
	movl	4(%rsp), %eax
	cltd
	idivl	%ebp
	movl	%eax, %ebp
	movl	8(%rsp), %eax
	cltd
	idivl	%r11d
	movl	%eax, %r11d
	movl	12(%rsp), %eax
	cltd
	idivl	%r10d
	movl	%eax, %r10d
	movl	16(%rsp), %eax
	cltd
	idivl	%r9d
	movl	%eax, %edi
	movl	20(%rsp), %eax
	cltd
	idivl	%esi
	movl	%eax, %r9d
	movl	24(%rsp), %eax
	cltd
	idivl	%r8d
	movl	%eax, %r8d
	movl	28(%rsp), %eax
	cltd
	idivl	%r14d
	movl	%eax, %r14d
	movl	32(%rsp), %eax
	cltd
	idivl	%r13d
	movl	%eax, %esi
	movl	36(%rsp), %eax
	cltd
	idivl	%ecx
	movl	%eax, %r13d
	movl	48(%rsp), %eax
	cltd
	idivl	%r12d
	movl	%eax, %r12d
	movl	%r15d, %eax
	cltd
	idivl	%ebx
	movl	%eax, %ebx
	movl	4(%rsp), %eax
	cltd
	idivl	%ebp
	movl	%eax, %ebp
	movl	8(%rsp), %eax
	cltd
	idivl	%r11d
	movl	%eax, %r11d
	movl	12(%rsp), %eax
	cltd
	idivl	%r10d
	movl	%eax, %ecx
	movl	16(%rsp), %eax
	cltd
	idivl	%edi
	movl	%eax, %r10d
	movl	20(%rsp), %eax
	cltd
	idivl	%r9d
	movl	%eax, %r9d
	movl	24(%rsp), %eax
	cltd
	idivl	%r8d
	movl	%eax, %r8d
	movl	28(%rsp), %eax
	cltd
	idivl	%r14d
	movl	%eax, %edi
	movl	32(%rsp), %eax
	cltd
	idivl	%esi
	movl	%eax, %r14d
	movl	36(%rsp), %eax
	cltd
	idivl	%r13d
	movl	%eax, %r13d
	movl	48(%rsp), %eax
	cltd
	idivl	%r12d
	movl	%eax, %r12d
	movl	%r15d, %eax
	cltd
	idivl	%ebx
	movl	%eax, %ebx
	movl	4(%rsp), %eax
	cltd
	idivl	%ebp
	movl	%eax, %ebp
	movl	8(%rsp), %eax
	cltd
	idivl	%r11d
	movl	%eax, %esi
	movl	12(%rsp), %eax
	cltd
	idivl	%ecx
	movl	%eax, %r11d
	movl	16(%rsp), %eax
	cltd
	idivl	%r10d
	movl	%eax, %r10d
	movl	20(%rsp), %eax
	cltd
	idivl	%r9d
	movl	%eax, %r9d
	movl	24(%rsp), %eax
	cltd
	idivl	%r8d
	movl	%eax, %ecx
	movl	28(%rsp), %eax
	cltd
	idivl	%edi
	movl	%eax, %r8d
	movl	32(%rsp), %eax
	cltd
	idivl	%r14d
	movl	%eax, %r14d
	movl	36(%rsp), %eax
	cltd
	idivl	%r13d
	movl	%eax, %r13d
	movl	48(%rsp), %eax
	cltd
	idivl	%r12d
	movl	%eax, %r12d
	movl	%r15d, %eax
	cltd
	idivl	%ebx
	movl	%eax, %ebx
	movl	4(%rsp), %eax
	cltd
	idivl	%ebp
	movl	%eax, %edi
	movl	8(%rsp), %eax
	cltd
	idivl	%esi
	movl	%eax, %ebp
	movl	12(%rsp), %eax
	cltd
	idivl	%r11d
	movl	%eax, %r11d
	movl	16(%rsp), %eax
	cltd
	idivl	%r10d
	movl	%eax, %r10d
	movl	20(%rsp), %eax
	cltd
	idivl	%r9d
	movl	%eax, %esi
	movl	24(%rsp), %eax
	cltd
	idivl	%ecx
	movl	%eax, %r9d
	movl	28(%rsp), %eax
	cltd
	idivl	%r8d
	movl	%eax, %r8d
	movl	32(%rsp), %eax
	cltd
	idivl	%r14d
	movl	%eax, %r14d
	movl	36(%rsp), %eax
	cltd
	idivl	%r13d
	movl	%eax, %r13d
	movl	48(%rsp), %eax
	cltd
	idivl	%r12d
	movl	%eax, %r12d
	movl	%r15d, %eax
	cltd
	idivl	%ebx
	movl	%eax, %ecx
	movl	4(%rsp), %eax
	cltd
	idivl	%edi
	movl	%eax, %ebx
	movl	8(%rsp), %eax
	cltd
	idivl	%ebp
	movl	%eax, %ebp
	movl	12(%rsp), %eax
	cltd
	idivl	%r11d
	movl	%eax, %r11d
	movl	16(%rsp), %eax
	cltd
	idivl	%r10d
	movl	%eax, %edi
	movl	20(%rsp), %eax
	cltd
	idivl	%esi
	movl	%eax, %r10d
	movl	24(%rsp), %eax
	cltd
	idivl	%r9d
	movl	%eax, %r9d
	movl	28(%rsp), %eax
	cltd
	idivl	%r8d
	movl	%eax, %r8d
	movl	32(%rsp), %eax
	cltd
	idivl	%r14d
	movl	%eax, %r14d
	movl	36(%rsp), %eax
	cltd
	idivl	%r13d
	movl	%eax, %r13d
	movl	48(%rsp), %eax
	cltd
	idivl	%r12d
	movl	%eax, %esi
	movl	%r15d, %eax
	cltd
	idivl	%ecx
	movl	%eax, %r12d
	movl	4(%rsp), %eax
	cltd
	idivl	%ebx
	movl	%eax, %ebx
	movl	8(%rsp), %eax
	cltd
	idivl	%ebp
	movl	%eax, %ebp
	movl	12(%rsp), %eax
	cltd
	idivl	%r11d
	movl	%eax, %ecx
	movl	16(%rsp), %eax
	cltd
	idivl	%edi
	movl	%eax, %r11d
	movl	20(%rsp), %eax
	cltd
	idivl	%r10d
	movl	%eax, %r10d
	movl	24(%rsp), %eax
	cltd
	idivl	%r9d
	movl	%eax, %r9d
	movl	28(%rsp), %eax
	cltd
	idivl	%r8d
	movl	%eax, %r8d
	movl	32(%rsp), %eax
	cltd
	idivl	%r14d
	movl	%eax, %r14d
	movl	36(%rsp), %eax
	cltd
	idivl	%r13d
	movl	%eax, %edi
	movl	48(%rsp), %eax
	cltd
	idivl	%esi
	movl	%eax, %r13d
	movl	%r15d, %eax
	cltd
	idivl	%r12d
	movl	%eax, %r12d
	movl	4(%rsp), %eax
	cltd
	idivl	%ebx
	movl	%eax, %ebx
	movl	8(%rsp), %eax
	cltd
	idivl	%ebp
	movl	%eax, %esi
	movl	12(%rsp), %eax
	cltd
	idivl	%ecx
	movl	%eax, %ebp
	movl	16(%rsp), %eax
	cltd
	idivl	%r11d
	movl	%eax, %r11d
	movl	20(%rsp), %eax
	cltd
	idivl	%r10d
	movl	%eax, %r10d
	movl	24(%rsp), %eax
	cltd
	idivl	%r9d
	movl	%eax, %r9d
	movl	28(%rsp), %eax
	cltd
	idivl	%r8d
	movl	%eax, %r8d
	movl	32(%rsp), %eax
	cltd
	idivl	%r14d
	movl	%eax, %ecx
	movl	36(%rsp), %eax
	cltd
	idivl	%edi
	movl	%eax, 68(%rsp)
	movl	48(%rsp), %eax
	cltd
	idivl	%r13d
	movl	%eax, 72(%rsp)
	movl	%r15d, %eax
	cltd
	idivl	%r12d
	movl	%eax, 76(%rsp)
	movl	4(%rsp), %eax
	cltd
	idivl	%ebx
	movl	%eax, %edi
	movl	8(%rsp), %eax
	cltd
	idivl	%esi
	movl	%eax, 52(%rsp)
	movl	12(%rsp), %eax
	cltd
	idivl	%ebp
	movl	%eax, 56(%rsp)
	movl	16(%rsp), %eax
	cltd
	idivl	%r11d
	movl	%eax, 60(%rsp)
	movl	20(%rsp), %eax
	cltd
	idivl	%r10d
	movl	%eax, %esi
	movl	24(%rsp), %eax
	cltd
	idivl	%r9d
	movl	%eax, 64(%rsp)
	movl	28(%rsp), %eax
	cltd
	idivl	%r8d
	movl	%eax, %r14d
	movl	32(%rsp), %eax
	cltd
	idivl	%ecx
	movl	%eax, %r13d
	movl	36(%rsp), %eax
	cltd
	idivl	68(%rsp)
	movl	%eax, %r12d
	movl	48(%rsp), %eax
	cltd
	idivl	72(%rsp)
	movl	%eax, %ebp
	movl	%r15d, %eax
	cltd
	idivl	76(%rsp)
	movl	%eax, %ebx
	subq	$1, 40(%rsp)
	movq	40(%rsp), %rax
	cmpq	$-1, %rax
	jne	.L307
	movl	%esi, %r15d
.L306:
	call	use_int@PLT
	movl	52(%rsp), %edi
	call	use_int@PLT
	movl	56(%rsp), %edi
	call	use_int@PLT
	movl	60(%rsp), %edi
	call	use_int@PLT
	movl	%r15d, %edi
	call	use_int@PLT
	movl	64(%rsp), %edi
	call	use_int@PLT
	movl	%r14d, %edi
	call	use_int@PLT
	movl	%r13d, %edi
	call	use_int@PLT
	movl	%r12d, %edi
	call	use_int@PLT
	movl	%ebp, %edi
	call	use_int@PLT
	movl	%ebx, %edi
	call	use_int@PLT
	addq	$88, %rsp
	.cfi_def_cfa_offset 56
	popq	%rbx
	.cfi_def_cfa_offset 48
	popq	%rbp
	.cfi_def_cfa_offset 40
	popq	%r12
	.cfi_def_cfa_offset 32
	popq	%r13
	.cfi_def_cfa_offset 24
	popq	%r14
	.cfi_def_cfa_offset 16
	popq	%r15
	.cfi_def_cfa_offset 8
	ret
	.cfi_endproc
.LFE131:
	.size	integer_div_10, .-integer_div_10
	.globl	integer_div_11
	.type	integer_div_11, @function
integer_div_11:
.LFB132:
	.cfi_startproc
	endbr64
	pushq	%r15
	.cfi_def_cfa_offset 16
	.cfi_offset 15, -16
	pushq	%r14
	.cfi_def_cfa_offset 24
	.cfi_offset 14, -24
	pushq	%r13
	.cfi_def_cfa_offset 32
	.cfi_offset 13, -32
	pushq	%r12
	.cfi_def_cfa_offset 40
	.cfi_offset 12, -40
	pushq	%rbp
	.cfi_def_cfa_offset 48
	.cfi_offset 6, -48
	pushq	%rbx
	.cfi_def_cfa_offset 56
	.cfi_offset 3, -56
	subq	$104, %rsp
	.cfi_def_cfa_offset 160
	movq	%rdi, %rcx
	movq	%rsi, %rax
	movl	12(%rsi), %edx
	leal	37(%rdx), %esi
	addl	$38, %edx
	sall	$20, %edx
	movl	%edx, 12(%rsp)
	movl	16(%rax), %edx
	leal	36(%rdx), %ebx
	movl	%ebx, 68(%rsp)
	addl	$37, %edx
	sall	$20, %edx
	movl	%edx, 16(%rsp)
	movl	20(%rax), %edx
	leal	35(%rdx), %ebx
	movl	%ebx, 72(%rsp)
	addl	$36, %edx
	sall	$20, %edx
	movl	%edx, 20(%rsp)
	movl	24(%rax), %edx
	leal	34(%rdx), %ebx
	movl	%ebx, 76(%rsp)
	addl	$35, %edx
	sall	$20, %edx
	movl	%edx, 24(%rsp)
	movl	28(%rax), %edx
	leal	33(%rdx), %ebx
	movl	%ebx, 80(%rsp)
	addl	$34, %edx
	sall	$20, %edx
	movl	%edx, 28(%rsp)
	movl	32(%rax), %edx
	leal	32(%rdx), %ebx
	movl	%ebx, 84(%rsp)
	addl	$33, %edx
	sall	$20, %edx
	movl	%edx, 32(%rsp)
	movl	36(%rax), %edx
	leal	31(%rdx), %edi
	movl	%edi, %r15d
	addl	$32, %edx
	sall	$20, %edx
	movl	%edx, 36(%rsp)
	movl	40(%rax), %edx
	leal	30(%rdx), %r14d
	addl	$31, %edx
	sall	$20, %edx
	movl	%edx, 40(%rsp)
	movl	44(%rax), %edx
	leal	29(%rdx), %r13d
	addl	$30, %edx
	sall	$20, %edx
	movl	%edx, 44(%rsp)
	movl	48(%rax), %edx
	leal	28(%rdx), %r12d
	addl	$29, %edx
	sall	$20, %edx
	movl	%edx, 48(%rsp)
	movl	52(%rax), %edx
	leal	27(%rdx), %ebp
	addl	$28, %edx
	sall	$20, %edx
	movl	%edx, 52(%rsp)
	movl	56(%rax), %eax
	leal	26(%rax), %ebx
	addl	$27, %eax
	sall	$20, %eax
	movl	%eax, 64(%rsp)
	leaq	-1(%rcx), %rax
	movq	%rax, 56(%rsp)
	testq	%rcx, %rcx
	je	.L311
	movl	%edi, %ecx
.L312:
	movl	12(%rsp), %eax
	cltd
	idivl	%esi
	movl	%eax, %r15d
	movl	16(%rsp), %eax
	cltd
	idivl	68(%rsp)
	movl	%eax, %r11d
	movl	20(%rsp), %eax
	cltd
	idivl	72(%rsp)
	movl	%eax, %r10d
	movl	24(%rsp), %eax
	cltd
	idivl	76(%rsp)
	movl	%eax, %r9d
	movl	28(%rsp), %eax
	cltd
	idivl	80(%rsp)
	movl	%eax, %r8d
	movl	32(%rsp), %eax
	cltd
	idivl	84(%rsp)
	movl	%eax, %edi
	movl	36(%rsp), %eax
	cltd
	idivl	%ecx
	movl	%eax, %esi
	movl	40(%rsp), %eax
	cltd
	idivl	%r14d
	movl	%eax, %r14d
	movl	44(%rsp), %eax
	cltd
	idivl	%r13d
	movl	%eax, %r13d
	movl	48(%rsp), %eax
	cltd
	idivl	%r12d
	movl	%eax, %ecx
	movl	52(%rsp), %eax
	cltd
	idivl	%ebp
	movl	%eax, %ebp
	movl	64(%rsp), %eax
	cltd
	idivl	%ebx
	movl	%eax, %ebx
	movl	12(%rsp), %eax
	cltd
	idivl	%r15d
	movl	%eax, %r12d
	movl	16(%rsp), %eax
	cltd
	idivl	%r11d
	movl	%eax, %r11d
	movl	20(%rsp), %eax
	cltd
	idivl	%r10d
	movl	%eax, %r10d
	movl	24(%rsp), %eax
	cltd
	idivl	%r9d
	movl	%eax, %r9d
	movl	28(%rsp), %eax
	cltd
	idivl	%r8d
	movl	%eax, %r8d
	movl	32(%rsp), %eax
	cltd
	idivl	%edi
	movl	%eax, %edi
	movl	36(%rsp), %eax
	cltd
	idivl	%esi
	movl	%eax, %r15d
	movl	40(%rsp), %eax
	cltd
	idivl	%r14d
	movl	%eax, %r14d
	movl	44(%rsp), %eax
	cltd
	idivl	%r13d
	movl	%eax, %esi
	movl	48(%rsp), %eax
	cltd
	idivl	%ecx
	movl	%eax, %r13d
	movl	52(%rsp), %eax
	cltd
	idivl	%ebp
	movl	%eax, %ebp
	movl	64(%rsp), %eax
	cltd
	idivl	%ebx
	movl	%eax, %ebx
	movl	12(%rsp), %eax
	cltd
	idivl	%r12d
	movl	%eax, %r12d
	movl	16(%rsp), %eax
	cltd
	idivl	%r11d
	movl	%eax, %r11d
	movl	20(%rsp), %eax
	cltd
	idivl	%r10d
	movl	%eax, %r10d
	movl	24(%rsp), %eax
	cltd
	idivl	%r9d
	movl	%eax, %r9d
	movl	28(%rsp), %eax
	cltd
	idivl	%r8d
	movl	%eax, %r8d
	movl	32(%rsp), %eax
	cltd
	idivl	%edi
	movl	%eax, %edi
	movl	36(%rsp), %eax
	cltd
	idivl	%r15d
	movl	%eax, %r15d
	movl	40(%rsp), %eax
	cltd
	idivl	%r14d
	movl	%eax, %ecx
	movl	44(%rsp), %eax
	cltd
	idivl	%esi
	movl	%eax, %r14d
	movl	48(%rsp), %eax
	cltd
	idivl	%r13d
	movl	%eax, %r13d
	movl	52(%rsp), %eax
	cltd
	idivl	%ebp
	movl	%eax, %ebp
	movl	64(%rsp), %eax
	cltd
	idivl	%ebx
	movl	%eax, %ebx
	movl	12(%rsp), %eax
	cltd
	idivl	%r12d
	movl	%eax, %r12d
	movl	16(%rsp), %eax
	cltd
	idivl	%r11d
	movl	%eax, %r11d
	movl	20(%rsp), %eax
	cltd
	idivl	%r10d
	movl	%eax, %r10d
	movl	24(%rsp), %eax
	cltd
	idivl	%r9d
	movl	%eax, %r9d
	movl	28(%rsp), %eax
	cltd
	idivl	%r8d
	movl	%eax, %r8d
	movl	32(%rsp), %eax
	cltd
	idivl	%edi
	movl	%eax, %edi
	movl	36(%rsp), %eax
	cltd
	idivl	%r15d
	movl	%eax, %esi
	movl	40(%rsp), %eax
	cltd
	idivl	%ecx
	movl	%eax, %r15d
	movl	44(%rsp), %eax
	cltd
	idivl	%r14d
	movl	%eax, %r14d
	movl	48(%rsp), %eax
	cltd
	idivl	%r13d
	movl	%eax, %r13d
	movl	52(%rsp), %eax
	cltd
	idivl	%ebp
	movl	%eax, %ebp
	movl	64(%rsp), %eax
	cltd
	idivl	%ebx
	movl	%eax, %ebx
	movl	12(%rsp), %eax
	cltd
	idivl	%r12d
	movl	%eax, %r12d
	movl	16(%rsp), %eax
	cltd
	idivl	%r11d
	movl	%eax, %r11d
	movl	20(%rsp), %eax
	cltd
	idivl	%r10d
	movl	%eax, %r10d
	movl	24(%rsp), %eax
	cltd
	idivl	%r9d
	movl	%eax, %r9d
	movl	28(%rsp), %eax
	cltd
	idivl	%r8d
	movl	%eax, %r8d
	movl	32(%rsp), %eax
	cltd
	idivl	%edi
	movl	%eax, %ecx
	movl	36(%rsp), %eax
	cltd
	idivl	%esi
	movl	%eax, %edi
	movl	40(%rsp), %eax
	cltd
	idivl	%r15d
	movl	%eax, %r15d
	movl	44(%rsp), %eax
	cltd
	idivl	%r14d
	movl	%eax, %r14d
	movl	48(%rsp), %eax
	cltd
	idivl	%r13d
	movl	%eax, %r13d
	movl	52(%rsp), %eax
	cltd
	idivl	%ebp
	movl	%eax, %ebp
	movl	64(%rsp), %eax
	cltd
	idivl	%ebx
	movl	%eax, %ebx
	movl	12(%rsp), %eax
	cltd
	idivl	%r12d
	movl	%eax, %r12d
	movl	16(%rsp), %eax
	cltd
	idivl	%r11d
	movl	%eax, %r11d
	movl	20(%rsp), %eax
	cltd
	idivl	%r10d
	movl	%eax, %r10d
	movl	24(%rsp), %eax
	cltd
	idivl	%r9d
	movl	%eax, %r9d
	movl	28(%rsp), %eax
	cltd
	idivl	%r8d
	movl	%eax, %esi
	movl	32(%rsp), %eax
	cltd
	idivl	%ecx
	movl	%eax, %r8d
	movl	36(%rsp), %eax
	cltd
	idivl	%edi
	movl	%eax, %edi
	movl	40(%rsp), %eax
	cltd
	idivl	%r15d
	movl	%eax, %r15d
	movl	44(%rsp), %eax
	cltd
	idivl	%r14d
	movl	%eax, %r14d
	movl	48(%rsp), %eax
	cltd
	idivl	%r13d
	movl	%eax, %r13d
	movl	52(%rsp), %eax
	cltd
	idivl	%ebp
	movl	%eax, %ebp
	movl	64(%rsp), %eax
	cltd
	idivl	%ebx
	movl	%eax, %ebx
	movl	12(%rsp), %eax
	cltd
	idivl	%r12d
	movl	%eax, %r12d
	movl	16(%rsp), %eax
	cltd
	idivl	%r11d
	movl	%eax, %r11d
	movl	20(%rsp), %eax
	cltd
	idivl	%r10d
	movl	%eax, %r10d
	movl	24(%rsp), %eax
	cltd
	idivl	%r9d
	movl	%eax, %ecx
	movl	28(%rsp), %eax
	cltd
	idivl	%esi
	movl	%eax, %r9d
	movl	32(%rsp), %eax
	cltd
	idivl	%r8d
	movl	%eax, %r8d
	movl	36(%rsp), %eax
	cltd
	idivl	%edi
	movl	%eax, %edi
	movl	40(%rsp), %eax
	cltd
	idivl	%r15d
	movl	%eax, %r15d
	movl	44(%rsp), %eax
	cltd
	idivl	%r14d
	movl	%eax, %r14d
	movl	48(%rsp), %eax
	cltd
	idivl	%r13d
	movl	%eax, %r13d
	movl	52(%rsp), %eax
	cltd
	idivl	%ebp
	movl	%eax, %ebp
	movl	64(%rsp), %eax
	cltd
	idivl	%ebx
	movl	%eax, %ebx
	movl	12(%rsp), %eax
	cltd
	idivl	%r12d
	movl	%eax, %r12d
	movl	16(%rsp), %eax
	cltd
	idivl	%r11d
	movl	%eax, %r11d
	movl	20(%rsp), %eax
	cltd
	idivl	%r10d
	movl	%eax, %esi
	movl	24(%rsp), %eax
	cltd
	idivl	%ecx
	movl	%eax, %r10d
	movl	28(%rsp), %eax
	cltd
	idivl	%r9d
	movl	%eax, %r9d
	movl	32(%rsp), %eax
	cltd
	idivl	%r8d
	movl	%eax, %r8d
	movl	36(%rsp), %eax
	cltd
	idivl	%edi
	movl	%eax, %edi
	movl	40(%rsp), %eax
	cltd
	idivl	%r15d
	movl	%eax, %r15d
	movl	44(%rsp), %eax
	cltd
	idivl	%r14d
	movl	%eax, %r14d
	movl	48(%rsp), %eax
	cltd
	idivl	%r13d
	movl	%eax, %r13d
	movl	52(%rsp), %eax
	cltd
	idivl	%ebp
	movl	%eax, %ebp
	movl	64(%rsp), %eax
	cltd
	idivl	%ebx
	movl	%eax, %ebx
	movl	12(%rsp), %eax
	cltd
	idivl	%r12d
	movl	%eax, %r12d
	movl	16(%rsp), %eax
	cltd
	idivl	%r11d
	movl	%eax, %ecx
	movl	20(%rsp), %eax
	cltd
	idivl	%esi
	movl	%eax, %r11d
	movl	24(%rsp), %eax
	cltd
	idivl	%r10d
	movl	%eax, %r10d
	movl	28(%rsp), %eax
	cltd
	idivl	%r9d
	movl	%eax, %r9d
	movl	32(%rsp), %eax
	cltd
	idivl	%r8d
	movl	%eax, %r8d
	movl	36(%rsp), %eax
	cltd
	idivl	%edi
	movl	%eax, %edi
	movl	40(%rsp), %eax
	cltd
	idivl	%r15d
	movl	%eax, %r15d
	movl	44(%rsp), %eax
	cltd
	idivl	%r14d
	movl	%eax, 88(%rsp)
	movl	48(%rsp), %eax
	cltd
	idivl	%r13d
	movl	%eax, 92(%rsp)
	movl	52(%rsp), %eax
	cltd
	idivl	%ebp
	movl	%eax, %ebp
	movl	64(%rsp), %eax
	cltd
	idivl	%ebx
	movl	%eax, %ebx
	movl	12(%rsp), %eax
	cltd
	idivl	%r12d
	movl	%eax, %esi
	movl	16(%rsp), %eax
	cltd
	idivl	%ecx
	movl	%eax, 68(%rsp)
	movl	20(%rsp), %eax
	cltd
	idivl	%r11d
	movl	%eax, 72(%rsp)
	movl	24(%rsp), %eax
	cltd
	idivl	%r10d
	movl	%eax, 76(%rsp)
	movl	28(%rsp), %eax
	cltd
	idivl	%r9d
	movl	%eax, 80(%rsp)
	movl	32(%rsp), %eax
	cltd
	idivl	%r8d
	movl	%eax, 84(%rsp)
	movl	36(%rsp), %eax
	cltd
	idivl	%edi
	movl	%eax, %ecx
	movl	40(%rsp), %eax
	cltd
	idivl	%r15d
	movl	%eax, %r14d
	movl	44(%rsp), %eax
	cltd
	idivl	88(%rsp)
	movl	%eax, %r13d
	movl	48(%rsp), %eax
	cltd
	idivl	92(%rsp)
	movl	%eax, %r12d
	movl	52(%rsp), %eax
	cltd
	idivl	%ebp
	movl	%eax, %ebp
	movl	64(%rsp), %eax
	cltd
	idivl	%ebx
	movl	%eax, %ebx
	subq	$1, 56(%rsp)
	movq	56(%rsp), %rax
	cmpq	$-1, %rax
	jne	.L312
	movl	%ecx, %r15d
.L311:
	movl	%esi, %edi
	call	use_int@PLT
	movl	68(%rsp), %edi
	call	use_int@PLT
	movl	72(%rsp), %edi
	call	use_int@PLT
	movl	76(%rsp), %edi
	call	use_int@PLT
	movl	80(%rsp), %edi
	call	use_int@PLT
	movl	84(%rsp), %edi
	call	use_int@PLT
	movl	%r15d, %edi
	call	use_int@PLT
	movl	%r14d, %edi
	call	use_int@PLT
	movl	%r13d, %edi
	call	use_int@PLT
	movl	%r12d, %edi
	call	use_int@PLT
	movl	%ebp, %edi
	call	use_int@PLT
	movl	%ebx, %edi
	call	use_int@PLT
	addq	$104, %rsp
	.cfi_def_cfa_offset 56
	popq	%rbx
	.cfi_def_cfa_offset 48
	popq	%rbp
	.cfi_def_cfa_offset 40
	popq	%r12
	.cfi_def_cfa_offset 32
	popq	%r13
	.cfi_def_cfa_offset 24
	popq	%r14
	.cfi_def_cfa_offset 16
	popq	%r15
	.cfi_def_cfa_offset 8
	ret
	.cfi_endproc
.LFE132:
	.size	integer_div_11, .-integer_div_11
	.globl	integer_div_12
	.type	integer_div_12, @function
integer_div_12:
.LFB133:
	.cfi_startproc
	endbr64
	pushq	%r15
	.cfi_def_cfa_offset 16
	.cfi_offset 15, -16
	pushq	%r14
	.cfi_def_cfa_offset 24
	.cfi_offset 14, -24
	pushq	%r13
	.cfi_def_cfa_offset 32
	.cfi_offset 13, -32
	pushq	%r12
	.cfi_def_cfa_offset 40
	.cfi_offset 12, -40
	pushq	%rbp
	.cfi_def_cfa_offset 48
	.cfi_offset 6, -48
	pushq	%rbx
	.cfi_def_cfa_offset 56
	.cfi_offset 3, -56
	subq	$104, %rsp
	.cfi_def_cfa_offset 160
	movq	%rdi, %rcx
	movq	%rsi, %rax
	movl	12(%rsi), %edx
	leal	37(%rdx), %r15d
	addl	$38, %edx
	sall	$20, %edx
	movl	%edx, 8(%rsp)
	movl	16(%rsi), %edx
	leal	36(%rdx), %r14d
	addl	$37, %edx
	sall	$20, %edx
	movl	%edx, 12(%rsp)
	movl	20(%rsi), %edx
	leal	35(%rdx), %r13d
	addl	$36, %edx
	sall	$20, %edx
	movl	%edx, 16(%rsp)
	movl	24(%rsi), %edx
	leal	34(%rdx), %r12d
	addl	$35, %edx
	sall	$20, %edx
	movl	%edx, 20(%rsp)
	movl	28(%rsi), %edx
	leal	33(%rdx), %ebp
	addl	$34, %edx
	sall	$20, %edx
	movl	%edx, 24(%rsp)
	movl	32(%rsi), %edx
	leal	32(%rdx), %r11d
	movl	%r11d, 72(%rsp)
	addl	$33, %edx
	sall	$20, %edx
	movl	%edx, 28(%rsp)
	movl	36(%rsi), %edx
	leal	31(%rdx), %r10d
	movl	%r10d, 76(%rsp)
	addl	$32, %edx
	sall	$20, %edx
	movl	%edx, 32(%rsp)
	movl	40(%rsi), %edx
	leal	30(%rdx), %r9d
	movl	%r9d, 80(%rsp)
	addl	$31, %edx
	sall	$20, %edx
	movl	%edx, 36(%rsp)
	movl	44(%rsi), %edx
	leal	29(%rdx), %r8d
	movl	%r8d, 84(%rsp)
	addl	$30, %edx
	sall	$20, %edx
	movl	%edx, 40(%rsp)
	movl	48(%rsi), %edx
	leal	28(%rdx), %edi
