	.file	"lib_mem.c"
	.text
	.globl	mem_benchmarks
	.section	.data.rel.local,"aw"
	.align 32
	.type	mem_benchmarks, @object
	.size	mem_benchmarks, 128
mem_benchmarks:
	.quad	mem_benchmark_0
	.quad	mem_benchmark_1
	.quad	mem_benchmark_2
	.quad	mem_benchmark_3
	.quad	mem_benchmark_4
	.quad	mem_benchmark_5
	.quad	mem_benchmark_6
	.quad	mem_benchmark_7
	.quad	mem_benchmark_8
	.quad	mem_benchmark_9
	.quad	mem_benchmark_10
	.quad	mem_benchmark_11
	.quad	mem_benchmark_12
	.quad	mem_benchmark_13
	.quad	mem_benchmark_14
	.quad	mem_benchmark_15
	.local	mem_benchmark_rerun
	.comm	mem_benchmark_rerun,4,4
	.text
	.globl	mem_benchmark_0
	.type	mem_benchmark_0, @function
mem_benchmark_0:
.LFB8:
	.cfi_startproc
	endbr64
	pushq	%rbp
	.cfi_def_cfa_offset 16
	.cfi_offset 6, -16
	movq	%rsp, %rbp
	.cfi_def_cfa_register 6
	pushq	%rbx
	.cfi_offset 3, -24
	movq	%rdi, -32(%rbp)
	movq	%rsi, -40(%rbp)
	movq	-40(%rbp), %rax
	movq	%rax, -16(%rbp)
	movl	mem_benchmark_rerun(%rip), %eax
	testl	%eax, %eax
	je	.L2
	movq	-16(%rbp), %rax
	movq	(%rax), %rdx
	movq	addr_save.153(%rip), %rax
	cmpq	%rax, %rdx
	je	.L3
.L2:
	movq	-16(%rbp), %rax
	movq	16(%rax), %rax
	jmp	.L4
.L3:
	movq	sp0.152(%rip), %rax
.L4:
	movq	%rax, %rbx
	jmp	.L5
.L6:
	movq	(%rbx), %rbx
	movq	(%rbx), %rbx
	movq	(%rbx), %rbx
	movq	(%rbx), %rbx
	movq	(%rbx), %rbx
	movq	(%rbx), %rbx
	movq	(%rbx), %rbx
	movq	(%rbx), %rbx
	movq	(%rbx), %rbx
	movq	(%rbx), %rbx
	movq	(%rbx), %rbx
	movq	(%rbx), %rbx
	movq	(%rbx), %rbx
	movq	(%rbx), %rbx
	movq	(%rbx), %rbx
	movq	(%rbx), %rbx
	movq	(%rbx), %rbx
	movq	(%rbx), %rbx
	movq	(%rbx), %rbx
	movq	(%rbx), %rbx
	movq	(%rbx), %rbx
	movq	(%rbx), %rbx
	movq	(%rbx), %rbx
	movq	(%rbx), %rbx
	movq	(%rbx), %rbx
	movq	(%rbx), %rbx
	movq	(%rbx), %rbx
	movq	(%rbx), %rbx
	movq	(%rbx), %rbx
	movq	(%rbx), %rbx
	movq	(%rbx), %rbx
	movq	(%rbx), %rbx
	movq	(%rbx), %rbx
	movq	(%rbx), %rbx
	movq	(%rbx), %rbx
	movq	(%rbx), %rbx
	movq	(%rbx), %rbx
	movq	(%rbx), %rbx
	movq	(%rbx), %rbx
	movq	(%rbx), %rbx
	movq	(%rbx), %rbx
	movq	(%rbx), %rbx
	movq	(%rbx), %rbx
	movq	(%rbx), %rbx
	movq	(%rbx), %rbx
	movq	(%rbx), %rbx
	movq	(%rbx), %rbx
	movq	(%rbx), %rbx
	movq	(%rbx), %rbx
	movq	(%rbx), %rbx
	movq	(%rbx), %rbx
	movq	(%rbx), %rbx
	movq	(%rbx), %rbx
	movq	(%rbx), %rbx
	movq	(%rbx), %rbx
	movq	(%rbx), %rbx
	movq	(%rbx), %rbx
	movq	(%rbx), %rbx
	movq	(%rbx), %rbx
	movq	(%rbx), %rbx
	movq	(%rbx), %rbx
	movq	(%rbx), %rbx
	movq	(%rbx), %rbx
	movq	(%rbx), %rbx
	movq	(%rbx), %rbx
	movq	(%rbx), %rbx
	movq	(%rbx), %rbx
	movq	(%rbx), %rbx
	movq	(%rbx), %rbx
	movq	(%rbx), %rbx
	movq	(%rbx), %rbx
	movq	(%rbx), %rbx
	movq	(%rbx), %rbx
	movq	(%rbx), %rbx
	movq	(%rbx), %rbx
	movq	(%rbx), %rbx
	movq	(%rbx), %rbx
	movq	(%rbx), %rbx
	movq	(%rbx), %rbx
	movq	(%rbx), %rbx
	movq	(%rbx), %rbx
	movq	(%rbx), %rbx
	movq	(%rbx), %rbx
	movq	(%rbx), %rbx
	movq	(%rbx), %rbx
	movq	(%rbx), %rbx
	movq	(%rbx), %rbx
	movq	(%rbx), %rbx
	movq	(%rbx), %rbx
	movq	(%rbx), %rbx
	movq	(%rbx), %rbx
	movq	(%rbx), %rbx
	movq	(%rbx), %rbx
	movq	(%rbx), %rbx
	movq	(%rbx), %rbx
	movq	(%rbx), %rbx
	movq	(%rbx), %rbx
	movq	(%rbx), %rbx
	movq	(%rbx), %rbx
	movq	(%rbx), %rbx
.L5:
	movq	-32(%rbp), %rax
	leaq	-1(%rax), %rdx
	movq	%rdx, -32(%rbp)
	testq	%rax, %rax
	jne	.L6
	movq	%rbx, sp0.152(%rip)
	movq	-16(%rbp), %rax
	movq	(%rax), %rax
	movq	%rax, addr_save.153(%rip)
	movl	$1, mem_benchmark_rerun(%rip)
	movq	-8(%rbp), %rbx
	leave
	.cfi_def_cfa 7, 8
	ret
	.cfi_endproc
.LFE8:
	.size	mem_benchmark_0, .-mem_benchmark_0
	.globl	mem_benchmark_1
	.type	mem_benchmark_1, @function
mem_benchmark_1:
.LFB9:
	.cfi_startproc
	endbr64
	pushq	%rbp
	.cfi_def_cfa_offset 16
	.cfi_offset 6, -16
	movq	%rsp, %rbp
	.cfi_def_cfa_register 6
	pushq	%r12
	pushq	%rbx
	.cfi_offset 12, -24
	.cfi_offset 3, -32
	movq	%rdi, -40(%rbp)
	movq	%rsi, -48(%rbp)
	movq	-48(%rbp), %rax
	movq	%rax, -24(%rbp)
	movl	mem_benchmark_rerun(%rip), %eax
	testl	%eax, %eax
	je	.L8
	movq	-24(%rbp), %rax
	movq	(%rax), %rdx
	movq	addr_save.151(%rip), %rax
	cmpq	%rax, %rdx
	je	.L9
.L8:
	movq	-24(%rbp), %rax
	movq	16(%rax), %rax
	jmp	.L10
.L9:
	movq	sp0.150(%rip), %rax
.L10:
	movq	%rax, %r12
	movl	mem_benchmark_rerun(%rip), %eax
	testl	%eax, %eax
	je	.L11
	movq	-24(%rbp), %rax
	movq	(%rax), %rdx
	movq	addr_save.151(%rip), %rax
	cmpq	%rax, %rdx
	je	.L12
.L11:
	movq	-24(%rbp), %rax
	movq	24(%rax), %rax
	jmp	.L13
.L12:
	movq	sp1.149(%rip), %rax
.L13:
	movq	%rax, %rbx
	jmp	.L14
.L15:
	movq	(%r12), %r12
	movq	(%rbx), %rbx
	movq	(%r12), %r12
	movq	(%rbx), %rbx
	movq	(%r12), %r12
	movq	(%rbx), %rbx
	movq	(%r12), %r12
	movq	(%rbx), %rbx
	movq	(%r12), %r12
	movq	(%rbx), %rbx
	movq	(%r12), %r12
	movq	(%rbx), %rbx
	movq	(%r12), %r12
	movq	(%rbx), %rbx
	movq	(%r12), %r12
	movq	(%rbx), %rbx
	movq	(%r12), %r12
	movq	(%rbx), %rbx
	movq	(%r12), %r12
	movq	(%rbx), %rbx
	movq	(%r12), %r12
	movq	(%rbx), %rbx
	movq	(%r12), %r12
	movq	(%rbx), %rbx
	movq	(%r12), %r12
	movq	(%rbx), %rbx
	movq	(%r12), %r12
	movq	(%rbx), %rbx
	movq	(%r12), %r12
	movq	(%rbx), %rbx
	movq	(%r12), %r12
	movq	(%rbx), %rbx
	movq	(%r12), %r12
	movq	(%rbx), %rbx
	movq	(%r12), %r12
	movq	(%rbx), %rbx
	movq	(%r12), %r12
	movq	(%rbx), %rbx
	movq	(%r12), %r12
	movq	(%rbx), %rbx
	movq	(%r12), %r12
	movq	(%rbx), %rbx
	movq	(%r12), %r12
	movq	(%rbx), %rbx
	movq	(%r12), %r12
	movq	(%rbx), %rbx
	movq	(%r12), %r12
	movq	(%rbx), %rbx
	movq	(%r12), %r12
	movq	(%rbx), %rbx
	movq	(%r12), %r12
	movq	(%rbx), %rbx
	movq	(%r12), %r12
	movq	(%rbx), %rbx
	movq	(%r12), %r12
	movq	(%rbx), %rbx
	movq	(%r12), %r12
	movq	(%rbx), %rbx
	movq	(%r12), %r12
	movq	(%rbx), %rbx
	movq	(%r12), %r12
	movq	(%rbx), %rbx
	movq	(%r12), %r12
	movq	(%rbx), %rbx
	movq	(%r12), %r12
	movq	(%rbx), %rbx
	movq	(%r12), %r12
	movq	(%rbx), %rbx
	movq	(%r12), %r12
	movq	(%rbx), %rbx
	movq	(%r12), %r12
	movq	(%rbx), %rbx
	movq	(%r12), %r12
	movq	(%rbx), %rbx
	movq	(%r12), %r12
	movq	(%rbx), %rbx
	movq	(%r12), %r12
	movq	(%rbx), %rbx
	movq	(%r12), %r12
	movq	(%rbx), %rbx
	movq	(%r12), %r12
	movq	(%rbx), %rbx
	movq	(%r12), %r12
	movq	(%rbx), %rbx
	movq	(%r12), %r12
	movq	(%rbx), %rbx
	movq	(%r12), %r12
	movq	(%rbx), %rbx
	movq	(%r12), %r12
	movq	(%rbx), %rbx
	movq	(%r12), %r12
	movq	(%rbx), %rbx
	movq	(%r12), %r12
	movq	(%rbx), %rbx
	movq	(%r12), %r12
	movq	(%rbx), %rbx
	movq	(%r12), %r12
	movq	(%rbx), %rbx
	movq	(%r12), %r12
	movq	(%rbx), %rbx
	movq	(%r12), %r12
	movq	(%rbx), %rbx
	movq	(%r12), %r12
	movq	(%rbx), %rbx
	movq	(%r12), %r12
	movq	(%rbx), %rbx
	movq	(%r12), %r12
	movq	(%rbx), %rbx
	movq	(%r12), %r12
	movq	(%rbx), %rbx
	movq	(%r12), %r12
	movq	(%rbx), %rbx
	movq	(%r12), %r12
	movq	(%rbx), %rbx
	movq	(%r12), %r12
	movq	(%rbx), %rbx
	movq	(%r12), %r12
	movq	(%rbx), %rbx
	movq	(%r12), %r12
	movq	(%rbx), %rbx
	movq	(%r12), %r12
	movq	(%rbx), %rbx
	movq	(%r12), %r12
	movq	(%rbx), %rbx
	movq	(%r12), %r12
	movq	(%rbx), %rbx
	movq	(%r12), %r12
	movq	(%rbx), %rbx
	movq	(%r12), %r12
	movq	(%rbx), %rbx
	movq	(%r12), %r12
	movq	(%rbx), %rbx
	movq	(%r12), %r12
	movq	(%rbx), %rbx
	movq	(%r12), %r12
	movq	(%rbx), %rbx
	movq	(%r12), %r12
	movq	(%rbx), %rbx
	movq	(%r12), %r12
	movq	(%rbx), %rbx
	movq	(%r12), %r12
	movq	(%rbx), %rbx
	movq	(%r12), %r12
	movq	(%rbx), %rbx
	movq	(%r12), %r12
	movq	(%rbx), %rbx
	movq	(%r12), %r12
	movq	(%rbx), %rbx
	movq	(%r12), %r12
	movq	(%rbx), %rbx
	movq	(%r12), %r12
	movq	(%rbx), %rbx
	movq	(%r12), %r12
	movq	(%rbx), %rbx
	movq	(%r12), %r12
	movq	(%rbx), %rbx
	movq	(%r12), %r12
	movq	(%rbx), %rbx
	movq	(%r12), %r12
	movq	(%rbx), %rbx
	movq	(%r12), %r12
	movq	(%rbx), %rbx
	movq	(%r12), %r12
	movq	(%rbx), %rbx
	movq	(%r12), %r12
	movq	(%rbx), %rbx
	movq	(%r12), %r12
	movq	(%rbx), %rbx
	movq	(%r12), %r12
	movq	(%rbx), %rbx
	movq	(%r12), %r12
	movq	(%rbx), %rbx
	movq	(%r12), %r12
	movq	(%rbx), %rbx
	movq	(%r12), %r12
	movq	(%rbx), %rbx
	movq	(%r12), %r12
	movq	(%rbx), %rbx
	movq	(%r12), %r12
	movq	(%rbx), %rbx
	movq	(%r12), %r12
	movq	(%rbx), %rbx
	movq	(%r12), %r12
	movq	(%rbx), %rbx
	movq	(%r12), %r12
	movq	(%rbx), %rbx
	movq	(%r12), %r12
	movq	(%rbx), %rbx
	movq	(%r12), %r12
	movq	(%rbx), %rbx
	movq	(%r12), %r12
	movq	(%rbx), %rbx
	movq	(%r12), %r12
	movq	(%rbx), %rbx
	movq	(%r12), %r12
	movq	(%rbx), %rbx
	movq	(%r12), %r12
	movq	(%rbx), %rbx
	movq	(%r12), %r12
	movq	(%rbx), %rbx
.L14:
	movq	-40(%rbp), %rax
	leaq	-1(%rax), %rdx
	movq	%rdx, -40(%rbp)
	testq	%rax, %rax
	jne	.L15
	movq	%r12, sp0.150(%rip)
	movq	%rbx, sp1.149(%rip)
	movq	-24(%rbp), %rax
	movq	(%rax), %rax
	movq	%rax, addr_save.151(%rip)
	movl	$1, mem_benchmark_rerun(%rip)
	popq	%rbx
	popq	%r12
	popq	%rbp
	.cfi_def_cfa 7, 8
	ret
	.cfi_endproc
.LFE9:
	.size	mem_benchmark_1, .-mem_benchmark_1
	.globl	mem_benchmark_2
	.type	mem_benchmark_2, @function
mem_benchmark_2:
.LFB10:
	.cfi_startproc
	endbr64
	pushq	%rbp
	.cfi_def_cfa_offset 16
	.cfi_offset 6, -16
	movq	%rsp, %rbp
	.cfi_def_cfa_register 6
	pushq	%r13
	pushq	%r12
	pushq	%rbx
	.cfi_offset 13, -24
	.cfi_offset 12, -32
	.cfi_offset 3, -40
	movq	%rdi, -48(%rbp)
	movq	%rsi, -56(%rbp)
	movq	-56(%rbp), %rax
	movq	%rax, -32(%rbp)
	movl	mem_benchmark_rerun(%rip), %eax
	testl	%eax, %eax
	je	.L17
	movq	-32(%rbp), %rax
	movq	(%rax), %rdx
	movq	addr_save.148(%rip), %rax
	cmpq	%rax, %rdx
	je	.L18
.L17:
	movq	-32(%rbp), %rax
	movq	16(%rax), %rax
	jmp	.L19
.L18:
	movq	sp0.147(%rip), %rax
.L19:
	movq	%rax, %r13
	movl	mem_benchmark_rerun(%rip), %eax
	testl	%eax, %eax
	je	.L20
	movq	-32(%rbp), %rax
	movq	(%rax), %rdx
	movq	addr_save.148(%rip), %rax
	cmpq	%rax, %rdx
	je	.L21
.L20:
	movq	-32(%rbp), %rax
	movq	24(%rax), %rax
	jmp	.L22
.L21:
	movq	sp1.146(%rip), %rax
.L22:
	movq	%rax, %r12
	movl	mem_benchmark_rerun(%rip), %eax
	testl	%eax, %eax
	je	.L23
	movq	-32(%rbp), %rax
	movq	(%rax), %rdx
	movq	addr_save.148(%rip), %rax
	cmpq	%rax, %rdx
	je	.L24
.L23:
	movq	-32(%rbp), %rax
	movq	32(%rax), %rax
	jmp	.L25
.L24:
	movq	sp2.145(%rip), %rax
.L25:
	movq	%rax, %rbx
	jmp	.L26
.L27:
	movq	0(%r13), %r13
	movq	(%r12), %r12
	movq	(%rbx), %rbx
	movq	0(%r13), %r13
	movq	(%r12), %r12
	movq	(%rbx), %rbx
	movq	0(%r13), %r13
	movq	(%r12), %r12
	movq	(%rbx), %rbx
	movq	0(%r13), %r13
	movq	(%r12), %r12
	movq	(%rbx), %rbx
	movq	0(%r13), %r13
	movq	(%r12), %r12
	movq	(%rbx), %rbx
	movq	0(%r13), %r13
	movq	(%r12), %r12
	movq	(%rbx), %rbx
	movq	0(%r13), %r13
	movq	(%r12), %r12
	movq	(%rbx), %rbx
	movq	0(%r13), %r13
	movq	(%r12), %r12
	movq	(%rbx), %rbx
	movq	0(%r13), %r13
	movq	(%r12), %r12
	movq	(%rbx), %rbx
	movq	0(%r13), %r13
	movq	(%r12), %r12
	movq	(%rbx), %rbx
	movq	0(%r13), %r13
	movq	(%r12), %r12
	movq	(%rbx), %rbx
	movq	0(%r13), %r13
	movq	(%r12), %r12
	movq	(%rbx), %rbx
	movq	0(%r13), %r13
	movq	(%r12), %r12
	movq	(%rbx), %rbx
	movq	0(%r13), %r13
	movq	(%r12), %r12
	movq	(%rbx), %rbx
	movq	0(%r13), %r13
	movq	(%r12), %r12
	movq	(%rbx), %rbx
	movq	0(%r13), %r13
	movq	(%r12), %r12
	movq	(%rbx), %rbx
	movq	0(%r13), %r13
	movq	(%r12), %r12
	movq	(%rbx), %rbx
	movq	0(%r13), %r13
	movq	(%r12), %r12
	movq	(%rbx), %rbx
	movq	0(%r13), %r13
	movq	(%r12), %r12
	movq	(%rbx), %rbx
	movq	0(%r13), %r13
	movq	(%r12), %r12
	movq	(%rbx), %rbx
	movq	0(%r13), %r13
	movq	(%r12), %r12
	movq	(%rbx), %rbx
	movq	0(%r13), %r13
	movq	(%r12), %r12
	movq	(%rbx), %rbx
	movq	0(%r13), %r13
	movq	(%r12), %r12
	movq	(%rbx), %rbx
	movq	0(%r13), %r13
	movq	(%r12), %r12
	movq	(%rbx), %rbx
	movq	0(%r13), %r13
	movq	(%r12), %r12
	movq	(%rbx), %rbx
	movq	0(%r13), %r13
	movq	(%r12), %r12
	movq	(%rbx), %rbx
	movq	0(%r13), %r13
	movq	(%r12), %r12
	movq	(%rbx), %rbx
	movq	0(%r13), %r13
	movq	(%r12), %r12
	movq	(%rbx), %rbx
	movq	0(%r13), %r13
	movq	(%r12), %r12
	movq	(%rbx), %rbx
	movq	0(%r13), %r13
	movq	(%r12), %r12
	movq	(%rbx), %rbx
	movq	0(%r13), %r13
	movq	(%r12), %r12
	movq	(%rbx), %rbx
	movq	0(%r13), %r13
	movq	(%r12), %r12
	movq	(%rbx), %rbx
	movq	0(%r13), %r13
	movq	(%r12), %r12
	movq	(%rbx), %rbx
	movq	0(%r13), %r13
	movq	(%r12), %r12
	movq	(%rbx), %rbx
	movq	0(%r13), %r13
	movq	(%r12), %r12
	movq	(%rbx), %rbx
	movq	0(%r13), %r13
	movq	(%r12), %r12
	movq	(%rbx), %rbx
	movq	0(%r13), %r13
	movq	(%r12), %r12
	movq	(%rbx), %rbx
	movq	0(%r13), %r13
	movq	(%r12), %r12
	movq	(%rbx), %rbx
	movq	0(%r13), %r13
	movq	(%r12), %r12
	movq	(%rbx), %rbx
	movq	0(%r13), %r13
	movq	(%r12), %r12
	movq	(%rbx), %rbx
	movq	0(%r13), %r13
	movq	(%r12), %r12
	movq	(%rbx), %rbx
	movq	0(%r13), %r13
	movq	(%r12), %r12
	movq	(%rbx), %rbx
	movq	0(%r13), %r13
	movq	(%r12), %r12
	movq	(%rbx), %rbx
	movq	0(%r13), %r13
	movq	(%r12), %r12
	movq	(%rbx), %rbx
	movq	0(%r13), %r13
	movq	(%r12), %r12
	movq	(%rbx), %rbx
	movq	0(%r13), %r13
	movq	(%r12), %r12
	movq	(%rbx), %rbx
	movq	0(%r13), %r13
	movq	(%r12), %r12
	movq	(%rbx), %rbx
	movq	0(%r13), %r13
	movq	(%r12), %r12
	movq	(%rbx), %rbx
	movq	0(%r13), %r13
	movq	(%r12), %r12
	movq	(%rbx), %rbx
	movq	0(%r13), %r13
	movq	(%r12), %r12
	movq	(%rbx), %rbx
	movq	0(%r13), %r13
	movq	(%r12), %r12
	movq	(%rbx), %rbx
	movq	0(%r13), %r13
	movq	(%r12), %r12
	movq	(%rbx), %rbx
	movq	0(%r13), %r13
	movq	(%r12), %r12
	movq	(%rbx), %rbx
	movq	0(%r13), %r13
	movq	(%r12), %r12
	movq	(%rbx), %rbx
	movq	0(%r13), %r13
	movq	(%r12), %r12
	movq	(%rbx), %rbx
	movq	0(%r13), %r13
	movq	(%r12), %r12
	movq	(%rbx), %rbx
	movq	0(%r13), %r13
	movq	(%r12), %r12
	movq	(%rbx), %rbx
	movq	0(%r13), %r13
	movq	(%r12), %r12
	movq	(%rbx), %rbx
	movq	0(%r13), %r13
	movq	(%r12), %r12
	movq	(%rbx), %rbx
	movq	0(%r13), %r13
	movq	(%r12), %r12
	movq	(%rbx), %rbx
	movq	0(%r13), %r13
	movq	(%r12), %r12
	movq	(%rbx), %rbx
	movq	0(%r13), %r13
	movq	(%r12), %r12
	movq	(%rbx), %rbx
	movq	0(%r13), %r13
	movq	(%r12), %r12
	movq	(%rbx), %rbx
	movq	0(%r13), %r13
	movq	(%r12), %r12
	movq	(%rbx), %rbx
	movq	0(%r13), %r13
	movq	(%r12), %r12
	movq	(%rbx), %rbx
	movq	0(%r13), %r13
	movq	(%r12), %r12
	movq	(%rbx), %rbx
	movq	0(%r13), %r13
	movq	(%r12), %r12
	movq	(%rbx), %rbx
	movq	0(%r13), %r13
	movq	(%r12), %r12
	movq	(%rbx), %rbx
	movq	0(%r13), %r13
	movq	(%r12), %r12
	movq	(%rbx), %rbx
	movq	0(%r13), %r13
	movq	(%r12), %r12
	movq	(%rbx), %rbx
	movq	0(%r13), %r13
	movq	(%r12), %r12
	movq	(%rbx), %rbx
	movq	0(%r13), %r13
	movq	(%r12), %r12
	movq	(%rbx), %rbx
	movq	0(%r13), %r13
	movq	(%r12), %r12
	movq	(%rbx), %rbx
	movq	0(%r13), %r13
	movq	(%r12), %r12
	movq	(%rbx), %rbx
	movq	0(%r13), %r13
	movq	(%r12), %r12
	movq	(%rbx), %rbx
	movq	0(%r13), %r13
	movq	(%r12), %r12
	movq	(%rbx), %rbx
	movq	0(%r13), %r13
	movq	(%r12), %r12
	movq	(%rbx), %rbx
	movq	0(%r13), %r13
	movq	(%r12), %r12
	movq	(%rbx), %rbx
	movq	0(%r13), %r13
	movq	(%r12), %r12
	movq	(%rbx), %rbx
	movq	0(%r13), %r13
	movq	(%r12), %r12
	movq	(%rbx), %rbx
	movq	0(%r13), %r13
	movq	(%r12), %r12
	movq	(%rbx), %rbx
	movq	0(%r13), %r13
	movq	(%r12), %r12
	movq	(%rbx), %rbx
	movq	0(%r13), %r13
	movq	(%r12), %r12
	movq	(%rbx), %rbx
	movq	0(%r13), %r13
	movq	(%r12), %r12
	movq	(%rbx), %rbx
	movq	0(%r13), %r13
	movq	(%r12), %r12
	movq	(%rbx), %rbx
	movq	0(%r13), %r13
	movq	(%r12), %r12
	movq	(%rbx), %rbx
	movq	0(%r13), %r13
	movq	(%r12), %r12
	movq	(%rbx), %rbx
	movq	0(%r13), %r13
	movq	(%r12), %r12
	movq	(%rbx), %rbx
	movq	0(%r13), %r13
	movq	(%r12), %r12
	movq	(%rbx), %rbx
	movq	0(%r13), %r13
	movq	(%r12), %r12
	movq	(%rbx), %rbx
	movq	0(%r13), %r13
	movq	(%r12), %r12
	movq	(%rbx), %rbx
	movq	0(%r13), %r13
	movq	(%r12), %r12
	movq	(%rbx), %rbx
	movq	0(%r13), %r13
	movq	(%r12), %r12
	movq	(%rbx), %rbx
	movq	0(%r13), %r13
	movq	(%r12), %r12
	movq	(%rbx), %rbx
	movq	0(%r13), %r13
	movq	(%r12), %r12
	movq	(%rbx), %rbx
	movq	0(%r13), %r13
	movq	(%r12), %r12
	movq	(%rbx), %rbx
	movq	0(%r13), %r13
	movq	(%r12), %r12
	movq	(%rbx), %rbx
	movq	0(%r13), %r13
	movq	(%r12), %r12
	movq	(%rbx), %rbx
	movq	0(%r13), %r13
	movq	(%r12), %r12
	movq	(%rbx), %rbx
	movq	0(%r13), %r13
	movq	(%r12), %r12
	movq	(%rbx), %rbx
.L26:
	movq	-48(%rbp), %rax
	leaq	-1(%rax), %rdx
	movq	%rdx, -48(%rbp)
	testq	%rax, %rax
	jne	.L27
	movq	%r13, sp0.147(%rip)
	movq	%r12, sp1.146(%rip)
	movq	%rbx, sp2.145(%rip)
	movq	-32(%rbp), %rax
	movq	(%rax), %rax
	movq	%rax, addr_save.148(%rip)
	movl	$1, mem_benchmark_rerun(%rip)
	popq	%rbx
	popq	%r12
	popq	%r13
	popq	%rbp
	.cfi_def_cfa 7, 8
	ret
	.cfi_endproc
.LFE10:
	.size	mem_benchmark_2, .-mem_benchmark_2
	.globl	mem_benchmark_3
	.type	mem_benchmark_3, @function
mem_benchmark_3:
.LFB11:
	.cfi_startproc
	endbr64
	pushq	%rbp
	.cfi_def_cfa_offset 16
	.cfi_offset 6, -16
	movq	%rsp, %rbp
	.cfi_def_cfa_register 6
	pushq	%r14
	pushq	%r13
	pushq	%r12
	pushq	%rbx
	.cfi_offset 14, -24
	.cfi_offset 13, -32
	.cfi_offset 12, -40
	.cfi_offset 3, -48
	movq	%rdi, -56(%rbp)
	movq	%rsi, -64(%rbp)
	movq	-64(%rbp), %rax
	movq	%rax, -40(%rbp)
	movl	mem_benchmark_rerun(%rip), %eax
	testl	%eax, %eax
	je	.L29
	movq	-40(%rbp), %rax
	movq	(%rax), %rdx
	movq	addr_save.144(%rip), %rax
	cmpq	%rax, %rdx
	je	.L30
.L29:
	movq	-40(%rbp), %rax
	movq	16(%rax), %rax
	jmp	.L31
.L30:
	movq	sp0.143(%rip), %rax
.L31:
	movq	%rax, %r14
	movl	mem_benchmark_rerun(%rip), %eax
	testl	%eax, %eax
	je	.L32
	movq	-40(%rbp), %rax
	movq	(%rax), %rdx
	movq	addr_save.144(%rip), %rax
	cmpq	%rax, %rdx
	je	.L33
.L32:
	movq	-40(%rbp), %rax
	movq	24(%rax), %rax
	jmp	.L34
.L33:
	movq	sp1.142(%rip), %rax
.L34:
	movq	%rax, %r13
	movl	mem_benchmark_rerun(%rip), %eax
	testl	%eax, %eax
	je	.L35
	movq	-40(%rbp), %rax
	movq	(%rax), %rdx
	movq	addr_save.144(%rip), %rax
	cmpq	%rax, %rdx
	je	.L36
.L35:
	movq	-40(%rbp), %rax
	movq	32(%rax), %rax
	jmp	.L37
.L36:
	movq	sp2.141(%rip), %rax
.L37:
	movq	%rax, %r12
	movl	mem_benchmark_rerun(%rip), %eax
	testl	%eax, %eax
	je	.L38
	movq	-40(%rbp), %rax
	movq	(%rax), %rdx
	movq	addr_save.144(%rip), %rax
	cmpq	%rax, %rdx
	je	.L39
.L38:
	movq	-40(%rbp), %rax
	movq	40(%rax), %rax
	jmp	.L40
.L39:
	movq	sp3.140(%rip), %rax
.L40:
	movq	%rax, %rbx
	jmp	.L41
.L42:
	movq	(%r14), %r14
	movq	0(%r13), %r13
	movq	(%r12), %r12
	movq	(%rbx), %rbx
	movq	(%r14), %r14
	movq	0(%r13), %r13
	movq	(%r12), %r12
	movq	(%rbx), %rbx
	movq	(%r14), %r14
	movq	0(%r13), %r13
	movq	(%r12), %r12
	movq	(%rbx), %rbx
	movq	(%r14), %r14
	movq	0(%r13), %r13
	movq	(%r12), %r12
	movq	(%rbx), %rbx
	movq	(%r14), %r14
	movq	0(%r13), %r13
	movq	(%r12), %r12
	movq	(%rbx), %rbx
	movq	(%r14), %r14
	movq	0(%r13), %r13
	movq	(%r12), %r12
	movq	(%rbx), %rbx
	movq	(%r14), %r14
	movq	0(%r13), %r13
	movq	(%r12), %r12
	movq	(%rbx), %rbx
	movq	(%r14), %r14
	movq	0(%r13), %r13
	movq	(%r12), %r12
	movq	(%rbx), %rbx
	movq	(%r14), %r14
	movq	0(%r13), %r13
	movq	(%r12), %r12
	movq	(%rbx), %rbx
	movq	(%r14), %r14
	movq	0(%r13), %r13
	movq	(%r12), %r12
	movq	(%rbx), %rbx
	movq	(%r14), %r14
	movq	0(%r13), %r13
	movq	(%r12), %r12
	movq	(%rbx), %rbx
	movq	(%r14), %r14
	movq	0(%r13), %r13
	movq	(%r12), %r12
	movq	(%rbx), %rbx
	movq	(%r14), %r14
	movq	0(%r13), %r13
	movq	(%r12), %r12
	movq	(%rbx), %rbx
	movq	(%r14), %r14
	movq	0(%r13), %r13
	movq	(%r12), %r12
	movq	(%rbx), %rbx
	movq	(%r14), %r14
	movq	0(%r13), %r13
	movq	(%r12), %r12
	movq	(%rbx), %rbx
	movq	(%r14), %r14
	movq	0(%r13), %r13
	movq	(%r12), %r12
	movq	(%rbx), %rbx
	movq	(%r14), %r14
	movq	0(%r13), %r13
	movq	(%r12), %r12
	movq	(%rbx), %rbx
	movq	(%r14), %r14
	movq	0(%r13), %r13
	movq	(%r12), %r12
	movq	(%rbx), %rbx
	movq	(%r14), %r14
	movq	0(%r13), %r13
	movq	(%r12), %r12
	movq	(%rbx), %rbx
	movq	(%r14), %r14
	movq	0(%r13), %r13
	movq	(%r12), %r12
	movq	(%rbx), %rbx
	movq	(%r14), %r14
	movq	0(%r13), %r13
	movq	(%r12), %r12
	movq	(%rbx), %rbx
	movq	(%r14), %r14
	movq	0(%r13), %r13
	movq	(%r12), %r12
	movq	(%rbx), %rbx
	movq	(%r14), %r14
	movq	0(%r13), %r13
	movq	(%r12), %r12
	movq	(%rbx), %rbx
	movq	(%r14), %r14
	movq	0(%r13), %r13
	movq	(%r12), %r12
	movq	(%rbx), %rbx
	movq	(%r14), %r14
	movq	0(%r13), %r13
	movq	(%r12), %r12
	movq	(%rbx), %rbx
	movq	(%r14), %r14
	movq	0(%r13), %r13
	movq	(%r12), %r12
	movq	(%rbx), %rbx
	movq	(%r14), %r14
	movq	0(%r13), %r13
	movq	(%r12), %r12
	movq	(%rbx), %rbx
	movq	(%r14), %r14
	movq	0(%r13), %r13
	movq	(%r12), %r12
	movq	(%rbx), %rbx
	movq	(%r14), %r14
	movq	0(%r13), %r13
	movq	(%r12), %r12
	movq	(%rbx), %rbx
	movq	(%r14), %r14
	movq	0(%r13), %r13
	movq	(%r12), %r12
	movq	(%rbx), %rbx
	movq	(%r14), %r14
	movq	0(%r13), %r13
	movq	(%r12), %r12
	movq	(%rbx), %rbx
	movq	(%r14), %r14
	movq	0(%r13), %r13
	movq	(%r12), %r12
	movq	(%rbx), %rbx
	movq	(%r14), %r14
	movq	0(%r13), %r13
	movq	(%r12), %r12
	movq	(%rbx), %rbx
	movq	(%r14), %r14
	movq	0(%r13), %r13
	movq	(%r12), %r12
	movq	(%rbx), %rbx
	movq	(%r14), %r14
	movq	0(%r13), %r13
	movq	(%r12), %r12
	movq	(%rbx), %rbx
	movq	(%r14), %r14
	movq	0(%r13), %r13
	movq	(%r12), %r12
	movq	(%rbx), %rbx
	movq	(%r14), %r14
	movq	0(%r13), %r13
	movq	(%r12), %r12
	movq	(%rbx), %rbx
	movq	(%r14), %r14
	movq	0(%r13), %r13
	movq	(%r12), %r12
	movq	(%rbx), %rbx
	movq	(%r14), %r14
	movq	0(%r13), %r13
	movq	(%r12), %r12
	movq	(%rbx), %rbx
	movq	(%r14), %r14
	movq	0(%r13), %r13
	movq	(%r12), %r12
	movq	(%rbx), %rbx
	movq	(%r14), %r14
	movq	0(%r13), %r13
	movq	(%r12), %r12
	movq	(%rbx), %rbx
	movq	(%r14), %r14
	movq	0(%r13), %r13
	movq	(%r12), %r12
	movq	(%rbx), %rbx
	movq	(%r14), %r14
	movq	0(%r13), %r13
	movq	(%r12), %r12
	movq	(%rbx), %rbx
	movq	(%r14), %r14
	movq	0(%r13), %r13
	movq	(%r12), %r12
	movq	(%rbx), %rbx
	movq	(%r14), %r14
	movq	0(%r13), %r13
	movq	(%r12), %r12
	movq	(%rbx), %rbx
	movq	(%r14), %r14
	movq	0(%r13), %r13
	movq	(%r12), %r12
	movq	(%rbx), %rbx
	movq	(%r14), %r14
	movq	0(%r13), %r13
	movq	(%r12), %r12
	movq	(%rbx), %rbx
	movq	(%r14), %r14
	movq	0(%r13), %r13
	movq	(%r12), %r12
	movq	(%rbx), %rbx
	movq	(%r14), %r14
	movq	0(%r13), %r13
	movq	(%r12), %r12
	movq	(%rbx), %rbx
	movq	(%r14), %r14
	movq	0(%r13), %r13
	movq	(%r12), %r12
	movq	(%rbx), %rbx
	movq	(%r14), %r14
	movq	0(%r13), %r13
	movq	(%r12), %r12
	movq	(%rbx), %rbx
	movq	(%r14), %r14
	movq	0(%r13), %r13
	movq	(%r12), %r12
	movq	(%rbx), %rbx
	movq	(%r14), %r14
	movq	0(%r13), %r13
	movq	(%r12), %r12
	movq	(%rbx), %rbx
	movq	(%r14), %r14
	movq	0(%r13), %r13
	movq	(%r12), %r12
	movq	(%rbx), %rbx
	movq	(%r14), %r14
	movq	0(%r13), %r13
	movq	(%r12), %r12
	movq	(%rbx), %rbx
	movq	(%r14), %r14
	movq	0(%r13), %r13
	movq	(%r12), %r12
	movq	(%rbx), %rbx
	movq	(%r14), %r14
	movq	0(%r13), %r13
	movq	(%r12), %r12
	movq	(%rbx), %rbx
	movq	(%r14), %r14
	movq	0(%r13), %r13
	movq	(%r12), %r12
	movq	(%rbx), %rbx
	movq	(%r14), %r14
	movq	0(%r13), %r13
	movq	(%r12), %r12
	movq	(%rbx), %rbx
	movq	(%r14), %r14
	movq	0(%r13), %r13
	movq	(%r12), %r12
	movq	(%rbx), %rbx
	movq	(%r14), %r14
	movq	0(%r13), %r13
	movq	(%r12), %r12
	movq	(%rbx), %rbx
	movq	(%r14), %r14
	movq	0(%r13), %r13
	movq	(%r12), %r12
	movq	(%rbx), %rbx
	movq	(%r14), %r14
	movq	0(%r13), %r13
	movq	(%r12), %r12
	movq	(%rbx), %rbx
	movq	(%r14), %r14
	movq	0(%r13), %r13
	movq	(%r12), %r12
	movq	(%rbx), %rbx
	movq	(%r14), %r14
	movq	0(%r13), %r13
	movq	(%r12), %r12
	movq	(%rbx), %rbx
	movq	(%r14), %r14
	movq	0(%r13), %r13
	movq	(%r12), %r12
	movq	(%rbx), %rbx
	movq	(%r14), %r14
	movq	0(%r13), %r13
	movq	(%r12), %r12
	movq	(%rbx), %rbx
	movq	(%r14), %r14
	movq	0(%r13), %r13
	movq	(%r12), %r12
	movq	(%rbx), %rbx
	movq	(%r14), %r14
	movq	0(%r13), %r13
	movq	(%r12), %r12
	movq	(%rbx), %rbx
	movq	(%r14), %r14
	movq	0(%r13), %r13
	movq	(%r12), %r12
	movq	(%rbx), %rbx
	movq	(%r14), %r14
	movq	0(%r13), %r13
	movq	(%r12), %r12
	movq	(%rbx), %rbx
	movq	(%r14), %r14
	movq	0(%r13), %r13
	movq	(%r12), %r12
	movq	(%rbx), %rbx
	movq	(%r14), %r14
	movq	0(%r13), %r13
	movq	(%r12), %r12
	movq	(%rbx), %rbx
	movq	(%r14), %r14
	movq	0(%r13), %r13
	movq	(%r12), %r12
	movq	(%rbx), %rbx
	movq	(%r14), %r14
	movq	0(%r13), %r13
	movq	(%r12), %r12
	movq	(%rbx), %rbx
	movq	(%r14), %r14
	movq	0(%r13), %r13
	movq	(%r12), %r12
	movq	(%rbx), %rbx
	movq	(%r14), %r14
	movq	0(%r13), %r13
	movq	(%r12), %r12
	movq	(%rbx), %rbx
	movq	(%r14), %r14
	movq	0(%r13), %r13
	movq	(%r12), %r12
	movq	(%rbx), %rbx
	movq	(%r14), %r14
	movq	0(%r13), %r13
	movq	(%r12), %r12
	movq	(%rbx), %rbx
	movq	(%r14), %r14
	movq	0(%r13), %r13
	movq	(%r12), %r12
	movq	(%rbx), %rbx
	movq	(%r14), %r14
	movq	0(%r13), %r13
	movq	(%r12), %r12
	movq	(%rbx), %rbx
	movq	(%r14), %r14
	movq	0(%r13), %r13
	movq	(%r12), %r12
	movq	(%rbx), %rbx
	movq	(%r14), %r14
	movq	0(%r13), %r13
	movq	(%r12), %r12
	movq	(%rbx), %rbx
	movq	(%r14), %r14
	movq	0(%r13), %r13
	movq	(%r12), %r12
	movq	(%rbx), %rbx
	movq	(%r14), %r14
	movq	0(%r13), %r13
	movq	(%r12), %r12
	movq	(%rbx), %rbx
	movq	(%r14), %r14
	movq	0(%r13), %r13
	movq	(%r12), %r12
	movq	(%rbx), %rbx
	movq	(%r14), %r14
	movq	0(%r13), %r13
	movq	(%r12), %r12
	movq	(%rbx), %rbx
	movq	(%r14), %r14
	movq	0(%r13), %r13
	movq	(%r12), %r12
	movq	(%rbx), %rbx
	movq	(%r14), %r14
	movq	0(%r13), %r13
	movq	(%r12), %r12
	movq	(%rbx), %rbx
	movq	(%r14), %r14
	movq	0(%r13), %r13
	movq	(%r12), %r12
	movq	(%rbx), %rbx
	movq	(%r14), %r14
	movq	0(%r13), %r13
	movq	(%r12), %r12
	movq	(%rbx), %rbx
	movq	(%r14), %r14
	movq	0(%r13), %r13
	movq	(%r12), %r12
	movq	(%rbx), %rbx
	movq	(%r14), %r14
	movq	0(%r13), %r13
	movq	(%r12), %r12
	movq	(%rbx), %rbx
	movq	(%r14), %r14
	movq	0(%r13), %r13
	movq	(%r12), %r12
	movq	(%rbx), %rbx
	movq	(%r14), %r14
	movq	0(%r13), %r13
	movq	(%r12), %r12
	movq	(%rbx), %rbx
	movq	(%r14), %r14
	movq	0(%r13), %r13
	movq	(%r12), %r12
	movq	(%rbx), %rbx
	movq	(%r14), %r14
	movq	0(%r13), %r13
	movq	(%r12), %r12
	movq	(%rbx), %rbx
	movq	(%r14), %r14
	movq	0(%r13), %r13
	movq	(%r12), %r12
	movq	(%rbx), %rbx
	movq	(%r14), %r14
	movq	0(%r13), %r13
	movq	(%r12), %r12
	movq	(%rbx), %rbx
	movq	(%r14), %r14
	movq	0(%r13), %r13
	movq	(%r12), %r12
	movq	(%rbx), %rbx
.L41:
	movq	-56(%rbp), %rax
	leaq	-1(%rax), %rdx
	movq	%rdx, -56(%rbp)
	testq	%rax, %rax
	jne	.L42
	movq	%r14, sp0.143(%rip)
	movq	%r13, sp1.142(%rip)
	movq	%r12, sp2.141(%rip)
	movq	%rbx, sp3.140(%rip)
	movq	-40(%rbp), %rax
	movq	(%rax), %rax
	movq	%rax, addr_save.144(%rip)
	movl	$1, mem_benchmark_rerun(%rip)
	popq	%rbx
	popq	%r12
	popq	%r13
	popq	%r14
	popq	%rbp
	.cfi_def_cfa 7, 8
	ret
	.cfi_endproc
.LFE11:
	.size	mem_benchmark_3, .-mem_benchmark_3
	.globl	mem_benchmark_4
	.type	mem_benchmark_4, @function
mem_benchmark_4:
.LFB12:
	.cfi_startproc
	endbr64
	pushq	%rbp
	.cfi_def_cfa_offset 16
	.cfi_offset 6, -16
	movq	%rsp, %rbp
	.cfi_def_cfa_register 6
	pushq	%r15
	pushq	%r14
	pushq	%r13
	pushq	%r12
	pushq	%rbx
	.cfi_offset 15, -24
	.cfi_offset 14, -32
	.cfi_offset 13, -40
	.cfi_offset 12, -48
	.cfi_offset 3, -56
	movq	%rdi, -64(%rbp)
	movq	%rsi, -72(%rbp)
	movq	-72(%rbp), %rax
	movq	%rax, -48(%rbp)
	movl	mem_benchmark_rerun(%rip), %eax
	testl	%eax, %eax
	je	.L44
	movq	-48(%rbp), %rax
	movq	(%rax), %rdx
	movq	addr_save.139(%rip), %rax
	cmpq	%rax, %rdx
	je	.L45
.L44:
	movq	-48(%rbp), %rax
	movq	16(%rax), %rax
	jmp	.L46
.L45:
	movq	sp0.138(%rip), %rax
.L46:
	movq	%rax, %r15
	movl	mem_benchmark_rerun(%rip), %eax
	testl	%eax, %eax
	je	.L47
	movq	-48(%rbp), %rax
	movq	(%rax), %rdx
	movq	addr_save.139(%rip), %rax
	cmpq	%rax, %rdx
	je	.L48
.L47:
	movq	-48(%rbp), %rax
	movq	24(%rax), %rax
	jmp	.L49
.L48:
	movq	sp1.137(%rip), %rax
.L49:
	movq	%rax, %r14
	movl	mem_benchmark_rerun(%rip), %eax
	testl	%eax, %eax
	je	.L50
	movq	-48(%rbp), %rax
	movq	(%rax), %rdx
	movq	addr_save.139(%rip), %rax
	cmpq	%rax, %rdx
	je	.L51
.L50:
	movq	-48(%rbp), %rax
	movq	32(%rax), %rax
	jmp	.L52
.L51:
	movq	sp2.136(%rip), %rax
.L52:
	movq	%rax, %r13
	movl	mem_benchmark_rerun(%rip), %eax
	testl	%eax, %eax
	je	.L53
	movq	-48(%rbp), %rax
	movq	(%rax), %rdx
	movq	addr_save.139(%rip), %rax
	cmpq	%rax, %rdx
	je	.L54
.L53:
	movq	-48(%rbp), %rax
	movq	40(%rax), %rax
	jmp	.L55
.L54:
	movq	sp3.135(%rip), %rax
.L55:
	movq	%rax, %r12
	movl	mem_benchmark_rerun(%rip), %eax
	testl	%eax, %eax
	je	.L56
	movq	-48(%rbp), %rax
	movq	(%rax), %rdx
	movq	addr_save.139(%rip), %rax
	cmpq	%rax, %rdx
	je	.L57
.L56:
	movq	-48(%rbp), %rax
	movq	48(%rax), %rax
	jmp	.L58
.L57:
	movq	sp4.134(%rip), %rax
.L58:
	movq	%rax, %rbx
	jmp	.L59
.L60:
	movq	(%r15), %r15
	movq	(%r14), %r14
	movq	0(%r13), %r13
	movq	(%r12), %r12
	movq	(%rbx), %rbx
	movq	(%r15), %r15
	movq	(%r14), %r14
	movq	0(%r13), %r13
	movq	(%r12), %r12
	movq	(%rbx), %rbx
	movq	(%r15), %r15
	movq	(%r14), %r14
	movq	0(%r13), %r13
	movq	(%r12), %r12
	movq	(%rbx), %rbx
	movq	(%r15), %r15
	movq	(%r14), %r14
	movq	0(%r13), %r13
	movq	(%r12), %r12
	movq	(%rbx), %rbx
	movq	(%r15), %r15
	movq	(%r14), %r14
	movq	0(%r13), %r13
	movq	(%r12), %r12
	movq	(%rbx), %rbx
	movq	(%r15), %r15
	movq	(%r14), %r14
	movq	0(%r13), %r13
	movq	(%r12), %r12
	movq	(%rbx), %rbx
	movq	(%r15), %r15
	movq	(%r14), %r14
	movq	0(%r13), %r13
	movq	(%r12), %r12
	movq	(%rbx), %rbx
	movq	(%r15), %r15
	movq	(%r14), %r14
	movq	0(%r13), %r13
	movq	(%r12), %r12
	movq	(%rbx), %rbx
	movq	(%r15), %r15
	movq	(%r14), %r14
	movq	0(%r13), %r13
	movq	(%r12), %r12
	movq	(%rbx), %rbx
	movq	(%r15), %r15
	movq	(%r14), %r14
	movq	0(%r13), %r13
	movq	(%r12), %r12
	movq	(%rbx), %rbx
	movq	(%r15), %r15
	movq	(%r14), %r14
	movq	0(%r13), %r13
	movq	(%r12), %r12
	movq	(%rbx), %rbx
	movq	(%r15), %r15
	movq	(%r14), %r14
	movq	0(%r13), %r13
	movq	(%r12), %r12
	movq	(%rbx), %rbx
	movq	(%r15), %r15
	movq	(%r14), %r14
	movq	0(%r13), %r13
	movq	(%r12), %r12
	movq	(%rbx), %rbx
	movq	(%r15), %r15
	movq	(%r14), %r14
	movq	0(%r13), %r13
	movq	(%r12), %r12
	movq	(%rbx), %rbx
	movq	(%r15), %r15
	movq	(%r14), %r14
	movq	0(%r13), %r13
	movq	(%r12), %r12
	movq	(%rbx), %rbx
	movq	(%r15), %r15
	movq	(%r14), %r14
	movq	0(%r13), %r13
	movq	(%r12), %r12
	movq	(%rbx), %rbx
	movq	(%r15), %r15
	movq	(%r14), %r14
	movq	0(%r13), %r13
	movq	(%r12), %r12
	movq	(%rbx), %rbx
	movq	(%r15), %r15
	movq	(%r14), %r14
	movq	0(%r13), %r13
	movq	(%r12), %r12
	movq	(%rbx), %rbx
	movq	(%r15), %r15
	movq	(%r14), %r14
	movq	0(%r13), %r13
	movq	(%r12), %r12
	movq	(%rbx), %rbx
	movq	(%r15), %r15
	movq	(%r14), %r14
	movq	0(%r13), %r13
	movq	(%r12), %r12
	movq	(%rbx), %rbx
	movq	(%r15), %r15
	movq	(%r14), %r14
	movq	0(%r13), %r13
	movq	(%r12), %r12
	movq	(%rbx), %rbx
	movq	(%r15), %r15
	movq	(%r14), %r14
	movq	0(%r13), %r13
	movq	(%r12), %r12
	movq	(%rbx), %rbx
	movq	(%r15), %r15
	movq	(%r14), %r14
	movq	0(%r13), %r13
	movq	(%r12), %r12
	movq	(%rbx), %rbx
	movq	(%r15), %r15
	movq	(%r14), %r14
	movq	0(%r13), %r13
	movq	(%r12), %r12
	movq	(%rbx), %rbx
	movq	(%r15), %r15
	movq	(%r14), %r14
	movq	0(%r13), %r13
	movq	(%r12), %r12
	movq	(%rbx), %rbx
	movq	(%r15), %r15
	movq	(%r14), %r14
	movq	0(%r13), %r13
	movq	(%r12), %r12
	movq	(%rbx), %rbx
	movq	(%r15), %r15
	movq	(%r14), %r14
	movq	0(%r13), %r13
	movq	(%r12), %r12
	movq	(%rbx), %rbx
	movq	(%r15), %r15
	movq	(%r14), %r14
	movq	0(%r13), %r13
	movq	(%r12), %r12
	movq	(%rbx), %rbx
	movq	(%r15), %r15
	movq	(%r14), %r14
	movq	0(%r13), %r13
	movq	(%r12), %r12
	movq	(%rbx), %rbx
	movq	(%r15), %r15
	movq	(%r14), %r14
	movq	0(%r13), %r13
	movq	(%r12), %r12
	movq	(%rbx), %rbx
	movq	(%r15), %r15
	movq	(%r14), %r14
	movq	0(%r13), %r13
	movq	(%r12), %r12
	movq	(%rbx), %rbx
	movq	(%r15), %r15
	movq	(%r14), %r14
	movq	0(%r13), %r13
	movq	(%r12), %r12
	movq	(%rbx), %rbx
	movq	(%r15), %r15
	movq	(%r14), %r14
	movq	0(%r13), %r13
	movq	(%r12), %r12
	movq	(%rbx), %rbx
	movq	(%r15), %r15
	movq	(%r14), %r14
	movq	0(%r13), %r13
	movq	(%r12), %r12
	movq	(%rbx), %rbx
	movq	(%r15), %r15
	movq	(%r14), %r14
	movq	0(%r13), %r13
	movq	(%r12), %r12
	movq	(%rbx), %rbx
	movq	(%r15), %r15
	movq	(%r14), %r14
	movq	0(%r13), %r13
	movq	(%r12), %r12
	movq	(%rbx), %rbx
	movq	(%r15), %r15
	movq	(%r14), %r14
	movq	0(%r13), %r13
	movq	(%r12), %r12
	movq	(%rbx), %rbx
	movq	(%r15), %r15
	movq	(%r14), %r14
	movq	0(%r13), %r13
	movq	(%r12), %r12
	movq	(%rbx), %rbx
	movq	(%r15), %r15
	movq	(%r14), %r14
	movq	0(%r13), %r13
	movq	(%r12), %r12
	movq	(%rbx), %rbx
	movq	(%r15), %r15
	movq	(%r14), %r14
	movq	0(%r13), %r13
	movq	(%r12), %r12
	movq	(%rbx), %rbx
	movq	(%r15), %r15
	movq	(%r14), %r14
	movq	0(%r13), %r13
	movq	(%r12), %r12
	movq	(%rbx), %rbx
	movq	(%r15), %r15
	movq	(%r14), %r14
	movq	0(%r13), %r13
	movq	(%r12), %r12
	movq	(%rbx), %rbx
	movq	(%r15), %r15
	movq	(%r14), %r14
	movq	0(%r13), %r13
	movq	(%r12), %r12
	movq	(%rbx), %rbx
	movq	(%r15), %r15
	movq	(%r14), %r14
	movq	0(%r13), %r13
	movq	(%r12), %r12
	movq	(%rbx), %rbx
	movq	(%r15), %r15
	movq	(%r14), %r14
	movq	0(%r13), %r13
	movq	(%r12), %r12
	movq	(%rbx), %rbx
	movq	(%r15), %r15
	movq	(%r14), %r14
	movq	0(%r13), %r13
	movq	(%r12), %r12
	movq	(%rbx), %rbx
	movq	(%r15), %r15
	movq	(%r14), %r14
	movq	0(%r13), %r13
	movq	(%r12), %r12
	movq	(%rbx), %rbx
	movq	(%r15), %r15
	movq	(%r14), %r14
	movq	0(%r13), %r13
	movq	(%r12), %r12
	movq	(%rbx), %rbx
	movq	(%r15), %r15
	movq	(%r14), %r14
	movq	0(%r13), %r13
	movq	(%r12), %r12
	movq	(%rbx), %rbx
	movq	(%r15), %r15
	movq	(%r14), %r14
	movq	0(%r13), %r13
	movq	(%r12), %r12
	movq	(%rbx), %rbx
	movq	(%r15), %r15
	movq	(%r14), %r14
	movq	0(%r13), %r13
	movq	(%r12), %r12
	movq	(%rbx), %rbx
	movq	(%r15), %r15
	movq	(%r14), %r14
	movq	0(%r13), %r13
	movq	(%r12), %r12
	movq	(%rbx), %rbx
	movq	(%r15), %r15
	movq	(%r14), %r14
	movq	0(%r13), %r13
	movq	(%r12), %r12
	movq	(%rbx), %rbx
	movq	(%r15), %r15
	movq	(%r14), %r14
	movq	0(%r13), %r13
	movq	(%r12), %r12
	movq	(%rbx), %rbx
	movq	(%r15), %r15
	movq	(%r14), %r14
	movq	0(%r13), %r13
	movq	(%r12), %r12
	movq	(%rbx), %rbx
	movq	(%r15), %r15
	movq	(%r14), %r14
	movq	0(%r13), %r13
	movq	(%r12), %r12
	movq	(%rbx), %rbx
	movq	(%r15), %r15
	movq	(%r14), %r14
	movq	0(%r13), %r13
	movq	(%r12), %r12
	movq	(%rbx), %rbx
	movq	(%r15), %r15
	movq	(%r14), %r14
	movq	0(%r13), %r13
	movq	(%r12), %r12
	movq	(%rbx), %rbx
	movq	(%r15), %r15
	movq	(%r14), %r14
	movq	0(%r13), %r13
	movq	(%r12), %r12
	movq	(%rbx), %rbx
	movq	(%r15), %r15
	movq	(%r14), %r14
	movq	0(%r13), %r13
	movq	(%r12), %r12
	movq	(%rbx), %rbx
	movq	(%r15), %r15
	movq	(%r14), %r14
	movq	0(%r13), %r13
	movq	(%r12), %r12
	movq	(%rbx), %rbx
	movq	(%r15), %r15
	movq	(%r14), %r14
	movq	0(%r13), %r13
	movq	(%r12), %r12
	movq	(%rbx), %rbx
	movq	(%r15), %r15
	movq	(%r14), %r14
	movq	0(%r13), %r13
	movq	(%r12), %r12
	movq	(%rbx), %rbx
	movq	(%r15), %r15
	movq	(%r14), %r14
	movq	0(%r13), %r13
	movq	(%r12), %r12
	movq	(%rbx), %rbx
	movq	(%r15), %r15
	movq	(%r14), %r14
	movq	0(%r13), %r13
	movq	(%r12), %r12
	movq	(%rbx), %rbx
	movq	(%r15), %r15
	movq	(%r14), %r14
	movq	0(%r13), %r13
	movq	(%r12), %r12
	movq	(%rbx), %rbx
	movq	(%r15), %r15
	movq	(%r14), %r14
	movq	0(%r13), %r13
	movq	(%r12), %r12
	movq	(%rbx), %rbx
	movq	(%r15), %r15
	movq	(%r14), %r14
	movq	0(%r13), %r13
	movq	(%r12), %r12
	movq	(%rbx), %rbx
	movq	(%r15), %r15
	movq	(%r14), %r14
	movq	0(%r13), %r13
	movq	(%r12), %r12
	movq	(%rbx), %rbx
	movq	(%r15), %r15
	movq	(%r14), %r14
	movq	0(%r13), %r13
	movq	(%r12), %r12
	movq	(%rbx), %rbx
	movq	(%r15), %r15
	movq	(%r14), %r14
	movq	0(%r13), %r13
	movq	(%r12), %r12
	movq	(%rbx), %rbx
	movq	(%r15), %r15
	movq	(%r14), %r14
	movq	0(%r13), %r13
	movq	(%r12), %r12
	movq	(%rbx), %rbx
	movq	(%r15), %r15
	movq	(%r14), %r14
	movq	0(%r13), %r13
	movq	(%r12), %r12
	movq	(%rbx), %rbx
	movq	(%r15), %r15
	movq	(%r14), %r14
	movq	0(%r13), %r13
	movq	(%r12), %r12
	movq	(%rbx), %rbx
	movq	(%r15), %r15
	movq	(%r14), %r14
	movq	0(%r13), %r13
	movq	(%r12), %r12
	movq	(%rbx), %rbx
	movq	(%r15), %r15
	movq	(%r14), %r14
	movq	0(%r13), %r13
	movq	(%r12), %r12
	movq	(%rbx), %rbx
	movq	(%r15), %r15
	movq	(%r14), %r14
	movq	0(%r13), %r13
	movq	(%r12), %r12
	movq	(%rbx), %rbx
	movq	(%r15), %r15
	movq	(%r14), %r14
	movq	0(%r13), %r13
	movq	(%r12), %r12
	movq	(%rbx), %rbx
	movq	(%r15), %r15
	movq	(%r14), %r14
	movq	0(%r13), %r13
	movq	(%r12), %r12
	movq	(%rbx), %rbx
	movq	(%r15), %r15
	movq	(%r14), %r14
	movq	0(%r13), %r13
	movq	(%r12), %r12
	movq	(%rbx), %rbx
	movq	(%r15), %r15
	movq	(%r14), %r14
	movq	0(%r13), %r13
	movq	(%r12), %r12
	movq	(%rbx), %rbx
	movq	(%r15), %r15
	movq	(%r14), %r14
	movq	0(%r13), %r13
	movq	(%r12), %r12
	movq	(%rbx), %rbx
	movq	(%r15), %r15
	movq	(%r14), %r14
	movq	0(%r13), %r13
	movq	(%r12), %r12
	movq	(%rbx), %rbx
	movq	(%r15), %r15
	movq	(%r14), %r14
	movq	0(%r13), %r13
	movq	(%r12), %r12
	movq	(%rbx), %rbx
	movq	(%r15), %r15
	movq	(%r14), %r14
	movq	0(%r13), %r13
	movq	(%r12), %r12
	movq	(%rbx), %rbx
	movq	(%r15), %r15
	movq	(%r14), %r14
	movq	0(%r13), %r13
	movq	(%r12), %r12
	movq	(%rbx), %rbx
	movq	(%r15), %r15
	movq	(%r14), %r14
	movq	0(%r13), %r13
	movq	(%r12), %r12
	movq	(%rbx), %rbx
	movq	(%r15), %r15
	movq	(%r14), %r14
	movq	0(%r13), %r13
	movq	(%r12), %r12
	movq	(%rbx), %rbx
	movq	(%r15), %r15
	movq	(%r14), %r14
	movq	0(%r13), %r13
	movq	(%r12), %r12
	movq	(%rbx), %rbx
	movq	(%r15), %r15
	movq	(%r14), %r14
	movq	0(%r13), %r13
	movq	(%r12), %r12
	movq	(%rbx), %rbx
	movq	(%r15), %r15
	movq	(%r14), %r14
	movq	0(%r13), %r13
	movq	(%r12), %r12
	movq	(%rbx), %rbx
	movq	(%r15), %r15
	movq	(%r14), %r14
	movq	0(%r13), %r13
	movq	(%r12), %r12
	movq	(%rbx), %rbx
	movq	(%r15), %r15
	movq	(%r14), %r14
	movq	0(%r13), %r13
	movq	(%r12), %r12
	movq	(%rbx), %rbx
	movq	(%r15), %r15
	movq	(%r14), %r14
	movq	0(%r13), %r13
	movq	(%r12), %r12
	movq	(%rbx), %rbx
	movq	(%r15), %r15
	movq	(%r14), %r14
	movq	0(%r13), %r13
	movq	(%r12), %r12
	movq	(%rbx), %rbx
	movq	(%r15), %r15
	movq	(%r14), %r14
	movq	0(%r13), %r13
	movq	(%r12), %r12
	movq	(%rbx), %rbx
	movq	(%r15), %r15
	movq	(%r14), %r14
	movq	0(%r13), %r13
	movq	(%r12), %r12
	movq	(%rbx), %rbx
	movq	(%r15), %r15
	movq	(%r14), %r14
	movq	0(%r13), %r13
	movq	(%r12), %r12
	movq	(%rbx), %rbx
	movq	(%r15), %r15
	movq	(%r14), %r14
	movq	0(%r13), %r13
	movq	(%r12), %r12
	movq	(%rbx), %rbx
	movq	(%r15), %r15
	movq	(%r14), %r14
	movq	0(%r13), %r13
	movq	(%r12), %r12
	movq	(%rbx), %rbx
.L59:
	movq	-64(%rbp), %rax
	leaq	-1(%rax), %rdx
	movq	%rdx, -64(%rbp)
	testq	%rax, %rax
	jne	.L60
	movq	%r15, sp0.138(%rip)
	movq	%r14, sp1.137(%rip)
	movq	%r13, sp2.136(%rip)
	movq	%r12, sp3.135(%rip)
	movq	%rbx, sp4.134(%rip)
	movq	-48(%rbp), %rax
	movq	(%rax), %rax
	movq	%rax, addr_save.139(%rip)
	movl	$1, mem_benchmark_rerun(%rip)
	popq	%rbx
	popq	%r12
	popq	%r13
	popq	%r14
	popq	%r15
	popq	%rbp
	.cfi_def_cfa 7, 8
	ret
	.cfi_endproc
.LFE12:
	.size	mem_benchmark_4, .-mem_benchmark_4
	.globl	mem_benchmark_5
	.type	mem_benchmark_5, @function
mem_benchmark_5:
.LFB13:
	.cfi_startproc
	endbr64
	pushq	%rbp
	.cfi_def_cfa_offset 16
	.cfi_offset 6, -16
	movq	%rsp, %rbp
	.cfi_def_cfa_register 6
	pushq	%r15
	pushq	%r14
	pushq	%r13
	pushq	%r12
	pushq	%rbx
	.cfi_offset 15, -24
	.cfi_offset 14, -32
	.cfi_offset 13, -40
	.cfi_offset 12, -48
	.cfi_offset 3, -56
	movq	%rdi, -64(%rbp)
	movq	%rsi, -72(%rbp)
	movq	-72(%rbp), %rax
	movq	%rax, -48(%rbp)
	movl	mem_benchmark_rerun(%rip), %eax
	testl	%eax, %eax
	je	.L62
	movq	-48(%rbp), %rax
	movq	(%rax), %rdx
	movq	addr_save.133(%rip), %rax
	cmpq	%rax, %rdx
	je	.L63
.L62:
	movq	-48(%rbp), %rax
	movq	16(%rax), %rax
	jmp	.L64
.L63:
	movq	sp0.132(%rip), %rax
.L64:
	movq	%rax, %rcx
	movl	mem_benchmark_rerun(%rip), %eax
	testl	%eax, %eax
	je	.L65
	movq	-48(%rbp), %rax
	movq	(%rax), %rdx
	movq	addr_save.133(%rip), %rax
	cmpq	%rax, %rdx
	je	.L66
.L65:
	movq	-48(%rbp), %rax
	movq	24(%rax), %rax
	jmp	.L67
.L66:
	movq	sp1.131(%rip), %rax
.L67:
	movq	%rax, %r15
	movl	mem_benchmark_rerun(%rip), %eax
	testl	%eax, %eax
	je	.L68
	movq	-48(%rbp), %rax
	movq	(%rax), %rdx
	movq	addr_save.133(%rip), %rax
	cmpq	%rax, %rdx
	je	.L69
.L68:
	movq	-48(%rbp), %rax
	movq	32(%rax), %rax
	jmp	.L70
.L69:
	movq	sp2.130(%rip), %rax
.L70:
	movq	%rax, %r14
	movl	mem_benchmark_rerun(%rip), %eax
	testl	%eax, %eax
	je	.L71
	movq	-48(%rbp), %rax
	movq	(%rax), %rdx
	movq	addr_save.133(%rip), %rax
	cmpq	%rax, %rdx
	je	.L72
.L71:
	movq	-48(%rbp), %rax
	movq	40(%rax), %rax
	jmp	.L73
.L72:
	movq	sp3.129(%rip), %rax
.L73:
	movq	%rax, %r13
	movl	mem_benchmark_rerun(%rip), %eax
	testl	%eax, %eax
	je	.L74
	movq	-48(%rbp), %rax
	movq	(%rax), %rdx
	movq	addr_save.133(%rip), %rax
	cmpq	%rax, %rdx
	je	.L75
.L74:
	movq	-48(%rbp), %rax
	movq	48(%rax), %rax
	jmp	.L76
.L75:
	movq	sp4.128(%rip), %rax
.L76:
	movq	%rax, %r12
	movl	mem_benchmark_rerun(%rip), %eax
	testl	%eax, %eax
	je	.L77
	movq	-48(%rbp), %rax
	movq	(%rax), %rdx
	movq	addr_save.133(%rip), %rax
	cmpq	%rax, %rdx
	je	.L78
.L77:
	movq	-48(%rbp), %rax
	movq	56(%rax), %rax
	jmp	.L79
.L78:
	movq	sp5.127(%rip), %rax
.L79:
	movq	%rax, %rbx
	jmp	.L80
.L81:
	movq	%rcx, %rax
	movq	(%rax), %rax
	movq	(%r15), %r15
	movq	(%r14), %r14
	movq	0(%r13), %r13
	movq	(%r12), %r12
	movq	(%rbx), %rbx
	movq	(%rax), %rax
	movq	(%r15), %r15
	movq	(%r14), %r14
	movq	0(%r13), %r13
	movq	(%r12), %r12
	movq	(%rbx), %rbx
	movq	(%rax), %rax
	movq	(%r15), %r15
	movq	(%r14), %r14
	movq	0(%r13), %r13
	movq	(%r12), %r12
	movq	(%rbx), %rbx
	movq	(%rax), %rax
	movq	(%r15), %r15
	movq	(%r14), %r14
	movq	0(%r13), %r13
	movq	(%r12), %r12
	movq	(%rbx), %rbx
	movq	(%rax), %rax
	movq	(%r15), %r15
	movq	(%r14), %r14
	movq	0(%r13), %r13
	movq	(%r12), %r12
	movq	(%rbx), %rbx
	movq	(%rax), %rax
	movq	(%r15), %r15
	movq	(%r14), %r14
	movq	0(%r13), %r13
	movq	(%r12), %r12
	movq	(%rbx), %rbx
	movq	(%rax), %rax
	movq	(%r15), %r15
	movq	(%r14), %r14
	movq	0(%r13), %r13
	movq	(%r12), %r12
	movq	(%rbx), %rbx
	movq	(%rax), %rax
	movq	(%r15), %r15
	movq	(%r14), %r14
	movq	0(%r13), %r13
	movq	(%r12), %r12
	movq	(%rbx), %rbx
	movq	(%rax), %rax
	movq	(%r15), %r15
	movq	(%r14), %r14
	movq	0(%r13), %r13
	movq	(%r12), %r12
	movq	(%rbx), %rbx
	movq	(%rax), %rax
	movq	(%r15), %r15
	movq	(%r14), %r14
	movq	0(%r13), %r13
	movq	(%r12), %r12
	movq	(%rbx), %rbx
	movq	(%rax), %rax
	movq	(%r15), %r15
	movq	(%r14), %r14
	movq	0(%r13), %r13
	movq	(%r12), %r12
	movq	(%rbx), %rbx
	movq	(%rax), %rax
	movq	(%r15), %r15
	movq	(%r14), %r14
	movq	0(%r13), %r13
	movq	(%r12), %r12
	movq	(%rbx), %rbx
	movq	(%rax), %rax
	movq	(%r15), %r15
	movq	(%r14), %r14
	movq	0(%r13), %r13
	movq	(%r12), %r12
	movq	(%rbx), %rbx
	movq	(%rax), %rax
	movq	(%r15), %r15
	movq	(%r14), %r14
	movq	0(%r13), %r13
	movq	(%r12), %r12
	movq	(%rbx), %rbx
	movq	(%rax), %rax
	movq	(%r15), %r15
	movq	(%r14), %r14
	movq	0(%r13), %r13
	movq	(%r12), %r12
	movq	(%rbx), %rbx
	movq	(%rax), %rax
	movq	(%r15), %r15
	movq	(%r14), %r14
	movq	0(%r13), %r13
	movq	(%r12), %r12
	movq	(%rbx), %rbx
	movq	(%rax), %rax
	movq	(%r15), %r15
	movq	(%r14), %r14
	movq	0(%r13), %r13
	movq	(%r12), %r12
	movq	(%rbx), %rbx
	movq	(%rax), %rax
	movq	(%r15), %r15
	movq	(%r14), %r14
	movq	0(%r13), %r13
	movq	(%r12), %r12
	movq	(%rbx), %rbx
	movq	(%rax), %rax
	movq	(%r15), %r15
	movq	(%r14), %r14
	movq	0(%r13), %r13
	movq	(%r12), %r12
	movq	(%rbx), %rbx
	movq	(%rax), %rax
	movq	(%r15), %r15
	movq	(%r14), %r14
	movq	0(%r13), %r13
	movq	(%r12), %r12
	movq	(%rbx), %rbx
	movq	(%rax), %rax
	movq	(%r15), %r15
	movq	(%r14), %r14
	movq	0(%r13), %r13
	movq	(%r12), %r12
	movq	(%rbx), %rbx
	movq	(%rax), %rax
	movq	(%r15), %r15
	movq	(%r14), %r14
	movq	0(%r13), %r13
	movq	(%r12), %r12
	movq	(%rbx), %rbx
	movq	(%rax), %rax
	movq	(%r15), %r15
	movq	(%r14), %r14
	movq	0(%r13), %r13
	movq	(%r12), %r12
	movq	(%rbx), %rbx
	movq	(%rax), %rax
	movq	(%r15), %r15
	movq	(%r14), %r14
	movq	0(%r13), %r13
	movq	(%r12), %r12
	movq	(%rbx), %rbx
	movq	(%rax), %rax
	movq	(%r15), %r15
	movq	(%r14), %r14
	movq	0(%r13), %r13
	movq	(%r12), %r12
	movq	(%rbx), %rbx
	movq	(%rax), %rax
	movq	(%r15), %r15
	movq	(%r14), %r14
	movq	0(%r13), %r13
	movq	(%r12), %r12
	movq	(%rbx), %rbx
	movq	(%rax), %rax
	movq	(%r15), %r15
	movq	(%r14), %r14
	movq	0(%r13), %r13
	movq	(%r12), %r12
	movq	(%rbx), %rbx
	movq	(%rax), %rax
	movq	(%r15), %r15
	movq	(%r14), %r14
	movq	0(%r13), %r13
	movq	(%r12), %r12
	movq	(%rbx), %rbx
	movq	(%rax), %rax
	movq	(%r15), %r15
	movq	(%r14), %r14
	movq	0(%r13), %r13
	movq	(%r12), %r12
	movq	(%rbx), %rbx
	movq	(%rax), %rax
	movq	(%r15), %r15
	movq	(%r14), %r14
	movq	0(%r13), %r13
	movq	(%r12), %r12
	movq	(%rbx), %rbx
	movq	(%rax), %rax
	movq	(%r15), %r15
	movq	(%r14), %r14
	movq	0(%r13), %r13
	movq	(%r12), %r12
	movq	(%rbx), %rbx
	movq	(%rax), %rax
	movq	(%r15), %r15
	movq	(%r14), %r14
	movq	0(%r13), %r13
	movq	(%r12), %r12
	movq	(%rbx), %rbx
	movq	(%rax), %rax
	movq	(%r15), %r15
	movq	(%r14), %r14
	movq	0(%r13), %r13
	movq	(%r12), %r12
	movq	(%rbx), %rbx
	movq	(%rax), %rax
	movq	(%r15), %r15
	movq	(%r14), %r14
	movq	0(%r13), %r13
	movq	(%r12), %r12
	movq	(%rbx), %rbx
	movq	(%rax), %rax
	movq	(%r15), %r15
	movq	(%r14), %r14
	movq	0(%r13), %r13
	movq	(%r12), %r12
	movq	(%rbx), %rbx
	movq	(%rax), %rax
	movq	(%r15), %r15
	movq	(%r14), %r14
	movq	0(%r13), %r13
	movq	(%r12), %r12
	movq	(%rbx), %rbx
	movq	(%rax), %rax
	movq	(%r15), %r15
	movq	(%r14), %r14
	movq	0(%r13), %r13
	movq	(%r12), %r12
	movq	(%rbx), %rbx
	movq	(%rax), %rax
	movq	(%r15), %r15
	movq	(%r14), %r14
	movq	0(%r13), %r13
	movq	(%r12), %r12
	movq	(%rbx), %rbx
	movq	(%rax), %rax
	movq	(%r15), %r15
	movq	(%r14), %r14
	movq	0(%r13), %r13
	movq	(%r12), %r12
	movq	(%rbx), %rbx
	movq	(%rax), %rax
	movq	(%r15), %r15
	movq	(%r14), %r14
	movq	0(%r13), %r13
	movq	(%r12), %r12
	movq	(%rbx), %rbx
	movq	(%rax), %rax
	movq	(%r15), %r15
	movq	(%r14), %r14
	movq	0(%r13), %r13
	movq	(%r12), %r12
	movq	(%rbx), %rbx
	movq	(%rax), %rax
	movq	(%r15), %r15
	movq	(%r14), %r14
	movq	0(%r13), %r13
	movq	(%r12), %r12
	movq	(%rbx), %rbx
	movq	(%rax), %rax
	movq	(%r15), %r15
	movq	(%r14), %r14
	movq	0(%r13), %r13
	movq	(%r12), %r12
	movq	(%rbx), %rbx
	movq	(%rax), %rax
	movq	(%r15), %r15
	movq	(%r14), %r14
	movq	0(%r13), %r13
	movq	(%r12), %r12
	movq	(%rbx), %rbx
	movq	(%rax), %rax
	movq	(%r15), %r15
	movq	(%r14), %r14
	movq	0(%r13), %r13
	movq	(%r12), %r12
	movq	(%rbx), %rbx
	movq	(%rax), %rax
	movq	(%r15), %r15
	movq	(%r14), %r14
	movq	0(%r13), %r13
	movq	(%r12), %r12
	movq	(%rbx), %rbx
	movq	(%rax), %rax
	movq	(%r15), %r15
	movq	(%r14), %r14
	movq	0(%r13), %r13
	movq	(%r12), %r12
	movq	(%rbx), %rbx
	movq	(%rax), %rax
	movq	(%r15), %r15
	movq	(%r14), %r14
	movq	0(%r13), %r13
	movq	(%r12), %r12
	movq	(%rbx), %rbx
	movq	(%rax), %rax
	movq	(%r15), %r15
	movq	(%r14), %r14
	movq	0(%r13), %r13
	movq	(%r12), %r12
	movq	(%rbx), %rbx
	movq	(%rax), %rax
	movq	(%r15), %r15
	movq	(%r14), %r14
	movq	0(%r13), %r13
	movq	(%r12), %r12
	movq	(%rbx), %rbx
	movq	(%rax), %rax
	movq	(%r15), %r15
	movq	(%r14), %r14
	movq	0(%r13), %r13
	movq	(%r12), %r12
	movq	(%rbx), %rbx
	movq	(%rax), %rax
	movq	(%r15), %r15
	movq	(%r14), %r14
	movq	0(%r13), %r13
	movq	(%r12), %r12
	movq	(%rbx), %rbx
	movq	(%rax), %rax
	movq	(%r15), %r15
	movq	(%r14), %r14
	movq	0(%r13), %r13
	movq	(%r12), %r12
	movq	(%rbx), %rbx
	movq	(%rax), %rax
	movq	(%r15), %r15
	movq	(%r14), %r14
	movq	0(%r13), %r13
	movq	(%r12), %r12
	movq	(%rbx), %rbx
	movq	(%rax), %rax
	movq	(%r15), %r15
	movq	(%r14), %r14
	movq	0(%r13), %r13
	movq	(%r12), %r12
	movq	(%rbx), %rbx
	movq	(%rax), %rax
	movq	(%r15), %r15
	movq	(%r14), %r14
	movq	0(%r13), %r13
	movq	(%r12), %r12
	movq	(%rbx), %rbx
	movq	(%rax), %rax
	movq	(%r15), %r15
	movq	(%r14), %r14
	movq	0(%r13), %r13
	movq	(%r12), %r12
	movq	(%rbx), %rbx
	movq	(%rax), %rax
	movq	(%r15), %r15
	movq	(%r14), %r14
	movq	0(%r13), %r13
	movq	(%r12), %r12
	movq	(%rbx), %rbx
	movq	(%rax), %rax
	movq	(%r15), %r15
	movq	(%r14), %r14
	movq	0(%r13), %r13
	movq	(%r12), %r12
	movq	(%rbx), %rbx
	movq	(%rax), %rax
	movq	(%r15), %r15
	movq	(%r14), %r14
	movq	0(%r13), %r13
	movq	(%r12), %r12
	movq	(%rbx), %rbx
	movq	(%rax), %rax
	movq	(%r15), %r15
	movq	(%r14), %r14
	movq	0(%r13), %r13
	movq	(%r12), %r12
	movq	(%rbx), %rbx
	movq	(%rax), %rax
	movq	(%r15), %r15
	movq	(%r14), %r14
	movq	0(%r13), %r13
	movq	(%r12), %r12
	movq	(%rbx), %rbx
	movq	(%rax), %rax
	movq	(%r15), %r15
	movq	(%r14), %r14
	movq	0(%r13), %r13
	movq	(%r12), %r12
	movq	(%rbx), %rbx
	movq	(%rax), %rax
	movq	(%r15), %r15
	movq	(%r14), %r14
	movq	0(%r13), %r13
	movq	(%r12), %r12
	movq	(%rbx), %rbx
	movq	(%rax), %rax
	movq	(%r15), %r15
	movq	(%r14), %r14
	movq	0(%r13), %r13
	movq	(%r12), %r12
	movq	(%rbx), %rbx
	movq	(%rax), %rax
	movq	(%r15), %r15
	movq	(%r14), %r14
	movq	0(%r13), %r13
	movq	(%r12), %r12
	movq	(%rbx), %rbx
	movq	(%rax), %rax
	movq	(%r15), %r15
	movq	(%r14), %r14
	movq	0(%r13), %r13
	movq	(%r12), %r12
	movq	(%rbx), %rbx
	movq	(%rax), %rax
	movq	(%r15), %r15
	movq	(%r14), %r14
	movq	0(%r13), %r13
	movq	(%r12), %r12
	movq	(%rbx), %rbx
	movq	(%rax), %rax
	movq	(%r15), %r15
	movq	(%r14), %r14
	movq	0(%r13), %r13
	movq	(%r12), %r12
	movq	(%rbx), %rbx
	movq	(%rax), %rax
	movq	(%r15), %r15
	movq	(%r14), %r14
	movq	0(%r13), %r13
	movq	(%r12), %r12
	movq	(%rbx), %rbx
	movq	(%rax), %rax
	movq	(%r15), %r15
	movq	(%r14), %r14
	movq	0(%r13), %r13
	movq	(%r12), %r12
	movq	(%rbx), %rbx
	movq	(%rax), %rax
	movq	(%r15), %r15
	movq	(%r14), %r14
	movq	0(%r13), %r13
	movq	(%r12), %r12
	movq	(%rbx), %rbx
	movq	(%rax), %rax
	movq	(%r15), %r15
	movq	(%r14), %r14
	movq	0(%r13), %r13
	movq	(%r12), %r12
	movq	(%rbx), %rbx
	movq	(%rax), %rax
	movq	(%r15), %r15
	movq	(%r14), %r14
	movq	0(%r13), %r13
	movq	(%r12), %r12
	movq	(%rbx), %rbx
	movq	(%rax), %rax
	movq	(%r15), %r15
	movq	(%r14), %r14
	movq	0(%r13), %r13
	movq	(%r12), %r12
	movq	(%rbx), %rbx
	movq	(%rax), %rax
	movq	(%r15), %r15
	movq	(%r14), %r14
	movq	0(%r13), %r13
	movq	(%r12), %r12
	movq	(%rbx), %rbx
	movq	(%rax), %rax
	movq	(%r15), %r15
	movq	(%r14), %r14
	movq	0(%r13), %r13
	movq	(%r12), %r12
	movq	(%rbx), %rbx
	movq	(%rax), %rax
	movq	(%r15), %r15
	movq	(%r14), %r14
	movq	0(%r13), %r13
	movq	(%r12), %r12
	movq	(%rbx), %rbx
	movq	(%rax), %rax
	movq	(%r15), %r15
	movq	(%r14), %r14
	movq	0(%r13), %r13
	movq	(%r12), %r12
	movq	(%rbx), %rbx
	movq	(%rax), %rax
	movq	(%r15), %r15
	movq	(%r14), %r14
	movq	0(%r13), %r13
	movq	(%r12), %r12
	movq	(%rbx), %rbx
	movq	(%rax), %rax
	movq	(%r15), %r15
	movq	(%r14), %r14
	movq	0(%r13), %r13
	movq	(%r12), %r12
	movq	(%rbx), %rbx
	movq	(%rax), %rax
	movq	(%r15), %r15
	movq	(%r14), %r14
	movq	0(%r13), %r13
	movq	(%r12), %r12
	movq	(%rbx), %rbx
	movq	(%rax), %rax
	movq	(%r15), %r15
	movq	(%r14), %r14
	movq	0(%r13), %r13
	movq	(%r12), %r12
	movq	(%rbx), %rbx
	movq	(%rax), %rax
	movq	(%r15), %r15
	movq	(%r14), %r14
	movq	0(%r13), %r13
	movq	(%r12), %r12
	movq	(%rbx), %rbx
	movq	(%rax), %rax
	movq	(%r15), %r15
	movq	(%r14), %r14
	movq	0(%r13), %r13
	movq	(%r12), %r12
	movq	(%rbx), %rbx
	movq	(%rax), %rax
	movq	(%r15), %r15
	movq	(%r14), %r14
	movq	0(%r13), %r13
	movq	(%r12), %r12
	movq	(%rbx), %rbx
	movq	(%rax), %rax
	movq	(%r15), %r15
	movq	(%r14), %r14
	movq	0(%r13), %r13
	movq	(%r12), %r12
	movq	(%rbx), %rbx
	movq	(%rax), %rax
	movq	(%r15), %r15
	movq	(%r14), %r14
	movq	0(%r13), %r13
	movq	(%r12), %r12
	movq	(%rbx), %rbx
	movq	(%rax), %rax
	movq	(%r15), %r15
	movq	(%r14), %r14
	movq	0(%r13), %r13
	movq	(%r12), %r12
	movq	(%rbx), %rbx
	movq	(%rax), %rax
	movq	(%r15), %r15
	movq	(%r14), %r14
	movq	0(%r13), %r13
	movq	(%r12), %r12
	movq	(%rbx), %rbx
	movq	(%rax), %rax
	movq	(%r15), %r15
	movq	(%r14), %r14
	movq	0(%r13), %r13
	movq	(%r12), %r12
	movq	(%rbx), %rbx
	movq	(%rax), %rax
	movq	(%r15), %r15
	movq	(%r14), %r14
	movq	0(%r13), %r13
	movq	(%r12), %r12
	movq	(%rbx), %rbx
	movq	(%rax), %rax
	movq	(%r15), %r15
	movq	(%r14), %r14
	movq	0(%r13), %r13
	movq	(%r12), %r12
	movq	(%rbx), %rbx
	movq	(%rax), %rax
	movq	(%r15), %r15
	movq	(%r14), %r14
	movq	0(%r13), %r13
	movq	(%r12), %r12
	movq	(%rbx), %rbx
	movq	(%rax), %rax
	movq	(%r15), %r15
	movq	(%r14), %r14
	movq	0(%r13), %r13
	movq	(%r12), %r12
	movq	(%rbx), %rbx
	movq	(%rax), %rax
	movq	(%r15), %r15
	movq	(%r14), %r14
	movq	0(%r13), %r13
	movq	(%r12), %r12
	movq	(%rbx), %rbx
	movq	(%rax), %rax
	movq	(%r15), %r15
	movq	(%r14), %r14
	movq	0(%r13), %r13
	movq	(%r12), %r12
	movq	(%rbx), %rbx
	movq	(%rax), %rax
	movq	(%r15), %r15
	movq	(%r14), %r14
	movq	0(%r13), %r13
	movq	(%r12), %r12
	movq	(%rbx), %rbx
	movq	(%rax), %rax
	movq	(%r15), %r15
	movq	(%r14), %r14
	movq	0(%r13), %r13
	movq	(%r12), %r12
	movq	(%rbx), %rbx
	movq	(%rax), %rax
	movq	%rax, %rcx
	movq	(%r15), %r15
	movq	(%r14), %r14
	movq	0(%r13), %r13
	movq	(%r12), %r12
	movq	(%rbx), %rbx
.L80:
	movq	-64(%rbp), %rax
	leaq	-1(%rax), %rdx
	movq	%rdx, -64(%rbp)
	testq	%rax, %rax
	jne	.L81
	movq	%rcx, %rax
	movq	%rax, sp0.132(%rip)
	movq	%r15, sp1.131(%rip)
	movq	%r14, sp2.130(%rip)
	movq	%r13, sp3.129(%rip)
	movq	%r12, sp4.128(%rip)
	movq	%rbx, sp5.127(%rip)
	movq	-48(%rbp), %rax
	movq	(%rax), %rax
	movq	%rax, addr_save.133(%rip)
	movl	$1, mem_benchmark_rerun(%rip)
	popq	%rbx
	popq	%r12
	popq	%r13
	popq	%r14
	popq	%r15
	popq	%rbp
	.cfi_def_cfa 7, 8
	ret
	.cfi_endproc
.LFE13:
	.size	mem_benchmark_5, .-mem_benchmark_5
	.globl	mem_benchmark_6
	.type	mem_benchmark_6, @function
mem_benchmark_6:
.LFB14:
	.cfi_startproc
	endbr64
	pushq	%rbp
	.cfi_def_cfa_offset 16
	.cfi_offset 6, -16
	movq	%rsp, %rbp
	.cfi_def_cfa_register 6
	pushq	%r15
	pushq	%r14
	pushq	%r13
	pushq	%r12
	pushq	%rbx
	.cfi_offset 15, -24
	.cfi_offset 14, -32
	.cfi_offset 13, -40
	.cfi_offset 12, -48
	.cfi_offset 3, -56
	movq	%rdi, -64(%rbp)
	movq	%rsi, -72(%rbp)
	movq	-72(%rbp), %rax
	movq	%rax, -48(%rbp)
	movl	mem_benchmark_rerun(%rip), %eax
	testl	%eax, %eax
	je	.L83
	movq	-48(%rbp), %rax
	movq	(%rax), %rdx
	movq	addr_save.126(%rip), %rax
	cmpq	%rax, %rdx
	je	.L84
.L83:
	movq	-48(%rbp), %rax
	movq	16(%rax), %rax
	jmp	.L85
.L84:
	movq	sp0.125(%rip), %rax
.L85:
	movq	%rax, %rdi
	movl	mem_benchmark_rerun(%rip), %eax
	testl	%eax, %eax
	je	.L86
	movq	-48(%rbp), %rax
	movq	(%rax), %rdx
	movq	addr_save.126(%rip), %rax
	cmpq	%rax, %rdx
	je	.L87
.L86:
	movq	-48(%rbp), %rax
	movq	24(%rax), %rax
	jmp	.L88
.L87:
	movq	sp1.124(%rip), %rax
.L88:
	movq	%rax, %rcx
	movl	mem_benchmark_rerun(%rip), %eax
	testl	%eax, %eax
	je	.L89
	movq	-48(%rbp), %rax
	movq	(%rax), %rdx
	movq	addr_save.126(%rip), %rax
	cmpq	%rax, %rdx
	je	.L90
.L89:
	movq	-48(%rbp), %rax
	movq	32(%rax), %rax
	jmp	.L91
.L90:
	movq	sp2.123(%rip), %rax
.L91:
	movq	%rax, %r15
	movl	mem_benchmark_rerun(%rip), %eax
	testl	%eax, %eax
	je	.L92
	movq	-48(%rbp), %rax
	movq	(%rax), %rdx
	movq	addr_save.126(%rip), %rax
	cmpq	%rax, %rdx
	je	.L93
.L92:
	movq	-48(%rbp), %rax
	movq	40(%rax), %rax
	jmp	.L94
.L93:
	movq	sp3.122(%rip), %rax
.L94:
	movq	%rax, %r14
	movl	mem_benchmark_rerun(%rip), %eax
	testl	%eax, %eax
	je	.L95
	movq	-48(%rbp), %rax
	movq	(%rax), %rdx
	movq	addr_save.126(%rip), %rax
	cmpq	%rax, %rdx
	je	.L96
.L95:
	movq	-48(%rbp), %rax
	movq	48(%rax), %rax
	jmp	.L97
.L96:
	movq	sp4.121(%rip), %rax
.L97:
	movq	%rax, %r13
	movl	mem_benchmark_rerun(%rip), %eax
	testl	%eax, %eax
	je	.L98
	movq	-48(%rbp), %rax
	movq	(%rax), %rdx
	movq	addr_save.126(%rip), %rax
	cmpq	%rax, %rdx
	je	.L99
.L98:
	movq	-48(%rbp), %rax
	movq	56(%rax), %rax
	jmp	.L100
.L99:
	movq	sp5.120(%rip), %rax
.L100:
	movq	%rax, %r12
	movl	mem_benchmark_rerun(%rip), %eax
	testl	%eax, %eax
	je	.L101
	movq	-48(%rbp), %rax
	movq	(%rax), %rdx
	movq	addr_save.126(%rip), %rax
	cmpq	%rax, %rdx
	je	.L102
.L101:
	movq	-48(%rbp), %rax
	movq	64(%rax), %rax
	jmp	.L103
.L102:
	movq	sp6.119(%rip), %rax
.L103:
	movq	%rax, %rbx
	jmp	.L104
.L105:
	movq	%rdi, %rax
	movq	(%rax), %rax
	movq	(%rcx), %rsi
	movq	(%r15), %r15
	movq	(%r14), %r14
	movq	0(%r13), %r13
	movq	(%r12), %r12
	movq	(%rbx), %rbx
	movq	(%rax), %rax
	movq	(%rsi), %rdi
	movq	(%r15), %r15
	movq	(%r14), %r14
	movq	0(%r13), %r13
	movq	(%r12), %r12
	movq	(%rbx), %rbx
	movq	(%rax), %rax
	movq	(%rdi), %rcx
	movq	(%r15), %r15
	movq	(%r14), %r14
	movq	0(%r13), %r13
	movq	(%r12), %r12
	movq	(%rbx), %rbx
	movq	(%rax), %rax
	movq	(%rcx), %rsi
	movq	(%r15), %r15
	movq	(%r14), %r14
	movq	0(%r13), %r13
	movq	(%r12), %r12
	movq	(%rbx), %rbx
	movq	(%rax), %rax
	movq	(%rsi), %rdi
	movq	(%r15), %r15
	movq	(%r14), %r14
	movq	0(%r13), %r13
	movq	(%r12), %r12
	movq	(%rbx), %rbx
	movq	(%rax), %rax
	movq	(%rdi), %rcx
	movq	(%r15), %r15
	movq	(%r14), %r14
	movq	0(%r13), %r13
	movq	(%r12), %r12
	movq	(%rbx), %rbx
	movq	(%rax), %rax
	movq	(%rcx), %rsi
	movq	(%r15), %r15
	movq	(%r14), %r14
	movq	0(%r13), %r13
	movq	(%r12), %r12
	movq	(%rbx), %rbx
	movq	(%rax), %rax
	movq	(%rsi), %rdi
	movq	(%r15), %r15
	movq	(%r14), %r14
	movq	0(%r13), %r13
	movq	(%r12), %r12
	movq	(%rbx), %rbx
	movq	(%rax), %rax
	movq	(%rdi), %rcx
	movq	(%r15), %r15
	movq	(%r14), %r14
	movq	0(%r13), %r13
	movq	(%r12), %r12
	movq	(%rbx), %rbx
	movq	(%rax), %rax
	movq	(%rcx), %rdx
	movq	(%r15), %r15
	movq	(%r14), %r14
	movq	0(%r13), %r13
	movq	(%r12), %r12
	movq	(%rbx), %rbx
	movq	(%rax), %rax
	movq	(%rdx), %rsi
	movq	(%r15), %r15
	movq	(%r14), %r14
	movq	0(%r13), %r13
	movq	(%r12), %r12
	movq	(%rbx), %rbx
	movq	(%rax), %rax
	movq	(%rsi), %rdi
	movq	(%r15), %r15
	movq	(%r14), %r14
	movq	0(%r13), %r13
	movq	(%r12), %r12
	movq	(%rbx), %rbx
	movq	(%rax), %rax
	movq	(%rdi), %rcx
	movq	(%r15), %r15
	movq	(%r14), %r14
	movq	0(%r13), %r13
	movq	(%r12), %r12
	movq	(%rbx), %rbx
	movq	(%rax), %rax
	movq	(%rcx), %rdx
	movq	(%r15), %r15
	movq	(%r14), %r14
	movq	0(%r13), %r13
	movq	(%r12), %r12
	movq	(%rbx), %rbx
	movq	(%rax), %rax
	movq	(%rdx), %rsi
	movq	(%r15), %r15
	movq	(%r14), %r14
	movq	0(%r13), %r13
	movq	(%r12), %r12
	movq	(%rbx), %rbx
	movq	(%rax), %rax
	movq	(%rsi), %rdi
	movq	(%r15), %r15
	movq	(%r14), %r14
	movq	0(%r13), %r13
	movq	(%r12), %r12
	movq	(%rbx), %rbx
	movq	(%rax), %rax
	movq	(%rdi), %rcx
	movq	(%r15), %r15
	movq	(%r14), %r14
	movq	0(%r13), %r13
	movq	(%r12), %r12
	movq	(%rbx), %rbx
	movq	(%rax), %rax
	movq	(%rcx), %rdx
	movq	(%r15), %r15
	movq	(%r14), %r14
	movq	0(%r13), %r13
	movq	(%r12), %r12
	movq	(%rbx), %rbx
	movq	(%rax), %rax
	movq	(%rdx), %rsi
	movq	(%r15), %r15
	movq	(%r14), %r14
	movq	0(%r13), %r13
	movq	(%r12), %r12
	movq	(%rbx), %rbx
	movq	(%rax), %rax
	movq	(%rsi), %rdi
	movq	(%r15), %r15
	movq	(%r14), %r14
	movq	0(%r13), %r13
	movq	(%r12), %r12
	movq	(%rbx), %rbx
	movq	(%rax), %rax
	movq	(%rdi), %rcx
	movq	(%r15), %r15
	movq	(%r14), %r14
	movq	0(%r13), %r13
	movq	(%r12), %r12
	movq	(%rbx), %rbx
	movq	(%rax), %rax
	movq	(%rcx), %rdx
	movq	(%r15), %r15
	movq	(%r14), %r14
	movq	0(%r13), %r13
	movq	(%r12), %r12
	movq	(%rbx), %rbx
	movq	(%rax), %rax
	movq	(%rdx), %rsi
	movq	(%r15), %r15
	movq	(%r14), %r14
	movq	0(%r13), %r13
	movq	(%r12), %r12
	movq	(%rbx), %rbx
	movq	(%rax), %rax
	movq	(%rsi), %rdi
	movq	(%r15), %r15
	movq	(%r14), %r14
	movq	0(%r13), %r13
	movq	(%r12), %r12
	movq	(%rbx), %rbx
	movq	(%rax), %rax
	movq	(%rdi), %rcx
	movq	(%r15), %r15
	movq	(%r14), %r14
	movq	0(%r13), %r13
	movq	(%r12), %r12
	movq	(%rbx), %rbx
	movq	(%rax), %rax
	movq	(%rcx), %rdx
	movq	(%r15), %r15
	movq	(%r14), %r14
	movq	0(%r13), %r13
	movq	(%r12), %r12
	movq	(%rbx), %rbx
	movq	(%rax), %rax
	movq	(%rdx), %rsi
	movq	(%r15), %r15
	movq	(%r14), %r14
	movq	0(%r13), %r13
	movq	(%r12), %r12
	movq	(%rbx), %rbx
	movq	(%rax), %rax
	movq	(%rsi), %rdi
	movq	(%r15), %r15
	movq	(%r14), %r14
	movq	0(%r13), %r13
	movq	(%r12), %r12
	movq	(%rbx), %rbx
	movq	(%rax), %rax
	movq	(%rdi), %rcx
	movq	(%r15), %r15
	movq	(%r14), %r14
	movq	0(%r13), %r13
	movq	(%r12), %r12
	movq	(%rbx), %rbx
	movq	(%rax), %rax
	movq	(%rcx), %rdx
	movq	(%r15), %r15
	movq	(%r14), %r14
	movq	0(%r13), %r13
	movq	(%r12), %r12
	movq	(%rbx), %rbx
	movq	(%rax), %rax
	movq	(%rdx), %rsi
	movq	(%r15), %r15
	movq	(%r14), %r14
	movq	0(%r13), %r13
	movq	(%r12), %r12
	movq	(%rbx), %rbx
	movq	(%rax), %rax
	movq	(%rsi), %rdi
	movq	(%r15), %r15
	movq	(%r14), %r14
	movq	0(%r13), %r13
	movq	(%r12), %r12
	movq	(%rbx), %rbx
	movq	(%rax), %rax
	movq	(%rdi), %rcx
	movq	(%r15), %r15
	movq	(%r14), %r14
	movq	0(%r13), %r13
	movq	(%r12), %r12
	movq	(%rbx), %rbx
	movq	(%rax), %rax
	movq	(%rcx), %rdx
	movq	(%r15), %r15
	movq	(%r14), %r14
	movq	0(%r13), %r13
	movq	(%r12), %r12
	movq	(%rbx), %rbx
	movq	(%rax), %rax
	movq	(%rdx), %rsi
	movq	(%r15), %r15
	movq	(%r14), %r14
	movq	0(%r13), %r13
	movq	(%r12), %r12
	movq	(%rbx), %rbx
	movq	(%rax), %rax
	movq	(%rsi), %rdi
	movq	(%r15), %r15
	movq	(%r14), %r14
	movq	0(%r13), %r13
	movq	(%r12), %r12
	movq	(%rbx), %rbx
	movq	(%rax), %rax
	movq	(%rdi), %rcx
	movq	(%r15), %r15
	movq	(%r14), %r14
	movq	0(%r13), %r13
	movq	(%r12), %r12
	movq	(%rbx), %rbx
	movq	(%rax), %rax
	movq	(%rcx), %rdx
	movq	(%r15), %r15
	movq	(%r14), %r14
	movq	0(%r13), %r13
	movq	(%r12), %r12
	movq	(%rbx), %rbx
	movq	(%rax), %rax
	movq	(%rdx), %rsi
	movq	(%r15), %r15
	movq	(%r14), %r14
	movq	0(%r13), %r13
	movq	(%r12), %r12
	movq	(%rbx), %rbx
	movq	(%rax), %rax
	movq	(%rsi), %rdi
	movq	(%r15), %r15
	movq	(%r14), %r14
	movq	0(%r13), %r13
	movq	(%r12), %r12
	movq	(%rbx), %rbx
	movq	(%rax), %rax
	movq	(%rdi), %rcx
	movq	(%r15), %r15
	movq	(%r14), %r14
	movq	0(%r13), %r13
	movq	(%r12), %r12
	movq	(%rbx), %rbx
	movq	(%rax), %rax
	movq	(%rcx), %rdx
	movq	(%r15), %r15
	movq	(%r14), %r14
	movq	0(%r13), %r13
	movq	(%r12), %r12
	movq	(%rbx), %rbx
	movq	(%rax), %rax
	movq	(%rdx), %rsi
	movq	(%r15), %r15
	movq	(%r14), %r14
	movq	0(%r13), %r13
	movq	(%r12), %r12
	movq	(%rbx), %rbx
	movq	(%rax), %rax
	movq	(%rsi), %rdi
	movq	(%r15), %r15
	movq	(%r14), %r14
	movq	0(%r13), %r13
	movq	(%r12), %r12
	movq	(%rbx), %rbx
	movq	(%rax), %rax
	movq	(%rdi), %rcx
	movq	(%r15), %r15
	movq	(%r14), %r14
	movq	0(%r13), %r13
	movq	(%r12), %r12
	movq	(%rbx), %rbx
	movq	(%rax), %rax
	movq	(%rcx), %rdx
	movq	(%r15), %r15
	movq	(%r14), %r14
	movq	0(%r13), %r13
	movq	(%r12), %r12
	movq	(%rbx), %rbx
	movq	(%rax), %rax
	movq	(%rdx), %rsi
	movq	(%r15), %r15
	movq	(%r14), %r14
	movq	0(%r13), %r13
	movq	(%r12), %r12
	movq	(%rbx), %rbx
	movq	(%rax), %rax
	movq	(%rsi), %rdi
	movq	(%r15), %r15
	movq	(%r14), %r14
	movq	0(%r13), %r13
	movq	(%r12), %r12
	movq	(%rbx), %rbx
	movq	(%rax), %rax
	movq	(%rdi), %rcx
	movq	(%r15), %r15
	movq	(%r14), %r14
	movq	0(%r13), %r13
	movq	(%r12), %r12
	movq	(%rbx), %rbx
	movq	(%rax), %rax
	movq	(%rcx), %rdx
	movq	(%r15), %r15
	movq	(%r14), %r14
	movq	0(%r13), %r13
	movq	(%r12), %r12
	movq	(%rbx), %rbx
	movq	(%rax), %rax
	movq	(%rdx), %rsi
	movq	(%r15), %r15
	movq	(%r14), %r14
	movq	0(%r13), %r13
	movq	(%r12), %r12
	movq	(%rbx), %rbx
	movq	(%rax), %rax
	movq	(%rsi), %rdi
	movq	(%r15), %r15
	movq	(%r14), %r14
	movq	0(%r13), %r13
	movq	(%r12), %r12
	movq	(%rbx), %rbx
	movq	(%rax), %rax
	movq	(%rdi), %rcx
	movq	(%r15), %r15
	movq	(%r14), %r14
	movq	0(%r13), %r13
	movq	(%r12), %r12
	movq	(%rbx), %rbx
	movq	(%rax), %rax
	movq	(%rcx), %rdx
	movq	(%r15), %r15
	movq	(%r14), %r14
	movq	0(%r13), %r13
	movq	(%r12), %r12
	movq	(%rbx), %rbx
	movq	(%rax), %rax
	movq	(%rdx), %rsi
	movq	(%r15), %r15
	movq	(%r14), %r14
	movq	0(%r13), %r13
	movq	(%r12), %r12
	movq	(%rbx), %rbx
	movq	(%rax), %rax
	movq	(%rsi), %rdi
	movq	(%r15), %r15
	movq	(%r14), %r14
	movq	0(%r13), %r13
	movq	(%r12), %r12
	movq	(%rbx), %rbx
	movq	(%rax), %rax
	movq	(%rdi), %rcx
	movq	(%r15), %r15
	movq	(%r14), %r14
	movq	0(%r13), %r13
	movq	(%r12), %r12
	movq	(%rbx), %rbx
	movq	(%rax), %rax
	movq	(%rcx), %rdx
	movq	(%r15), %r15
	movq	(%r14), %r14
	movq	0(%r13), %r13
	movq	(%r12), %r12
	movq	(%rbx), %rbx
	movq	(%rax), %rax
	movq	(%rdx), %rsi
	movq	(%r15), %r15
	movq	(%r14), %r14
	movq	0(%r13), %r13
	movq	(%r12), %r12
	movq	(%rbx), %rbx
	movq	(%rax), %rax
	movq	(%rsi), %rdi
	movq	(%r15), %r15
	movq	(%r14), %r14
	movq	0(%r13), %r13
	movq	(%r12), %r12
	movq	(%rbx), %rbx
	movq	(%rax), %rax
	movq	(%rdi), %rcx
	movq	(%r15), %r15
	movq	(%r14), %r14
	movq	0(%r13), %r13
	movq	(%r12), %r12
	movq	(%rbx), %rbx
	movq	(%rax), %rax
	movq	(%rcx), %rdx
	movq	(%r15), %r15
	movq	(%r14), %r14
	movq	0(%r13), %r13
	movq	(%r12), %r12
	movq	(%rbx), %rbx
	movq	(%rax), %rax
	movq	(%rdx), %rsi
	movq	(%r15), %r15
	movq	(%r14), %r14
	movq	0(%r13), %r13
	movq	(%r12), %r12
	movq	(%rbx), %rbx
	movq	(%rax), %rax
	movq	(%rsi), %rdi
	movq	(%r15), %r15
	movq	(%r14), %r14
	movq	0(%r13), %r13
	movq	(%r12), %r12
	movq	(%rbx), %rbx
	movq	(%rax), %rax
	movq	(%rdi), %rcx
	movq	(%r15), %r15
	movq	(%r14), %r14
	movq	0(%r13), %r13
	movq	(%r12), %r12
	movq	(%rbx), %rbx
	movq	(%rax), %rax
	movq	(%rcx), %rdx
	movq	(%r15), %r15
	movq	(%r14), %r14
	movq	0(%r13), %r13
	movq	(%r12), %r12
	movq	(%rbx), %rbx
	movq	(%rax), %rax
	movq	(%rdx), %rsi
	movq	(%r15), %r15
	movq	(%r14), %r14
	movq	0(%r13), %r13
	movq	(%r12), %r12
	movq	(%rbx), %rbx
	movq	(%rax), %rax
	movq	(%rsi), %rdi
	movq	(%r15), %r15
	movq	(%r14), %r14
	movq	0(%r13), %r13
	movq	(%r12), %r12
	movq	(%rbx), %rbx
	movq	(%rax), %rax
	movq	(%rdi), %rcx
	movq	(%r15), %r15
	movq	(%r14), %r14
	movq	0(%r13), %r13
	movq	(%r12), %r12
	movq	(%rbx), %rbx
	movq	(%rax), %rax
	movq	(%rcx), %rdx
	movq	(%r15), %r15
	movq	(%r14), %r14
	movq	0(%r13), %r13
	movq	(%r12), %r12
	movq	(%rbx), %rbx
	movq	(%rax), %rax
	movq	(%rdx), %rsi
	movq	(%r15), %r15
	movq	(%r14), %r14
	movq	0(%r13), %r13
	movq	(%r12), %r12
	movq	(%rbx), %rbx
	movq	(%rax), %rax
	movq	(%rsi), %rdi
	movq	(%r15), %r15
	movq	(%r14), %r14
	movq	0(%r13), %r13
	movq	(%r12), %r12
	movq	(%rbx), %rbx
	movq	(%rax), %rax
	movq	(%rdi), %rcx
	movq	(%r15), %r15
	movq	(%r14), %r14
	movq	0(%r13), %r13
	movq	(%r12), %r12
	movq	(%rbx), %rbx
	movq	(%rax), %rax
	movq	(%rcx), %rdx
	movq	(%r15), %r15
	movq	(%r14), %r14
	movq	0(%r13), %r13
	movq	(%r12), %r12
	movq	(%rbx), %rbx
	movq	(%rax), %rax
	movq	(%rdx), %rsi
	movq	(%r15), %r15
	movq	(%r14), %r14
	movq	0(%r13), %r13
	movq	(%r12), %r12
	movq	(%rbx), %rbx
	movq	(%rax), %rax
	movq	(%rsi), %rdi
	movq	(%r15), %r15
	movq	(%r14), %r14
	movq	0(%r13), %r13
	movq	(%r12), %r12
	movq	(%rbx), %rbx
	movq	(%rax), %rax
	movq	(%rdi), %rcx
	movq	(%r15), %r15
	movq	(%r14), %r14
	movq	0(%r13), %r13
	movq	(%r12), %r12
	movq	(%rbx), %rbx
	movq	(%rax), %rax
	movq	(%rcx), %rdx
	movq	(%r15), %r15
	movq	(%r14), %r14
	movq	0(%r13), %r13
	movq	(%r12), %r12
	movq	(%rbx), %rbx
	movq	(%rax), %rax
	movq	(%rdx), %rsi
	movq	(%r15), %r15
	movq	(%r14), %r14
	movq	0(%r13), %r13
	movq	(%r12), %r12
	movq	(%rbx), %rbx
	movq	(%rax), %rax
	movq	(%rsi), %rdi
	movq	(%r15), %r15
	movq	(%r14), %r14
	movq	0(%r13), %r13
	movq	(%r12), %r12
	movq	(%rbx), %rbx
	movq	(%rax), %rax
	movq	(%rdi), %rcx
	movq	(%r15), %r15
	movq	(%r14), %r14
	movq	0(%r13), %r13
	movq	(%r12), %r12
	movq	(%rbx), %rbx
	movq	(%rax), %rax
	movq	(%rcx), %rdx
	movq	(%r15), %r15
	movq	(%r14), %r14
	movq	0(%r13), %r13
	movq	(%r12), %r12
	movq	(%rbx), %rbx
	movq	(%rax), %rax
	movq	(%rdx), %rsi
	movq	(%r15), %r15
	movq	(%r14), %r14
	movq	0(%r13), %r13
	movq	(%r12), %r12
	movq	(%rbx), %rbx
	movq	(%rax), %rax
	movq	(%rsi), %rdi
	movq	(%r15), %r15
	movq	(%r14), %r14
	movq	0(%r13), %r13
	movq	(%r12), %r12
	movq	(%rbx), %rbx
	movq	(%rax), %rax
	movq	(%rdi), %rcx
	movq	(%r15), %r15
	movq	(%r14), %r14
	movq	0(%r13), %r13
	movq	(%r12), %r12
	movq	(%rbx), %rbx
	movq	(%rax), %rax
	movq	(%rcx), %rdx
	movq	(%r15), %r15
	movq	(%r14), %r14
	movq	0(%r13), %r13
	movq	(%r12), %r12
	movq	(%rbx), %rbx
	movq	(%rax), %rax
	movq	(%rdx), %rsi
	movq	(%r15), %r15
	movq	(%r14), %r14
	movq	0(%r13), %r13
	movq	(%r12), %r12
	movq	(%rbx), %rbx
	movq	(%rax), %rax
	movq	(%rsi), %rdi
	movq	(%r15), %r15
	movq	(%r14), %r14
	movq	0(%r13), %r13
	movq	(%r12), %r12
	movq	(%rbx), %rbx
	movq	(%rax), %rax
	movq	(%rdi), %rcx
	movq	(%r15), %r15
	movq	(%r14), %r14
	movq	0(%r13), %r13
	movq	(%r12), %r12
	movq	(%rbx), %rbx
	movq	(%rax), %rax
	movq	(%rcx), %rdx
	movq	(%r15), %r15
	movq	(%r14), %r14
	movq	0(%r13), %r13
	movq	(%r12), %r12
	movq	(%rbx), %rbx
	movq	(%rax), %rax
	movq	(%rdx), %rsi
	movq	(%r15), %r15
	movq	(%r14), %r14
	movq	0(%r13), %r13
	movq	(%r12), %r12
	movq	(%rbx), %rbx
	movq	(%rax), %rax
	movq	(%rsi), %rdi
	movq	(%r15), %r15
	movq	(%r14), %r14
	movq	0(%r13), %r13
	movq	(%r12), %r12
	movq	(%rbx), %rbx
	movq	(%rax), %rax
	movq	(%rdi), %rcx
	movq	(%r15), %r15
	movq	(%r14), %r14
	movq	0(%r13), %r13
	movq	(%r12), %r12
	movq	(%rbx), %rbx
	movq	(%rax), %rax
	movq	(%rcx), %rdx
	movq	(%r15), %r15
	movq	(%r14), %r14
	movq	0(%r13), %r13
	movq	(%r12), %r12
	movq	(%rbx), %rbx
	movq	(%rax), %rax
	movq	(%rdx), %rsi
	movq	(%r15), %r15
	movq	(%r14), %r14
	movq	0(%r13), %r13
	movq	(%r12), %r12
	movq	(%rbx), %rbx
	movq	(%rax), %rax
	movq	(%rsi), %rdi
	movq	(%r15), %r15
	movq	(%r14), %r14
	movq	0(%r13), %r13
	movq	(%r12), %r12
	movq	(%rbx), %rbx
	movq	(%rax), %rax
	movq	(%rdi), %rcx
	movq	(%r15), %r15
	movq	(%r14), %r14
	movq	0(%r13), %r13
	movq	(%r12), %r12
	movq	(%rbx), %rbx
	movq	(%rax), %rax
	movq	(%rcx), %rdx
	movq	(%r15), %r15
	movq	(%r14), %r14
	movq	0(%r13), %r13
	movq	(%r12), %r12
	movq	(%rbx), %rbx
	movq	(%rax), %rax
	movq	(%rdx), %rsi
	movq	(%r15), %r15
	movq	(%r14), %r14
	movq	0(%r13), %r13
	movq	(%r12), %r12
	movq	(%rbx), %rbx
	movq	(%rax), %rax
	movq	%rax, %rdi
	movq	(%rsi), %rax
	movq	%rax, %rcx
	movq	(%r15), %r15
	movq	(%r14), %r14
	movq	0(%r13), %r13
	movq	(%r12), %r12
	movq	(%rbx), %rbx
.L104:
	movq	-64(%rbp), %rax
	leaq	-1(%rax), %rdx
	movq	%rdx, -64(%rbp)
	testq	%rax, %rax
	jne	.L105
	movq	%rdi, %rax
	movq	%rax, sp0.125(%rip)
	movq	%rcx, %rax
	movq	%rax, sp1.124(%rip)
	movq	%r15, sp2.123(%rip)
	movq	%r14, sp3.122(%rip)
	movq	%r13, sp4.121(%rip)
	movq	%r12, sp5.120(%rip)
	movq	%rbx, sp6.119(%rip)
	movq	-48(%rbp), %rax
	movq	(%rax), %rax
	movq	%rax, addr_save.126(%rip)
	movl	$1, mem_benchmark_rerun(%rip)
	popq	%rbx
	popq	%r12
	popq	%r13
	popq	%r14
	popq	%r15
	popq	%rbp
	.cfi_def_cfa 7, 8
	ret
	.cfi_endproc
.LFE14:
	.size	mem_benchmark_6, .-mem_benchmark_6
	.globl	mem_benchmark_7
	.type	mem_benchmark_7, @function
mem_benchmark_7:
.LFB15:
	.cfi_startproc
	endbr64
	pushq	%rbp
	.cfi_def_cfa_offset 16
	.cfi_offset 6, -16
	movq	%rsp, %rbp
	.cfi_def_cfa_register 6
	pushq	%r15
	pushq	%r14
	pushq	%r13
	pushq	%r12
	pushq	%rbx
	.cfi_offset 15, -24
	.cfi_offset 14, -32
	.cfi_offset 13, -40
	.cfi_offset 12, -48
	.cfi_offset 3, -56
	movq	%rdi, -64(%rbp)
	movq	%rsi, -72(%rbp)
	movq	-72(%rbp), %rax
	movq	%rax, -48(%rbp)
	movl	mem_benchmark_rerun(%rip), %eax
	testl	%eax, %eax
	je	.L107
	movq	-48(%rbp), %rax
	movq	(%rax), %rdx
	movq	addr_save.118(%rip), %rax
	cmpq	%rax, %rdx
	je	.L108
.L107:
	movq	-48(%rbp), %rax
	movq	16(%rax), %rax
	jmp	.L109
.L108:
	movq	sp0.117(%rip), %rax
.L109:
	movq	%rax, %rsi
	movl	mem_benchmark_rerun(%rip), %eax
	testl	%eax, %eax
	je	.L110
	movq	-48(%rbp), %rax
	movq	(%rax), %rdx
	movq	addr_save.118(%rip), %rax
	cmpq	%rax, %rdx
	je	.L111
.L110:
	movq	-48(%rbp), %rax
	movq	24(%rax), %rax
	jmp	.L112
.L111:
	movq	sp1.116(%rip), %rax
.L112:
	movq	%rax, %rcx
	movl	mem_benchmark_rerun(%rip), %eax
	testl	%eax, %eax
	je	.L113
	movq	-48(%rbp), %rax
	movq	(%rax), %rdx
	movq	addr_save.118(%rip), %rax
	cmpq	%rax, %rdx
	je	.L114
.L113:
	movq	-48(%rbp), %rax
	movq	32(%rax), %rax
	jmp	.L115
.L114:
	movq	sp2.115(%rip), %rax
.L115:
	movq	%rax, %rdi
	movl	mem_benchmark_rerun(%rip), %eax
	testl	%eax, %eax
	je	.L116
	movq	-48(%rbp), %rax
	movq	(%rax), %rdx
	movq	addr_save.118(%rip), %rax
	cmpq	%rax, %rdx
	je	.L117
.L116:
	movq	-48(%rbp), %rax
	movq	40(%rax), %rax
	jmp	.L118
.L117:
	movq	sp3.114(%rip), %rax
.L118:
	movq	%rax, %r15
	movl	mem_benchmark_rerun(%rip), %eax
	testl	%eax, %eax
	je	.L119
	movq	-48(%rbp), %rax
	movq	(%rax), %rdx
	movq	addr_save.118(%rip), %rax
	cmpq	%rax, %rdx
	je	.L120
.L119:
	movq	-48(%rbp), %rax
	movq	48(%rax), %rax
	jmp	.L121
.L120:
	movq	sp4.113(%rip), %rax
.L121:
	movq	%rax, %r14
	movl	mem_benchmark_rerun(%rip), %eax
	testl	%eax, %eax
	je	.L122
	movq	-48(%rbp), %rax
	movq	(%rax), %rdx
	movq	addr_save.118(%rip), %rax
	cmpq	%rax, %rdx
	je	.L123
.L122:
	movq	-48(%rbp), %rax
	movq	56(%rax), %rax
	jmp	.L124
.L123:
	movq	sp5.112(%rip), %rax
.L124:
	movq	%rax, %r13
	movl	mem_benchmark_rerun(%rip), %eax
	testl	%eax, %eax
	je	.L125
	movq	-48(%rbp), %rax
	movq	(%rax), %rdx
	movq	addr_save.118(%rip), %rax
	cmpq	%rax, %rdx
	je	.L126
.L125:
	movq	-48(%rbp), %rax
	movq	64(%rax), %rax
	jmp	.L127
.L126:
	movq	sp6.111(%rip), %rax
.L127:
	movq	%rax, %r12
	movl	mem_benchmark_rerun(%rip), %eax
	testl	%eax, %eax
	je	.L128
	movq	-48(%rbp), %rax
	movq	(%rax), %rdx
	movq	addr_save.118(%rip), %rax
	cmpq	%rax, %rdx
	je	.L129
.L128:
	movq	-48(%rbp), %rax
	movq	72(%rax), %rax
	jmp	.L130
.L129:
	movq	sp7.110(%rip), %rax
.L130:
	movq	%rax, %rbx
	jmp	.L131
.L132:
	movq	%rsi, %rax
	movq	(%rax), %rax
	movq	(%rcx), %rsi
	movq	(%rdi), %rcx
	movq	(%r15), %r15
	movq	(%r14), %r14
	movq	0(%r13), %r13
	movq	(%r12), %r12
	movq	(%rbx), %rbx
	movq	(%rax), %rax
	movq	(%rsi), %rdi
	movq	(%rcx), %rsi
	movq	(%r15), %r15
	movq	(%r14), %r14
	movq	0(%r13), %r13
	movq	(%r12), %r12
	movq	(%rbx), %rbx
	movq	(%rax), %rax
	movq	(%rdi), %rcx
	movq	(%rsi), %rdi
	movq	(%r15), %r15
	movq	(%r14), %r14
	movq	0(%r13), %r13
	movq	(%r12), %r12
	movq	(%rbx), %rbx
	movq	(%rax), %rax
	movq	(%rcx), %rsi
	movq	(%rdi), %rcx
	movq	(%r15), %r15
	movq	(%r14), %r14
	movq	0(%r13), %r13
	movq	(%r12), %r12
	movq	(%rbx), %rbx
	movq	(%rax), %rax
	movq	(%rsi), %rdi
	movq	(%rcx), %rdx
	movq	(%r15), %r15
	movq	(%r14), %r14
	movq	0(%r13), %r13
	movq	(%r12), %r12
	movq	(%rbx), %rbx
	movq	(%rax), %rax
	movq	(%rdi), %rsi
	movq	(%rdx), %rcx
	movq	(%r15), %r15
	movq	(%r14), %r14
	movq	0(%r13), %r13
	movq	(%r12), %r12
	movq	(%rbx), %rbx
	movq	(%rax), %rax
	movq	(%rsi), %rdi
	movq	(%rcx), %rdx
	movq	(%r15), %r15
	movq	(%r14), %r14
	movq	0(%r13), %r13
	movq	(%r12), %r12
	movq	(%rbx), %rbx
	movq	(%rax), %rax
	movq	(%rdi), %rsi
	movq	(%rdx), %rcx
	movq	(%r15), %r15
	movq	(%r14), %r14
	movq	0(%r13), %r13
	movq	(%r12), %r12
	movq	(%rbx), %rbx
	movq	(%rax), %rax
	movq	(%rsi), %rdi
	movq	(%rcx), %rdx
	movq	(%r15), %r15
	movq	(%r14), %r14
	movq	0(%r13), %r13
	movq	(%r12), %r12
	movq	(%rbx), %rbx
	movq	(%rax), %rax
	movq	(%rdi), %rsi
	movq	(%rdx), %rcx
	movq	(%r15), %r15
	movq	(%r14), %r14
	movq	0(%r13), %r13
	movq	(%r12), %r12
	movq	(%rbx), %rbx
	movq	(%rax), %rax
	movq	(%rsi), %rdi
	movq	(%rcx), %rdx
	movq	(%r15), %r15
	movq	(%r14), %r14
	movq	0(%r13), %r13
	movq	(%r12), %r12
	movq	(%rbx), %rbx
	movq	(%rax), %rax
	movq	(%rdi), %rsi
	movq	(%rdx), %rcx
	movq	(%r15), %r15
	movq	(%r14), %r14
	movq	0(%r13), %r13
	movq	(%r12), %r12
	movq	(%rbx), %rbx
	movq	(%rax), %rax
	movq	(%rsi), %rdi
	movq	(%rcx), %rdx
	movq	(%r15), %r15
	movq	(%r14), %r14
	movq	0(%r13), %r13
	movq	(%r12), %r12
	movq	(%rbx), %rbx
	movq	(%rax), %rax
	movq	(%rdi), %rsi
	movq	(%rdx), %rcx
	movq	(%r15), %r15
	movq	(%r14), %r14
	movq	0(%r13), %r13
	movq	(%r12), %r12
	movq	(%rbx), %rbx
	movq	(%rax), %rax
	movq	(%rsi), %rdi
	movq	(%rcx), %rdx
	movq	(%r15), %r15
	movq	(%r14), %r14
	movq	0(%r13), %r13
	movq	(%r12), %r12
	movq	(%rbx), %rbx
	movq	(%rax), %rax
	movq	(%rdi), %rsi
	movq	(%rdx), %rcx
	movq	(%r15), %r15
	movq	(%r14), %r14
	movq	0(%r13), %r13
	movq	(%r12), %r12
	movq	(%rbx), %rbx
	movq	(%rax), %rax
	movq	(%rsi), %rdi
	movq	(%rcx), %rdx
	movq	(%r15), %r15
	movq	(%r14), %r14
	movq	0(%r13), %r13
	movq	(%r12), %r12
	movq	(%rbx), %rbx
	movq	(%rax), %rax
	movq	(%rdi), %rsi
	movq	(%rdx), %rcx
	movq	(%r15), %r15
	movq	(%r14), %r14
	movq	0(%r13), %r13
	movq	(%r12), %r12
	movq	(%rbx), %rbx
	movq	(%rax), %rax
	movq	(%rsi), %rdi
	movq	(%rcx), %rdx
	movq	(%r15), %r15
	movq	(%r14), %r14
	movq	0(%r13), %r13
	movq	(%r12), %r12
	movq	(%rbx), %rbx
	movq	(%rax), %rax
	movq	(%rdi), %rsi
	movq	(%rdx), %rcx
	movq	(%r15), %r15
	movq	(%r14), %r14
	movq	0(%r13), %r13
	movq	(%r12), %r12
	movq	(%rbx), %rbx
	movq	(%rax), %rax
	movq	(%rsi), %rdi
	movq	(%rcx), %rdx
	movq	(%r15), %r15
	movq	(%r14), %r14
	movq	0(%r13), %r13
	movq	(%r12), %r12
	movq	(%rbx), %rbx
	movq	(%rax), %rax
	movq	(%rdi), %rsi
	movq	(%rdx), %rcx
	movq	(%r15), %r15
	movq	(%r14), %r14
	movq	0(%r13), %r13
	movq	(%r12), %r12
	movq	(%rbx), %rbx
	movq	(%rax), %rax
	movq	(%rsi), %rdi
	movq	(%rcx), %rdx
	movq	(%r15), %r15
	movq	(%r14), %r14
	movq	0(%r13), %r13
	movq	(%r12), %r12
	movq	(%rbx), %rbx
	movq	(%rax), %rax
	movq	(%rdi), %rsi
	movq	(%rdx), %rcx
	movq	(%r15), %r15
	movq	(%r14), %r14
	movq	0(%r13), %r13
	movq	(%r12), %r12
	movq	(%rbx), %rbx
	movq	(%rax), %rax
	movq	(%rsi), %rdi
	movq	(%rcx), %rdx
	movq	(%r15), %r15
	movq	(%r14), %r14
	movq	0(%r13), %r13
	movq	(%r12), %r12
	movq	(%rbx), %rbx
	movq	(%rax), %rax
	movq	(%rdi), %rsi
	movq	(%rdx), %rcx
	movq	(%r15), %r15
	movq	(%r14), %r14
	movq	0(%r13), %r13
	movq	(%r12), %r12
	movq	(%rbx), %rbx
	movq	(%rax), %rax
	movq	(%rsi), %rdi
	movq	(%rcx), %rdx
	movq	(%r15), %r15
	movq	(%r14), %r14
	movq	0(%r13), %r13
	movq	(%r12), %r12
	movq	(%rbx), %rbx
	movq	(%rax), %rax
	movq	(%rdi), %rsi
	movq	(%rdx), %rcx
	movq	(%r15), %r15
	movq	(%r14), %r14
	movq	0(%r13), %r13
	movq	(%r12), %r12
	movq	(%rbx), %rbx
	movq	(%rax), %rax
	movq	(%rsi), %rdi
	movq	(%rcx), %rdx
	movq	(%r15), %r15
	movq	(%r14), %r14
	movq	0(%r13), %r13
	movq	(%r12), %r12
	movq	(%rbx), %rbx
	movq	(%rax), %rax
	movq	(%rdi), %rsi
	movq	(%rdx), %rcx
	movq	(%r15), %r15
	movq	(%r14), %r14
	movq	0(%r13), %r13
	movq	(%r12), %r12
	movq	(%rbx), %rbx
	movq	(%rax), %rax
	movq	(%rsi), %rdi
	movq	(%rcx), %rdx
	movq	(%r15), %r15
	movq	(%r14), %r14
	movq	0(%r13), %r13
	movq	(%r12), %r12
	movq	(%rbx), %rbx
	movq	(%rax), %rax
	movq	(%rdi), %rsi
	movq	(%rdx), %rcx
	movq	(%r15), %r15
	movq	(%r14), %r14
	movq	0(%r13), %r13
	movq	(%r12), %r12
	movq	(%rbx), %rbx
	movq	(%rax), %rax
	movq	(%rsi), %rdi
	movq	(%rcx), %rdx
	movq	(%r15), %r15
	movq	(%r14), %r14
	movq	0(%r13), %r13
	movq	(%r12), %r12
	movq	(%rbx), %rbx
	movq	(%rax), %rax
	movq	(%rdi), %rsi
	movq	(%rdx), %rcx
	movq	(%r15), %r15
	movq	(%r14), %r14
	movq	0(%r13), %r13
	movq	(%r12), %r12
	movq	(%rbx), %rbx
	movq	(%rax), %rax
	movq	(%rsi), %rdi
	movq	(%rcx), %rdx
	movq	(%r15), %r15
	movq	(%r14), %r14
	movq	0(%r13), %r13
	movq	(%r12), %r12
	movq	(%rbx), %rbx
	movq	(%rax), %rax
	movq	(%rdi), %rsi
	movq	(%rdx), %rcx
	movq	(%r15), %r15
	movq	(%r14), %r14
	movq	0(%r13), %r13
	movq	(%r12), %r12
	movq	(%rbx), %rbx
	movq	(%rax), %rax
	movq	(%rsi), %rdi
	movq	(%rcx), %rdx
	movq	(%r15), %r15
	movq	(%r14), %r14
	movq	0(%r13), %r13
	movq	(%r12), %r12
	movq	(%rbx), %rbx
	movq	(%rax), %rax
	movq	(%rdi), %rsi
	movq	(%rdx), %rcx
	movq	(%r15), %r15
	movq	(%r14), %r14
	movq	0(%r13), %r13
	movq	(%r12), %r12
	movq	(%rbx), %rbx
	movq	(%rax), %rax
	movq	(%rsi), %rdi
	movq	(%rcx), %rdx
	movq	(%r15), %r15
	movq	(%r14), %r14
	movq	0(%r13), %r13
	movq	(%r12), %r12
	movq	(%rbx), %rbx
	movq	(%rax), %rax
	movq	(%rdi), %rsi
	movq	(%rdx), %rcx
	movq	(%r15), %r15
	movq	(%r14), %r14
	movq	0(%r13), %r13
	movq	(%r12), %r12
	movq	(%rbx), %rbx
	movq	(%rax), %rax
	movq	(%rsi), %rdi
	movq	(%rcx), %rdx
	movq	(%r15), %r15
	movq	(%r14), %r14
	movq	0(%r13), %r13
	movq	(%r12), %r12
	movq	(%rbx), %rbx
	movq	(%rax), %rax
	movq	(%rdi), %rsi
	movq	(%rdx), %rcx
	movq	(%r15), %r15
	movq	(%r14), %r14
	movq	0(%r13), %r13
	movq	(%r12), %r12
	movq	(%rbx), %rbx
	movq	(%rax), %rax
	movq	(%rsi), %rdi
	movq	(%rcx), %rdx
	movq	(%r15), %r15
	movq	(%r14), %r14
	movq	0(%r13), %r13
	movq	(%r12), %r12
	movq	(%rbx), %rbx
	movq	(%rax), %rax
	movq	(%rdi), %rsi
	movq	(%rdx), %rcx
	movq	(%r15), %r15
	movq	(%r14), %r14
	movq	0(%r13), %r13
	movq	(%r12), %r12
	movq	(%rbx), %rbx
	movq	(%rax), %rax
	movq	(%rsi), %rdi
	movq	(%rcx), %rdx
	movq	(%r15), %r15
	movq	(%r14), %r14
	movq	0(%r13), %r13
	movq	(%r12), %r12
	movq	(%rbx), %rbx
	movq	(%rax), %rax
	movq	(%rdi), %rsi
	movq	(%rdx), %rcx
	movq	(%r15), %r15
	movq	(%r14), %r14
	movq	0(%r13), %r13
	movq	(%r12), %r12
	movq	(%rbx), %rbx
	movq	(%rax), %rax
	movq	(%rsi), %rdi
	movq	(%rcx), %rdx
	movq	(%r15), %r15
	movq	(%r14), %r14
	movq	0(%r13), %r13
	movq	(%r12), %r12
	movq	(%rbx), %rbx
	movq	(%rax), %rax
	movq	(%rdi), %rsi
	movq	(%rdx), %rcx
	movq	(%r15), %r15
	movq	(%r14), %r14
	movq	0(%r13), %r13
	movq	(%r12), %r12
	movq	(%rbx), %rbx
	movq	(%rax), %rax
	movq	(%rsi), %rdi
	movq	(%rcx), %rdx
	movq	(%r15), %r15
	movq	(%r14), %r14
	movq	0(%r13), %r13
	movq	(%r12), %r12
	movq	(%rbx), %rbx
	movq	(%rax), %rax
	movq	(%rdi), %rsi
	movq	(%rdx), %rcx
	movq	(%r15), %r15
	movq	(%r14), %r14
	movq	0(%r13), %r13
	movq	(%r12), %r12
	movq	(%rbx), %rbx
	movq	(%rax), %rax
	movq	(%rsi), %rdi
	movq	(%rcx), %rdx
	movq	(%r15), %r15
	movq	(%r14), %r14
	movq	0(%r13), %r13
	movq	(%r12), %r12
	movq	(%rbx), %rbx
	movq	(%rax), %rax
	movq	(%rdi), %rsi
	movq	(%rdx), %rcx
	movq	(%r15), %r15
	movq	(%r14), %r14
	movq	0(%r13), %r13
	movq	(%r12), %r12
	movq	(%rbx), %rbx
	movq	(%rax), %rax
	movq	(%rsi), %rdi
	movq	(%rcx), %rdx
	movq	(%r15), %r15
	movq	(%r14), %r14
	movq	0(%r13), %r13
	movq	(%r12), %r12
	movq	(%rbx), %rbx
	movq	(%rax), %rax
	movq	(%rdi), %rsi
	movq	(%rdx), %rcx
	movq	(%r15), %r15
	movq	(%r14), %r14
	movq	0(%r13), %r13
	movq	(%r12), %r12
	movq	(%rbx), %rbx
	movq	(%rax), %rax
	movq	(%rsi), %rdi
	movq	(%rcx), %rdx
	movq	(%r15), %r15
	movq	(%r14), %r14
	movq	0(%r13), %r13
	movq	(%r12), %r12
	movq	(%rbx), %rbx
	movq	(%rax), %rax
	movq	(%rdi), %rsi
	movq	(%rdx), %rcx
	movq	(%r15), %r15
	movq	(%r14), %r14
	movq	0(%r13), %r13
	movq	(%r12), %r12
	movq	(%rbx), %rbx
	movq	(%rax), %rax
	movq	(%rsi), %rdi
	movq	(%rcx), %rdx
	movq	(%r15), %r15
	movq	(%r14), %r14
	movq	0(%r13), %r13
	movq	(%r12), %r12
	movq	(%rbx), %rbx
	movq	(%rax), %rax
	movq	(%rdi), %rsi
	movq	(%rdx), %rcx
	movq	(%r15), %r15
	movq	(%r14), %r14
	movq	0(%r13), %r13
	movq	(%r12), %r12
	movq	(%rbx), %rbx
	movq	(%rax), %rax
	movq	(%rsi), %rdi
	movq	(%rcx), %rdx
	movq	(%r15), %r15
	movq	(%r14), %r14
	movq	0(%r13), %r13
	movq	(%r12), %r12
	movq	(%rbx), %rbx
	movq	(%rax), %rax
	movq	(%rdi), %rsi
	movq	(%rdx), %rcx
	movq	(%r15), %r15
	movq	(%r14), %r14
	movq	0(%r13), %r13
	movq	(%r12), %r12
	movq	(%rbx), %rbx
	movq	(%rax), %rax
	movq	(%rsi), %rdi
	movq	(%rcx), %rdx
	movq	(%r15), %r15
	movq	(%r14), %r14
	movq	0(%r13), %r13
	movq	(%r12), %r12
	movq	(%rbx), %rbx
	movq	(%rax), %rax
	movq	(%rdi), %rsi
	movq	(%rdx), %rcx
	movq	(%r15), %r15
	movq	(%r14), %r14
	movq	0(%r13), %r13
	movq	(%r12), %r12
	movq	(%rbx), %rbx
	movq	(%rax), %rax
	movq	(%rsi), %rdi
	movq	(%rcx), %rdx
	movq	(%r15), %r15
	movq	(%r14), %r14
	movq	0(%r13), %r13
	movq	(%r12), %r12
	movq	(%rbx), %rbx
	movq	(%rax), %rax
	movq	(%rdi), %rsi
	movq	(%rdx), %rcx
	movq	(%r15), %r15
	movq	(%r14), %r14
	movq	0(%r13), %r13
	movq	(%r12), %r12
	movq	(%rbx), %rbx
	movq	(%rax), %rax
	movq	(%rsi), %rdi
	movq	(%rcx), %rdx
	movq	(%r15), %r15
	movq	(%r14), %r14
	movq	0(%r13), %r13
	movq	(%r12), %r12
	movq	(%rbx), %rbx
	movq	(%rax), %rax
	movq	(%rdi), %rsi
	movq	(%rdx), %rcx
	movq	(%r15), %r15
	movq	(%r14), %r14
	movq	0(%r13), %r13
	movq	(%r12), %r12
	movq	(%rbx), %rbx
	movq	(%rax), %rax
	movq	(%rsi), %rdi
	movq	(%rcx), %rdx
	movq	(%r15), %r15
	movq	(%r14), %r14
	movq	0(%r13), %r13
	movq	(%r12), %r12
	movq	(%rbx), %rbx
	movq	(%rax), %rax
	movq	(%rdi), %rsi
	movq	(%rdx), %rcx
	movq	(%r15), %r15
	movq	(%r14), %r14
	movq	0(%r13), %r13
	movq	(%r12), %r12
	movq	(%rbx), %rbx
	movq	(%rax), %rax
	movq	(%rsi), %rdi
	movq	(%rcx), %rdx
	movq	(%r15), %r15
	movq	(%r14), %r14
	movq	0(%r13), %r13
	movq	(%r12), %r12
	movq	(%rbx), %rbx
	movq	(%rax), %rax
	movq	(%rdi), %rsi
	movq	(%rdx), %rcx
	movq	(%r15), %r15
	movq	(%r14), %r14
	movq	0(%r13), %r13
	movq	(%r12), %r12
	movq	(%rbx), %rbx
	movq	(%rax), %rax
	movq	(%rsi), %rdi
	movq	(%rcx), %rdx
	movq	(%r15), %r15
	movq	(%r14), %r14
	movq	0(%r13), %r13
	movq	(%r12), %r12
	movq	(%rbx), %rbx
	movq	(%rax), %rax
	movq	(%rdi), %rsi
	movq	(%rdx), %rcx
	movq	(%r15), %r15
	movq	(%r14), %r14
	movq	0(%r13), %r13
	movq	(%r12), %r12
	movq	(%rbx), %rbx
	movq	(%rax), %rax
	movq	(%rsi), %rdi
	movq	(%rcx), %rdx
	movq	(%r15), %r15
	movq	(%r14), %r14
	movq	0(%r13), %r13
	movq	(%r12), %r12
	movq	(%rbx), %rbx
	movq	(%rax), %rax
	movq	(%rdi), %rsi
	movq	(%rdx), %rcx
	movq	(%r15), %r15
	movq	(%r14), %r14
	movq	0(%r13), %r13
	movq	(%r12), %r12
	movq	(%rbx), %rbx
	movq	(%rax), %rax
	movq	(%rsi), %rdi
	movq	(%rcx), %rdx
	movq	(%r15), %r15
	movq	(%r14), %r14
	movq	0(%r13), %r13
	movq	(%r12), %r12
	movq	(%rbx), %rbx
	movq	(%rax), %rax
	movq	(%rdi), %rsi
	movq	(%rdx), %rcx
	movq	(%r15), %r15
	movq	(%r14), %r14
	movq	0(%r13), %r13
	movq	(%r12), %r12
	movq	(%rbx), %rbx
	movq	(%rax), %rax
	movq	(%rsi), %rdi
	movq	(%rcx), %rdx
	movq	(%r15), %r15
	movq	(%r14), %r14
	movq	0(%r13), %r13
	movq	(%r12), %r12
	movq	(%rbx), %rbx
	movq	(%rax), %rax
	movq	(%rdi), %rsi
	movq	(%rdx), %rcx
	movq	(%r15), %r15
	movq	(%r14), %r14
	movq	0(%r13), %r13
	movq	(%r12), %r12
	movq	(%rbx), %rbx
	movq	(%rax), %rax
	movq	(%rsi), %rdi
	movq	(%rcx), %rdx
	movq	(%r15), %r15
	movq	(%r14), %r14
	movq	0(%r13), %r13
	movq	(%r12), %r12
	movq	(%rbx), %rbx
	movq	(%rax), %rax
	movq	(%rdi), %rsi
	movq	(%rdx), %rcx
	movq	(%r15), %r15
	movq	(%r14), %r14
	movq	0(%r13), %r13
	movq	(%r12), %r12
	movq	(%rbx), %rbx
	movq	(%rax), %rax
	movq	(%rsi), %rdi
	movq	(%rcx), %rdx
	movq	(%r15), %r15
	movq	(%r14), %r14
	movq	0(%r13), %r13
	movq	(%r12), %r12
	movq	(%rbx), %rbx
	movq	(%rax), %rax
	movq	(%rdi), %rsi
	movq	(%rdx), %rcx
	movq	(%r15), %r15
	movq	(%r14), %r14
	movq	0(%r13), %r13
	movq	(%r12), %r12
	movq	(%rbx), %rbx
	movq	(%rax), %rax
	movq	(%rsi), %rdi
	movq	(%rcx), %rdx
	movq	(%r15), %r15
	movq	(%r14), %r14
	movq	0(%r13), %r13
	movq	(%r12), %r12
	movq	(%rbx), %rbx
	movq	(%rax), %rax
	movq	(%rdi), %rsi
	movq	(%rdx), %rcx
	movq	(%r15), %r15
	movq	(%r14), %r14
	movq	0(%r13), %r13
	movq	(%r12), %r12
	movq	(%rbx), %rbx
	movq	(%rax), %rax
	movq	(%rsi), %rdi
	movq	(%rcx), %rdx
	movq	(%r15), %r15
	movq	(%r14), %r14
	movq	0(%r13), %r13
	movq	(%r12), %r12
	movq	(%rbx), %rbx
	movq	(%rax), %rax
	movq	(%rdi), %rsi
	movq	(%rdx), %rcx
	movq	(%r15), %r15
	movq	(%r14), %r14
	movq	0(%r13), %r13
	movq	(%r12), %r12
	movq	(%rbx), %rbx
	movq	(%rax), %rax
	movq	(%rsi), %rdi
	movq	(%rcx), %rdx
	movq	(%r15), %r15
	movq	(%r14), %r14
	movq	0(%r13), %r13
	movq	(%r12), %r12
	movq	(%rbx), %rbx
	movq	(%rax), %rax
	movq	(%rdi), %rsi
	movq	(%rdx), %rcx
	movq	(%r15), %r15
	movq	(%r14), %r14
	movq	0(%r13), %r13
	movq	(%r12), %r12
	movq	(%rbx), %rbx
	movq	(%rax), %rax
	movq	(%rsi), %rdi
	movq	(%rcx), %rdx
	movq	(%r15), %r15
	movq	(%r14), %r14
	movq	0(%r13), %r13
	movq	(%r12), %r12
	movq	(%rbx), %rbx
	movq	(%rax), %rax
	movq	(%rdi), %rsi
	movq	(%rdx), %rcx
	movq	(%r15), %r15
	movq	(%r14), %r14
	movq	0(%r13), %r13
	movq	(%r12), %r12
	movq	(%rbx), %rbx
	movq	(%rax), %rax
	movq	(%rsi), %rdi
	movq	(%rcx), %rdx
	movq	(%r15), %r15
	movq	(%r14), %r14
	movq	0(%r13), %r13
	movq	(%r12), %r12
	movq	(%rbx), %rbx
	movq	(%rax), %rax
	movq	(%rdi), %rsi
	movq	(%rdx), %rcx
	movq	(%r15), %r15
	movq	(%r14), %r14
	movq	0(%r13), %r13
	movq	(%r12), %r12
	movq	(%rbx), %rbx
	movq	(%rax), %rax
	movq	(%rsi), %rdi
	movq	(%rcx), %rdx
	movq	(%r15), %r15
	movq	(%r14), %r14
	movq	0(%r13), %r13
	movq	(%r12), %r12
	movq	(%rbx), %rbx
	movq	(%rax), %rax
	movq	(%rdi), %rsi
	movq	(%rdx), %rcx
	movq	(%r15), %r15
	movq	(%r14), %r14
	movq	0(%r13), %r13
	movq	(%r12), %r12
	movq	(%rbx), %rbx
	movq	(%rax), %rax
	movq	(%rsi), %rdi
	movq	(%rcx), %rdx
	movq	(%r15), %r15
	movq	(%r14), %r14
	movq	0(%r13), %r13
	movq	(%r12), %r12
	movq	(%rbx), %rbx
	movq	(%rax), %rax
	movq	(%rdi), %rsi
	movq	(%rdx), %rcx
	movq	(%r15), %r15
	movq	(%r14), %r14
	movq	0(%r13), %r13
	movq	(%r12), %r12
	movq	(%rbx), %rbx
	movq	(%rax), %rax
	movq	(%rsi), %rdi
	movq	(%rcx), %rdx
	movq	(%r15), %r15
	movq	(%r14), %r14
	movq	0(%r13), %r13
	movq	(%r12), %r12
	movq	(%rbx), %rbx
	movq	(%rax), %rax
	movq	(%rdi), %rsi
	movq	(%rdx), %rcx
	movq	(%r15), %r15
	movq	(%r14), %r14
	movq	0(%r13), %r13
	movq	(%r12), %r12
	movq	(%rbx), %rbx
	movq	(%rax), %rax
	movq	(%rsi), %rdi
	movq	(%rcx), %rdx
	movq	(%r15), %r15
	movq	(%r14), %r14
	movq	0(%r13), %r13
	movq	(%r12), %r12
	movq	(%rbx), %rbx
	movq	(%rax), %rax
	movq	%rax, %rsi
	movq	(%rdi), %rax
	movq	%rax, %rcx
	movq	(%rdx), %rax
	movq	%rax, %rdi
	movq	(%r15), %r15
	movq	(%r14), %r14
	movq	0(%r13), %r13
	movq	(%r12), %r12
	movq	(%rbx), %rbx
.L131:
	movq	-64(%rbp), %rax
	leaq	-1(%rax), %rdx
	movq	%rdx, -64(%rbp)
	testq	%rax, %rax
	jne	.L132
	movq	%rsi, %rax
	movq	%rax, sp0.117(%rip)
	movq	%rcx, %rax
	movq	%rax, sp1.116(%rip)
	movq	%rdi, %rax
	movq	%rax, sp2.115(%rip)
	movq	%r15, sp3.114(%rip)
	movq	%r14, sp4.113(%rip)
	movq	%r13, sp5.112(%rip)
	movq	%r12, sp6.111(%rip)
	movq	%rbx, sp7.110(%rip)
	movq	-48(%rbp), %rax
	movq	(%rax), %rax
	movq	%rax, addr_save.118(%rip)
	movl	$1, mem_benchmark_rerun(%rip)
	popq	%rbx
	popq	%r12
	popq	%r13
	popq	%r14
	popq	%r15
	popq	%rbp
	.cfi_def_cfa 7, 8
	ret
	.cfi_endproc
.LFE15:
	.size	mem_benchmark_7, .-mem_benchmark_7
	.globl	mem_benchmark_8
	.type	mem_benchmark_8, @function
mem_benchmark_8:
.LFB16:
	.cfi_startproc
	endbr64
	pushq	%rbp
	.cfi_def_cfa_offset 16
	.cfi_offset 6, -16
	movq	%rsp, %rbp
	.cfi_def_cfa_register 6
	pushq	%r15
	pushq	%r14
	pushq	%r13
	pushq	%r12
	pushq	%rbx
	.cfi_offset 15, -24
	.cfi_offset 14, -32
	.cfi_offset 13, -40
	.cfi_offset 12, -48
	.cfi_offset 3, -56
	movq	%rdi, -64(%rbp)
	movq	%rsi, -72(%rbp)
	movq	-72(%rbp), %rax
	movq	%rax, -48(%rbp)
	movl	mem_benchmark_rerun(%rip), %eax
	testl	%eax, %eax
	je	.L134
	movq	-48(%rbp), %rax
	movq	(%rax), %rdx
	movq	addr_save.109(%rip), %rax
	cmpq	%rax, %rdx
	je	.L135
.L134:
	movq	-48(%rbp), %rax
	movq	16(%rax), %rax
	jmp	.L136
.L135:
	movq	sp0.108(%rip), %rax
.L136:
	movq	%rax, %rsi
	movl	mem_benchmark_rerun(%rip), %eax
	testl	%eax, %eax
	je	.L137
	movq	-48(%rbp), %rax
	movq	(%rax), %rdx
	movq	addr_save.109(%rip), %rax
	cmpq	%rax, %rdx
	je	.L138
.L137:
	movq	-48(%rbp), %rax
	movq	24(%rax), %rax
	jmp	.L139
.L138:
	movq	sp1.107(%rip), %rax
.L139:
	movq	%rax, %r8
	movl	mem_benchmark_rerun(%rip), %eax
	testl	%eax, %eax
	je	.L140
	movq	-48(%rbp), %rax
	movq	(%rax), %rdx
	movq	addr_save.109(%rip), %rax
	cmpq	%rax, %rdx
	je	.L141
.L140:
	movq	-48(%rbp), %rax
	movq	32(%rax), %rax
	jmp	.L142
.L141:
	movq	sp2.106(%rip), %rax
.L142:
	movq	%rax, %r9
	movl	mem_benchmark_rerun(%rip), %eax
	testl	%eax, %eax
	je	.L143
	movq	-48(%rbp), %rax
	movq	(%rax), %rdx
	movq	addr_save.109(%rip), %rax
	cmpq	%rax, %rdx
	je	.L144
.L143:
	movq	-48(%rbp), %rax
	movq	40(%rax), %rax
	jmp	.L145
.L144:
	movq	sp3.105(%rip), %rax
.L145:
	movq	%rax, %r10
	movl	mem_benchmark_rerun(%rip), %eax
	testl	%eax, %eax
	je	.L146
	movq	-48(%rbp), %rax
	movq	(%rax), %rdx
	movq	addr_save.109(%rip), %rax
	cmpq	%rax, %rdx
	je	.L147
.L146:
	movq	-48(%rbp), %rax
	movq	48(%rax), %rax
	jmp	.L148
.L147:
	movq	sp4.104(%rip), %rax
.L148:
	movq	%rax, %r15
	movl	mem_benchmark_rerun(%rip), %eax
	testl	%eax, %eax
	je	.L149
	movq	-48(%rbp), %rax
	movq	(%rax), %rdx
	movq	addr_save.109(%rip), %rax
	cmpq	%rax, %rdx
	je	.L150
.L149:
	movq	-48(%rbp), %rax
	movq	56(%rax), %rax
	jmp	.L151
.L150:
	movq	sp5.103(%rip), %rax
.L151:
	movq	%rax, %r14
	movl	mem_benchmark_rerun(%rip), %eax
	testl	%eax, %eax
	je	.L152
	movq	-48(%rbp), %rax
	movq	(%rax), %rdx
	movq	addr_save.109(%rip), %rax
	cmpq	%rax, %rdx
	je	.L153
.L152:
	movq	-48(%rbp), %rax
	movq	64(%rax), %rax
	jmp	.L154
.L153:
	movq	sp6.102(%rip), %rax
.L154:
	movq	%rax, %r13
	movl	mem_benchmark_rerun(%rip), %eax
	testl	%eax, %eax
	je	.L155
	movq	-48(%rbp), %rax
	movq	(%rax), %rdx
	movq	addr_save.109(%rip), %rax
	cmpq	%rax, %rdx
	je	.L156
.L155:
	movq	-48(%rbp), %rax
	movq	72(%rax), %rax
	jmp	.L157
.L156:
	movq	sp7.101(%rip), %rax
.L157:
	movq	%rax, %r12
	movl	mem_benchmark_rerun(%rip), %eax
	testl	%eax, %eax
	je	.L158
	movq	-48(%rbp), %rax
	movq	(%rax), %rdx
	movq	addr_save.109(%rip), %rax
	cmpq	%rax, %rdx
	je	.L159
.L158:
	movq	-48(%rbp), %rax
	movq	80(%rax), %rax
	jmp	.L160
.L159:
	movq	sp8.100(%rip), %rax
.L160:
	movq	%rax, %rbx
	jmp	.L161
.L162:
	movq	%rsi, %rax
	movq	(%rax), %rax
	movq	%r8, %rcx
	movq	(%rcx), %rsi
	movq	%r9, %rdi
	movq	(%rdi), %rcx
	movq	%r10, %rdi
	movq	(%rdi), %rdi
	movq	(%r15), %r15
	movq	(%r14), %r14
	movq	0(%r13), %r13
	movq	(%r12), %r12
	movq	(%rbx), %rbx
	movq	(%rax), %rax
	movq	(%rsi), %rsi
	movq	(%rcx), %rcx
	movq	(%rdi), %rdi
	movq	(%r15), %r15
	movq	(%r14), %r14
	movq	0(%r13), %r13
	movq	(%r12), %r12
	movq	(%rbx), %rbx
	movq	(%rax), %rax
	movq	(%rsi), %rsi
	movq	(%rcx), %rcx
	movq	(%rdi), %rdi
	movq	(%r15), %r15
	movq	(%r14), %r14
	movq	0(%r13), %r13
	movq	(%r12), %r12
	movq	(%rbx), %rbx
	movq	(%rax), %rax
	movq	(%rsi), %rsi
	movq	(%rcx), %rdx
	movq	(%rdi), %rcx
	movq	(%r15), %r15
	movq	(%r14), %r14
	movq	0(%r13), %r13
	movq	(%r12), %r12
	movq	(%rbx), %rbx
	movq	(%rax), %rax
	movq	(%rsi), %rdi
	movq	(%rdx), %rsi
	movq	(%rcx), %rdx
	movq	(%r15), %r15
	movq	(%r14), %r14
	movq	0(%r13), %r13
	movq	(%r12), %r12
	movq	(%rbx), %rbx
	movq	(%rax), %rax
	movq	(%rdi), %rcx
	movq	(%rsi), %rdi
	movq	(%rdx), %rsi
	movq	(%r15), %r15
	movq	(%r14), %r14
	movq	0(%r13), %r13
	movq	(%r12), %r12
	movq	(%rbx), %rbx
	movq	(%rax), %rax
	movq	(%rcx), %rdx
	movq	(%rdi), %rcx
	movq	(%rsi), %rdi
	movq	(%r15), %r15
	movq	(%r14), %r14
	movq	0(%r13), %r13
	movq	(%r12), %r12
	movq	(%rbx), %rbx
	movq	(%rax), %rax
	movq	(%rdx), %rsi
	movq	(%rcx), %rdx
	movq	(%rdi), %rcx
	movq	(%r15), %r15
	movq	(%r14), %r14
	movq	0(%r13), %r13
	movq	(%r12), %r12
	movq	(%rbx), %rbx
	movq	(%rax), %rax
	movq	(%rsi), %rdi
	movq	(%rdx), %rsi
	movq	(%rcx), %rdx
	movq	(%r15), %r15
	movq	(%r14), %r14
	movq	0(%r13), %r13
	movq	(%r12), %r12
	movq	(%rbx), %rbx
	movq	(%rax), %rax
	movq	(%rdi), %rcx
	movq	(%rsi), %rdi
	movq	(%rdx), %rsi
	movq	(%r15), %r15
	movq	(%r14), %r14
	movq	0(%r13), %r13
	movq	(%r12), %r12
	movq	(%rbx), %rbx
	movq	(%rax), %rax
	movq	(%rcx), %rdx
	movq	(%rdi), %rcx
	movq	(%rsi), %rdi
	movq	(%r15), %r15
	movq	(%r14), %r14
	movq	0(%r13), %r13
	movq	(%r12), %r12
	movq	(%rbx), %rbx
	movq	(%rax), %rax
	movq	(%rdx), %rsi
	movq	(%rcx), %rdx
	movq	(%rdi), %rcx
	movq	(%r15), %r15
	movq	(%r14), %r14
	movq	0(%r13), %r13
	movq	(%r12), %r12
	movq	(%rbx), %rbx
	movq	(%rax), %rax
	movq	(%rsi), %rdi
	movq	(%rdx), %rsi
	movq	(%rcx), %rdx
	movq	(%r15), %r15
	movq	(%r14), %r14
	movq	0(%r13), %r13
	movq	(%r12), %r12
	movq	(%rbx), %rbx
	movq	(%rax), %rax
	movq	(%rdi), %rcx
	movq	(%rsi), %rdi
	movq	(%rdx), %rsi
	movq	(%r15), %r15
	movq	(%r14), %r14
	movq	0(%r13), %r13
	movq	(%r12), %r12
	movq	(%rbx), %rbx
	movq	(%rax), %rax
	movq	(%rcx), %rdx
	movq	(%rdi), %rcx
	movq	(%rsi), %rdi
	movq	(%r15), %r15
	movq	(%r14), %r14
	movq	0(%r13), %r13
	movq	(%r12), %r12
	movq	(%rbx), %rbx
	movq	(%rax), %rax
	movq	(%rdx), %rsi
	movq	(%rcx), %rdx
	movq	(%rdi), %rcx
	movq	(%r15), %r15
	movq	(%r14), %r14
	movq	0(%r13), %r13
	movq	(%r12), %r12
	movq	(%rbx), %rbx
	movq	(%rax), %rax
	movq	(%rsi), %rdi
	movq	(%rdx), %rsi
	movq	(%rcx), %rdx
	movq	(%r15), %r15
	movq	(%r14), %r14
	movq	0(%r13), %r13
	movq	(%r12), %r12
	movq	(%rbx), %rbx
	movq	(%rax), %rax
	movq	(%rdi), %rcx
	movq	(%rsi), %rdi
	movq	(%rdx), %rsi
	movq	(%r15), %r15
	movq	(%r14), %r14
	movq	0(%r13), %r13
	movq	(%r12), %r12
	movq	(%rbx), %rbx
	movq	(%rax), %rax
	movq	(%rcx), %rdx
	movq	(%rdi), %rcx
	movq	(%rsi), %rdi
	movq	(%r15), %r15
	movq	(%r14), %r14
	movq	0(%r13), %r13
	movq	(%r12), %r12
	movq	(%rbx), %rbx
	movq	(%rax), %rax
	movq	(%rdx), %rsi
	movq	(%rcx), %rdx
	movq	(%rdi), %rcx
	movq	(%r15), %r15
	movq	(%r14), %r14
	movq	0(%r13), %r13
	movq	(%r12), %r12
	movq	(%rbx), %rbx
	movq	(%rax), %rax
	movq	(%rsi), %rdi
	movq	(%rdx), %rsi
	movq	(%rcx), %rdx
	movq	(%r15), %r15
	movq	(%r14), %r14
	movq	0(%r13), %r13
	movq	(%r12), %r12
	movq	(%rbx), %rbx
	movq	(%rax), %rax
	movq	(%rdi), %rcx
	movq	(%rsi), %rdi
	movq	(%rdx), %rsi
	movq	(%r15), %r15
	movq	(%r14), %r14
	movq	0(%r13), %r13
	movq	(%r12), %r12
	movq	(%rbx), %rbx
	movq	(%rax), %rax
	movq	(%rcx), %rdx
	movq	(%rdi), %rcx
	movq	(%rsi), %rdi
	movq	(%r15), %r15
	movq	(%r14), %r14
	movq	0(%r13), %r13
	movq	(%r12), %r12
	movq	(%rbx), %rbx
	movq	(%rax), %rax
	movq	(%rdx), %rsi
	movq	(%rcx), %rdx
	movq	(%rdi), %rcx
	movq	(%r15), %r15
	movq	(%r14), %r14
	movq	0(%r13), %r13
	movq	(%r12), %r12
	movq	(%rbx), %rbx
	movq	(%rax), %rax
	movq	(%rsi), %rdi
	movq	(%rdx), %rsi
	movq	(%rcx), %rdx
	movq	(%r15), %r15
	movq	(%r14), %r14
	movq	0(%r13), %r13
	movq	(%r12), %r12
	movq	(%rbx), %rbx
	movq	(%rax), %rax
	movq	(%rdi), %rcx
	movq	(%rsi), %rdi
	movq	(%rdx), %rsi
	movq	(%r15), %r15
	movq	(%r14), %r14
	movq	0(%r13), %r13
	movq	(%r12), %r12
	movq	(%rbx), %rbx
	movq	(%rax), %rax
	movq	(%rcx), %rdx
	movq	(%rdi), %rcx
	movq	(%rsi), %rdi
	movq	(%r15), %r15
	movq	(%r14), %r14
	movq	0(%r13), %r13
	movq	(%r12), %r12
	movq	(%rbx), %rbx
	movq	(%rax), %rax
	movq	(%rdx), %rsi
	movq	(%rcx), %rdx
	movq	(%rdi), %rcx
	movq	(%r15), %r15
	movq	(%r14), %r14
	movq	0(%r13), %r13
	movq	(%r12), %r12
	movq	(%rbx), %rbx
	movq	(%rax), %rax
	movq	(%rsi), %rdi
	movq	(%rdx), %rsi
	movq	(%rcx), %rdx
	movq	(%r15), %r15
	movq	(%r14), %r14
	movq	0(%r13), %r13
	movq	(%r12), %r12
	movq	(%rbx), %rbx
	movq	(%rax), %rax
	movq	(%rdi), %rcx
	movq	(%rsi), %rdi
	movq	(%rdx), %rsi
	movq	(%r15), %r15
	movq	(%r14), %r14
	movq	0(%r13), %r13
	movq	(%r12), %r12
	movq	(%rbx), %rbx
	movq	(%rax), %rax
	movq	(%rcx), %rdx
	movq	(%rdi), %rcx
	movq	(%rsi), %rdi
	movq	(%r15), %r15
	movq	(%r14), %r14
	movq	0(%r13), %r13
	movq	(%r12), %r12
	movq	(%rbx), %rbx
	movq	(%rax), %rax
	movq	(%rdx), %rsi
	movq	(%rcx), %rdx
	movq	(%rdi), %rcx
	movq	(%r15), %r15
	movq	(%r14), %r14
	movq	0(%r13), %r13
	movq	(%r12), %r12
	movq	(%rbx), %rbx
	movq	(%rax), %rax
	movq	(%rsi), %rdi
	movq	(%rdx), %rsi
	movq	(%rcx), %rdx
	movq	(%r15), %r15
	movq	(%r14), %r14
	movq	0(%r13), %r13
	movq	(%r12), %r12
	movq	(%rbx), %rbx
	movq	(%rax), %rax
	movq	(%rdi), %rcx
	movq	(%rsi), %rdi
	movq	(%rdx), %rsi
	movq	(%r15), %r15
	movq	(%r14), %r14
	movq	0(%r13), %r13
	movq	(%r12), %r12
	movq	(%rbx), %rbx
	movq	(%rax), %rax
	movq	(%rcx), %rdx
	movq	(%rdi), %rcx
	movq	(%rsi), %rdi
	movq	(%r15), %r15
	movq	(%r14), %r14
	movq	0(%r13), %r13
	movq	(%r12), %r12
	movq	(%rbx), %rbx
	movq	(%rax), %rax
	movq	(%rdx), %rsi
	movq	(%rcx), %rdx
	movq	(%rdi), %rcx
	movq	(%r15), %r15
	movq	(%r14), %r14
	movq	0(%r13), %r13
	movq	(%r12), %r12
	movq	(%rbx), %rbx
	movq	(%rax), %rax
	movq	(%rsi), %rdi
	movq	(%rdx), %rsi
	movq	(%rcx), %rdx
	movq	(%r15), %r15
	movq	(%r14), %r14
	movq	0(%r13), %r13
	movq	(%r12), %r12
	movq	(%rbx), %rbx
	movq	(%rax), %rax
	movq	(%rdi), %rcx
	movq	(%rsi), %rdi
	movq	(%rdx), %rsi
	movq	(%r15), %r15
	movq	(%r14), %r14
	movq	0(%r13), %r13
	movq	(%r12), %r12
	movq	(%rbx), %rbx
	movq	(%rax), %rax
	movq	(%rcx), %rdx
	movq	(%rdi), %rcx
	movq	(%rsi), %rdi
	movq	(%r15), %r15
	movq	(%r14), %r14
	movq	0(%r13), %r13
	movq	(%r12), %r12
	movq	(%rbx), %rbx
	movq	(%rax), %rax
	movq	(%rdx), %rsi
	movq	(%rcx), %rdx
	movq	(%rdi), %rcx
	movq	(%r15), %r15
	movq	(%r14), %r14
	movq	0(%r13), %r13
	movq	(%r12), %r12
	movq	(%rbx), %rbx
	movq	(%rax), %rax
	movq	(%rsi), %rdi
	movq	(%rdx), %rsi
	movq	(%rcx), %rdx
	movq	(%r15), %r15
	movq	(%r14), %r14
	movq	0(%r13), %r13
	movq	(%r12), %r12
	movq	(%rbx), %rbx
	movq	(%rax), %rax
	movq	(%rdi), %rcx
	movq	(%rsi), %rdi
	movq	(%rdx), %rsi
	movq	(%r15), %r15
	movq	(%r14), %r14
	movq	0(%r13), %r13
	movq	(%r12), %r12
	movq	(%rbx), %rbx
	movq	(%rax), %rax
	movq	(%rcx), %rdx
	movq	(%rdi), %rcx
	movq	(%rsi), %rdi
	movq	(%r15), %r15
	movq	(%r14), %r14
	movq	0(%r13), %r13
	movq	(%r12), %r12
	movq	(%rbx), %rbx
	movq	(%rax), %rax
	movq	(%rdx), %rsi
	movq	(%rcx), %rdx
	movq	(%rdi), %rcx
	movq	(%r15), %r15
	movq	(%r14), %r14
	movq	0(%r13), %r13
	movq	(%r12), %r12
	movq	(%rbx), %rbx
	movq	(%rax), %rax
	movq	(%rsi), %rdi
	movq	(%rdx), %rsi
	movq	(%rcx), %rdx
	movq	(%r15), %r15
	movq	(%r14), %r14
	movq	0(%r13), %r13
	movq	(%r12), %r12
	movq	(%rbx), %rbx
	movq	(%rax), %rax
	movq	(%rdi), %rcx
	movq	(%rsi), %rdi
	movq	(%rdx), %rsi
	movq	(%r15), %r15
	movq	(%r14), %r14
	movq	0(%r13), %r13
	movq	(%r12), %r12
	movq	(%rbx), %rbx
	movq	(%rax), %rax
	movq	(%rcx), %rdx
	movq	(%rdi), %rcx
	movq	(%rsi), %rdi
	movq	(%r15), %r15
	movq	(%r14), %r14
	movq	0(%r13), %r13
	movq	(%r12), %r12
	movq	(%rbx), %rbx
	movq	(%rax), %rax
	movq	(%rdx), %rsi
	movq	(%rcx), %rdx
	movq	(%rdi), %rcx
	movq	(%r15), %r15
	movq	(%r14), %r14
	movq	0(%r13), %r13
	movq	(%r12), %r12
	movq	(%rbx), %rbx
	movq	(%rax), %rax
	movq	(%rsi), %rdi
	movq	(%rdx), %rsi
	movq	(%rcx), %rdx
	movq	(%r15), %r15
	movq	(%r14), %r14
	movq	0(%r13), %r13
	movq	(%r12), %r12
	movq	(%rbx), %rbx
	movq	(%rax), %rax
	movq	(%rdi), %rcx
	movq	(%rsi), %rdi
	movq	(%rdx), %rsi
	movq	(%r15), %r15
	movq	(%r14), %r14
	movq	0(%r13), %r13
	movq	(%r12), %r12
	movq	(%rbx), %rbx
	movq	(%rax), %rax
	movq	(%rcx), %rdx
	movq	(%rdi), %rcx
	movq	(%rsi), %rdi
	movq	(%r15), %r15
	movq	(%r14), %r14
	movq	0(%r13), %r13
	movq	(%r12), %r12
	movq	(%rbx), %rbx
	movq	(%rax), %rax
	movq	(%rdx), %rsi
	movq	(%rcx), %rdx
	movq	(%rdi), %rcx
	movq	(%r15), %r15
	movq	(%r14), %r14
	movq	0(%r13), %r13
	movq	(%r12), %r12
	movq	(%rbx), %rbx
	movq	(%rax), %rax
	movq	(%rsi), %rdi
	movq	(%rdx), %rsi
	movq	(%rcx), %rdx
	movq	(%r15), %r15
	movq	(%r14), %r14
	movq	0(%r13), %r13
	movq	(%r12), %r12
	movq	(%rbx), %rbx
	movq	(%rax), %rax
	movq	(%rdi), %rcx
	movq	(%rsi), %rdi
	movq	(%rdx), %rsi
	movq	(%r15), %r15
	movq	(%r14), %r14
	movq	0(%r13), %r13
	movq	(%r12), %r12
	movq	(%rbx), %rbx
	movq	(%rax), %rax
	movq	(%rcx), %rdx
	movq	(%rdi), %rcx
	movq	(%rsi), %rdi
	movq	(%r15), %r15
	movq	(%r14), %r14
	movq	0(%r13), %r13
	movq	(%r12), %r12
	movq	(%rbx), %rbx
	movq	(%rax), %rax
	movq	(%rdx), %rsi
	movq	(%rcx), %rdx
	movq	(%rdi), %rcx
	movq	(%r15), %r15
	movq	(%r14), %r14
	movq	0(%r13), %r13
	movq	(%r12), %r12
	movq	(%rbx), %rbx
	movq	(%rax), %rax
	movq	(%rsi), %rdi
	movq	(%rdx), %rsi
	movq	(%rcx), %rdx
	movq	(%r15), %r15
	movq	(%r14), %r14
	movq	0(%r13), %r13
	movq	(%r12), %r12
	movq	(%rbx), %rbx
	movq	(%rax), %rax
	movq	(%rdi), %rcx
	movq	(%rsi), %rdi
	movq	(%rdx), %rsi
	movq	(%r15), %r15
	movq	(%r14), %r14
	movq	0(%r13), %r13
	movq	(%r12), %r12
	movq	(%rbx), %rbx
	movq	(%rax), %rax
	movq	(%rcx), %rdx
	movq	(%rdi), %rcx
	movq	(%rsi), %rdi
	movq	(%r15), %r15
	movq	(%r14), %r14
	movq	0(%r13), %r13
	movq	(%r12), %r12
	movq	(%rbx), %rbx
	movq	(%rax), %rax
	movq	(%rdx), %rsi
	movq	(%rcx), %rdx
	movq	(%rdi), %rcx
	movq	(%r15), %r15
	movq	(%r14), %r14
	movq	0(%r13), %r13
	movq	(%r12), %r12
	movq	(%rbx), %rbx
	movq	(%rax), %rax
	movq	(%rsi), %rdi
	movq	(%rdx), %rsi
	movq	(%rcx), %rdx
	movq	(%r15), %r15
	movq	(%r14), %r14
	movq	0(%r13), %r13
	movq	(%r12), %r12
	movq	(%rbx), %rbx
	movq	(%rax), %rax
	movq	(%rdi), %rcx
	movq	(%rsi), %rdi
	movq	(%rdx), %rsi
	movq	(%r15), %r15
	movq	(%r14), %r14
	movq	0(%r13), %r13
	movq	(%r12), %r12
	movq	(%rbx), %rbx
	movq	(%rax), %rax
	movq	(%rcx), %rdx
	movq	(%rdi), %rcx
	movq	(%rsi), %rdi
	movq	(%r15), %r15
	movq	(%r14), %r14
	movq	0(%r13), %r13
	movq	(%r12), %r12
	movq	(%rbx), %rbx
	movq	(%rax), %rax
	movq	(%rdx), %rsi
	movq	(%rcx), %rdx
	movq	(%rdi), %rcx
	movq	(%r15), %r15
	movq	(%r14), %r14
	movq	0(%r13), %r13
	movq	(%r12), %r12
	movq	(%rbx), %rbx
	movq	(%rax), %rax
	movq	(%rsi), %rdi
	movq	(%rdx), %rsi
	movq	(%rcx), %rdx
	movq	(%r15), %r15
	movq	(%r14), %r14
	movq	0(%r13), %r13
	movq	(%r12), %r12
	movq	(%rbx), %rbx
	movq	(%rax), %rax
	movq	(%rdi), %rcx
	movq	(%rsi), %rdi
	movq	(%rdx), %rsi
	movq	(%r15), %r15
	movq	(%r14), %r14
	movq	0(%r13), %r13
	movq	(%r12), %r12
	movq	(%rbx), %rbx
	movq	(%rax), %rax
	movq	(%rcx), %rdx
	movq	(%rdi), %rcx
	movq	(%rsi), %rdi
	movq	(%r15), %r15
	movq	(%r14), %r14
	movq	0(%r13), %r13
	movq	(%r12), %r12
	movq	(%rbx), %rbx
	movq	(%rax), %rax
	movq	(%rdx), %rsi
	movq	(%rcx), %rdx
	movq	(%rdi), %rcx
	movq	(%r15), %r15
	movq	(%r14), %r14
	movq	0(%r13), %r13
	movq	(%r12), %r12
	movq	(%rbx), %rbx
	movq	(%rax), %rax
	movq	(%rsi), %rdi
	movq	(%rdx), %rsi
	movq	(%rcx), %rdx
	movq	(%r15), %r15
	movq	(%r14), %r14
	movq	0(%r13), %r13
	movq	(%r12), %r12
	movq	(%rbx), %rbx
	movq	(%rax), %rax
	movq	(%rdi), %rcx
	movq	(%rsi), %rdi
	movq	(%rdx), %rsi
	movq	(%r15), %r15
	movq	(%r14), %r14
	movq	0(%r13), %r13
	movq	(%r12), %r12
	movq	(%rbx), %rbx
	movq	(%rax), %rax
	movq	(%rcx), %rdx
	movq	(%rdi), %rcx
	movq	(%rsi), %rdi
	movq	(%r15), %r15
	movq	(%r14), %r14
	movq	0(%r13), %r13
	movq	(%r12), %r12
	movq	(%rbx), %rbx
	movq	(%rax), %rax
	movq	(%rdx), %rsi
	movq	(%rcx), %rdx
	movq	(%rdi), %rcx
	movq	(%r15), %r15
	movq	(%r14), %r14
	movq	0(%r13), %r13
	movq	(%r12), %r12
	movq	(%rbx), %rbx
	movq	(%rax), %rax
	movq	(%rsi), %rdi
	movq	(%rdx), %rsi
	movq	(%rcx), %rdx
	movq	(%r15), %r15
	movq	(%r14), %r14
	movq	0(%r13), %r13
	movq	(%r12), %r12
	movq	(%rbx), %rbx
	movq	(%rax), %rax
	movq	(%rdi), %rcx
	movq	(%rsi), %rdi
	movq	(%rdx), %rsi
	movq	(%r15), %r15
	movq	(%r14), %r14
	movq	0(%r13), %r13
	movq	(%r12), %r12
	movq	(%rbx), %rbx
	movq	(%rax), %rax
	movq	(%rcx), %rdx
	movq	(%rdi), %rcx
	movq	(%rsi), %rdi
	movq	(%r15), %r15
	movq	(%r14), %r14
	movq	0(%r13), %r13
	movq	(%r12), %r12
	movq	(%rbx), %rbx
	movq	(%rax), %rax
	movq	(%rdx), %rsi
	movq	(%rcx), %rdx
	movq	(%rdi), %rcx
	movq	(%r15), %r15
	movq	(%r14), %r14
	movq	0(%r13), %r13
	movq	(%r12), %r12
	movq	(%rbx), %rbx
	movq	(%rax), %rax
	movq	(%rsi), %rdi
	movq	(%rdx), %rsi
	movq	(%rcx), %rdx
	movq	(%r15), %r15
	movq	(%r14), %r14
	movq	0(%r13), %r13
	movq	(%r12), %r12
	movq	(%rbx), %rbx
	movq	(%rax), %rax
	movq	(%rdi), %rcx
	movq	(%rsi), %rdi
	movq	(%rdx), %rsi
	movq	(%r15), %r15
	movq	(%r14), %r14
	movq	0(%r13), %r13
	movq	(%r12), %r12
	movq	(%rbx), %rbx
	movq	(%rax), %rax
	movq	(%rcx), %rdx
	movq	(%rdi), %rcx
	movq	(%rsi), %rdi
	movq	(%r15), %r15
	movq	(%r14), %r14
	movq	0(%r13), %r13
	movq	(%r12), %r12
	movq	(%rbx), %rbx
	movq	(%rax), %rax
	movq	(%rdx), %rsi
	movq	(%rcx), %rdx
	movq	(%rdi), %rcx
	movq	(%r15), %r15
	movq	(%r14), %r14
	movq	0(%r13), %r13
	movq	(%r12), %r12
	movq	(%rbx), %rbx
	movq	(%rax), %rax
	movq	(%rsi), %rdi
	movq	(%rdx), %rsi
	movq	(%rcx), %rdx
	movq	(%r15), %r15
	movq	(%r14), %r14
	movq	0(%r13), %r13
	movq	(%r12), %r12
	movq	(%rbx), %rbx
	movq	(%rax), %rax
	movq	(%rdi), %rcx
	movq	(%rsi), %rdi
	movq	(%rdx), %rsi
	movq	(%r15), %r15
	movq	(%r14), %r14
	movq	0(%r13), %r13
	movq	(%r12), %r12
	movq	(%rbx), %rbx
	movq	(%rax), %rax
	movq	(%rcx), %rdx
	movq	(%rdi), %rcx
	movq	(%rsi), %rdi
	movq	(%r15), %r15
	movq	(%r14), %r14
	movq	0(%r13), %r13
	movq	(%r12), %r12
	movq	(%rbx), %rbx
	movq	(%rax), %rax
	movq	(%rdx), %rsi
	movq	(%rcx), %rdx
	movq	(%rdi), %rcx
	movq	(%r15), %r15
	movq	(%r14), %r14
	movq	0(%r13), %r13
	movq	(%r12), %r12
	movq	(%rbx), %rbx
	movq	(%rax), %rax
	movq	(%rsi), %rdi
	movq	(%rdx), %rsi
	movq	(%rcx), %rdx
	movq	(%r15), %r15
	movq	(%r14), %r14
	movq	0(%r13), %r13
	movq	(%r12), %r12
	movq	(%rbx), %rbx
	movq	(%rax), %rax
	movq	(%rdi), %rcx
	movq	(%rsi), %rdi
	movq	(%rdx), %rsi
	movq	(%r15), %r15
	movq	(%r14), %r14
	movq	0(%r13), %r13
	movq	(%r12), %r12
	movq	(%rbx), %rbx
	movq	(%rax), %rax
	movq	(%rcx), %rdx
	movq	(%rdi), %rcx
	movq	(%rsi), %rdi
	movq	(%r15), %r15
	movq	(%r14), %r14
	movq	0(%r13), %r13
	movq	(%r12), %r12
	movq	(%rbx), %rbx
	movq	(%rax), %rax
	movq	(%rdx), %rsi
	movq	(%rcx), %rdx
	movq	(%rdi), %rcx
	movq	(%r15), %r15
	movq	(%r14), %r14
	movq	0(%r13), %r13
	movq	(%r12), %r12
	movq	(%rbx), %rbx
	movq	(%rax), %rax
	movq	(%rsi), %rdi
	movq	(%rdx), %rsi
	movq	(%rcx), %rdx
	movq	(%r15), %r15
	movq	(%r14), %r14
	movq	0(%r13), %r13
	movq	(%r12), %r12
	movq	(%rbx), %rbx
	movq	(%rax), %rax
	movq	(%rdi), %rcx
	movq	(%rsi), %rdi
	movq	(%rdx), %rsi
	movq	(%r15), %r15
	movq	(%r14), %r14
	movq	0(%r13), %r13
	movq	(%r12), %r12
	movq	(%rbx), %rbx
	movq	(%rax), %rax
	movq	(%rcx), %rdx
	movq	(%rdi), %rcx
	movq	(%rsi), %rdi
	movq	(%r15), %r15
	movq	(%r14), %r14
	movq	0(%r13), %r13
	movq	(%r12), %r12
	movq	(%rbx), %rbx
	movq	(%rax), %rax
	movq	(%rdx), %rsi
	movq	(%rcx), %rdx
	movq	(%rdi), %rcx
	movq	(%r15), %r15
	movq	(%r14), %r14
	movq	0(%r13), %r13
	movq	(%r12), %r12
	movq	(%rbx), %rbx
	movq	(%rax), %rax
	movq	(%rsi), %rdi
	movq	(%rdx), %rsi
	movq	(%rcx), %rdx
	movq	(%r15), %r15
	movq	(%r14), %r14
	movq	0(%r13), %r13
	movq	(%r12), %r12
	movq	(%rbx), %rbx
	movq	(%rax), %rax
	movq	(%rdi), %rcx
	movq	(%rsi), %rdi
	movq	(%rdx), %rsi
	movq	(%r15), %r15
	movq	(%r14), %r14
	movq	0(%r13), %r13
	movq	(%r12), %r12
	movq	(%rbx), %rbx
	movq	(%rax), %rax
	movq	(%rcx), %rdx
	movq	(%rdi), %rcx
	movq	(%rsi), %rdi
	movq	(%r15), %r15
	movq	(%r14), %r14
	movq	0(%r13), %r13
	movq	(%r12), %r12
	movq	(%rbx), %rbx
	movq	(%rax), %rax
	movq	(%rdx), %rsi
	movq	(%rcx), %rdx
	movq	(%rdi), %rcx
	movq	(%r15), %r15
	movq	(%r14), %r14
	movq	0(%r13), %r13
	movq	(%r12), %r12
	movq	(%rbx), %rbx
	movq	(%rax), %rax
	movq	(%rsi), %rdi
	movq	(%rdx), %rsi
	movq	(%rcx), %rdx
	movq	(%r15), %r15
	movq	(%r14), %r14
	movq	0(%r13), %r13
	movq	(%r12), %r12
	movq	(%rbx), %rbx
	movq	(%rax), %rax
	movq	(%rdi), %rcx
	movq	(%rsi), %rdi
	movq	(%rdx), %rsi
	movq	(%r15), %r15
	movq	(%r14), %r14
	movq	0(%r13), %r13
	movq	(%r12), %r12
	movq	(%rbx), %rbx
	movq	(%rax), %rax
	movq	(%rcx), %rdx
	movq	(%rdi), %rcx
	movq	(%rsi), %rdi
	movq	(%r15), %r15
	movq	(%r14), %r14
	movq	0(%r13), %r13
	movq	(%r12), %r12
	movq	(%rbx), %rbx
	movq	(%rax), %rax
	movq	%rax, %rsi
	movq	(%rdx), %rax
	movq	%rax, %r8
	movq	(%rcx), %rax
	movq	%rax, %r9
	movq	(%rdi), %rax
	movq	%rax, %r10
	movq	(%r15), %r15
	movq	(%r14), %r14
	movq	0(%r13), %r13
	movq	(%r12), %r12
	movq	(%rbx), %rbx
.L161:
	movq	-64(%rbp), %rax
	leaq	-1(%rax), %rdx
	movq	%rdx, -64(%rbp)
	testq	%rax, %rax
	jne	.L162
	movq	%rsi, %rax
	movq	%rax, sp0.108(%rip)
	movq	%r8, %rax
	movq	%rax, sp1.107(%rip)
	movq	%r9, %rax
	movq	%rax, sp2.106(%rip)
	movq	%r10, %rax
	movq	%rax, sp3.105(%rip)
	movq	%r15, sp4.104(%rip)
	movq	%r14, sp5.103(%rip)
	movq	%r13, sp6.102(%rip)
	movq	%r12, sp7.101(%rip)
	movq	%rbx, sp8.100(%rip)
	movq	-48(%rbp), %rax
	movq	(%rax), %rax
	movq	%rax, addr_save.109(%rip)
	movl	$1, mem_benchmark_rerun(%rip)
	popq	%rbx
	popq	%r12
	popq	%r13
	popq	%r14
	popq	%r15
	popq	%rbp
	.cfi_def_cfa 7, 8
	ret
	.cfi_endproc
.LFE16:
	.size	mem_benchmark_8, .-mem_benchmark_8
	.globl	mem_benchmark_9
	.type	mem_benchmark_9, @function
mem_benchmark_9:
.LFB17:
	.cfi_startproc
	endbr64
	pushq	%rbp
	.cfi_def_cfa_offset 16
	.cfi_offset 6, -16
	movq	%rsp, %rbp
	.cfi_def_cfa_register 6
	pushq	%r15
	pushq	%r14
	pushq	%r13
	pushq	%r12
	pushq	%rbx
	.cfi_offset 15, -24
	.cfi_offset 14, -32
	.cfi_offset 13, -40
	.cfi_offset 12, -48
	.cfi_offset 3, -56
	movq	%rdi, -64(%rbp)
	movq	%rsi, -72(%rbp)
	movq	-72(%rbp), %rax
	movq	%rax, -48(%rbp)
	movl	mem_benchmark_rerun(%rip), %eax
	testl	%eax, %eax
	je	.L164
	movq	-48(%rbp), %rax
	movq	(%rax), %rdx
	movq	addr_save.99(%rip), %rax
	cmpq	%rax, %rdx
	je	.L165
.L164:
	movq	-48(%rbp), %rax
	movq	16(%rax), %rax
	jmp	.L166
.L165:
	movq	sp0.98(%rip), %rax
.L166:
	movq	%rax, %r8
	movl	mem_benchmark_rerun(%rip), %eax
	testl	%eax, %eax
	je	.L167
	movq	-48(%rbp), %rax
	movq	(%rax), %rdx
	movq	addr_save.99(%rip), %rax
	cmpq	%rax, %rdx
	je	.L168
.L167:
	movq	-48(%rbp), %rax
	movq	24(%rax), %rax
	jmp	.L169
.L168:
	movq	sp1.97(%rip), %rax
.L169:
	movq	%rax, %rsi
	movl	mem_benchmark_rerun(%rip), %eax
	testl	%eax, %eax
	je	.L170
	movq	-48(%rbp), %rax
	movq	(%rax), %rdx
	movq	addr_save.99(%rip), %rax
	cmpq	%rax, %rdx
	je	.L171
.L170:
	movq	-48(%rbp), %rax
	movq	32(%rax), %rax
	jmp	.L172
.L171:
	movq	sp2.96(%rip), %rax
.L172:
	movq	%rax, %r9
	movl	mem_benchmark_rerun(%rip), %eax
	testl	%eax, %eax
	je	.L173
	movq	-48(%rbp), %rax
	movq	(%rax), %rdx
	movq	addr_save.99(%rip), %rax
	cmpq	%rax, %rdx
	je	.L174
.L173:
	movq	-48(%rbp), %rax
	movq	40(%rax), %rax
	jmp	.L175
.L174:
	movq	sp3.95(%rip), %rax
.L175:
	movq	%rax, %r10
	movl	mem_benchmark_rerun(%rip), %eax
	testl	%eax, %eax
	je	.L176
	movq	-48(%rbp), %rax
	movq	(%rax), %rdx
	movq	addr_save.99(%rip), %rax
	cmpq	%rax, %rdx
	je	.L177
.L176:
	movq	-48(%rbp), %rax
	movq	48(%rax), %rax
	jmp	.L178
.L177:
	movq	sp4.94(%rip), %rax
.L178:
	movq	%rax, %r11
	movl	mem_benchmark_rerun(%rip), %eax
	testl	%eax, %eax
	je	.L179
	movq	-48(%rbp), %rax
	movq	(%rax), %rdx
	movq	addr_save.99(%rip), %rax
	cmpq	%rax, %rdx
	je	.L180
.L179:
	movq	-48(%rbp), %rax
	movq	56(%rax), %rax
	jmp	.L181
.L180:
	movq	sp5.93(%rip), %rax
.L181:
	movq	%rax, %r15
	movl	mem_benchmark_rerun(%rip), %eax
	testl	%eax, %eax
	je	.L182
	movq	-48(%rbp), %rax
	movq	(%rax), %rdx
	movq	addr_save.99(%rip), %rax
	cmpq	%rax, %rdx
	je	.L183
.L182:
	movq	-48(%rbp), %rax
	movq	64(%rax), %rax
	jmp	.L184
.L183:
	movq	sp6.92(%rip), %rax
.L184:
	movq	%rax, %r14
	movl	mem_benchmark_rerun(%rip), %eax
	testl	%eax, %eax
	je	.L185
	movq	-48(%rbp), %rax
	movq	(%rax), %rdx
	movq	addr_save.99(%rip), %rax
	cmpq	%rax, %rdx
	je	.L186
.L185:
	movq	-48(%rbp), %rax
	movq	72(%rax), %rax
	jmp	.L187
.L186:
	movq	sp7.91(%rip), %rax
.L187:
	movq	%rax, %r13
	movl	mem_benchmark_rerun(%rip), %eax
	testl	%eax, %eax
	je	.L188
	movq	-48(%rbp), %rax
	movq	(%rax), %rdx
	movq	addr_save.99(%rip), %rax
	cmpq	%rax, %rdx
	je	.L189
.L188:
	movq	-48(%rbp), %rax
	movq	80(%rax), %rax
	jmp	.L190
.L189:
	movq	sp8.90(%rip), %rax
.L190:
	movq	%rax, %r12
	movl	mem_benchmark_rerun(%rip), %eax
	testl	%eax, %eax
	je	.L191
	movq	-48(%rbp), %rax
	movq	(%rax), %rdx
	movq	addr_save.99(%rip), %rax
	cmpq	%rax, %rdx
	je	.L192
.L191:
	movq	-48(%rbp), %rax
	movq	88(%rax), %rax
	jmp	.L193
.L192:
	movq	sp9.89(%rip), %rax
.L193:
	movq	%rax, %rbx
	jmp	.L194
.L195:
	movq	%r8, %rax
	movq	(%rax), %rax
	movq	%rsi, %rcx
	movq	(%rcx), %rsi
	movq	%r9, %rdi
	movq	(%rdi), %rcx
	movq	%r10, %rdi
	movq	(%rdi), %rdi
	movq	%r11, %rdx
	movq	(%rdx), %rdx
	movq	(%r15), %r15
	movq	(%r14), %r14
	movq	0(%r13), %r13
	movq	(%r12), %r12
	movq	(%rbx), %rbx
	movq	(%rax), %rax
	movq	(%rsi), %rsi
	movq	(%rcx), %rcx
	movq	(%rdi), %rdi
	movq	(%rdx), %rdx
	movq	(%r15), %r15
	movq	(%r14), %r14
	movq	0(%r13), %r13
	movq	(%r12), %r12
	movq	(%rbx), %rbx
	movq	(%rax), %rax
	movq	(%rsi), %rsi
	movq	(%rcx), %rcx
	movq	(%rdi), %rdi
	movq	(%rdx), %rdx
	movq	(%r15), %r15
	movq	(%r14), %r14
	movq	0(%r13), %r13
	movq	(%r12), %r12
	movq	(%rbx), %rbx
	movq	(%rax), %rax
	movq	(%rsi), %rsi
	movq	(%rcx), %rcx
	movq	(%rdi), %rdi
	movq	(%rdx), %rdx
	movq	(%r15), %r15
	movq	(%r14), %r14
	movq	0(%r13), %r13
	movq	(%r12), %r12
	movq	(%rbx), %rbx
	movq	(%rax), %rax
	movq	(%rsi), %rsi
	movq	(%rcx), %rcx
	movq	(%rdi), %rdi
	movq	(%rdx), %rdx
	movq	(%r15), %r15
	movq	(%r14), %r14
	movq	0(%r13), %r13
	movq	(%r12), %r12
	movq	(%rbx), %rbx
	movq	(%rax), %rax
	movq	(%rsi), %rsi
	movq	(%rcx), %rcx
	movq	(%rdi), %rdi
	movq	(%rdx), %rdx
	movq	(%r15), %r15
	movq	(%r14), %r14
	movq	0(%r13), %r13
	movq	(%r12), %r12
	movq	(%rbx), %rbx
	movq	(%rax), %rax
	movq	(%rsi), %rsi
	movq	(%rcx), %rcx
	movq	(%rdi), %rdi
	movq	(%rdx), %rdx
	movq	(%r15), %r15
	movq	(%r14), %r14
	movq	0(%r13), %r13
	movq	(%r12), %r12
	movq	(%rbx), %rbx
	movq	(%rax), %rax
	movq	(%rsi), %rsi
	movq	(%rcx), %rcx
	movq	(%rdi), %rdi
	movq	(%rdx), %rdx
	movq	(%r15), %r15
	movq	(%r14), %r14
	movq	0(%r13), %r13
	movq	(%r12), %r12
	movq	(%rbx), %rbx
	movq	(%rax), %rax
	movq	(%rsi), %rsi
	movq	(%rcx), %rcx
	movq	(%rdi), %rdi
	movq	(%rdx), %rdx
	movq	(%r15), %r15
	movq	(%r14), %r14
	movq	0(%r13), %r13
	movq	(%r12), %r12
	movq	(%rbx), %rbx
	movq	(%rax), %rax
	movq	(%rsi), %rsi
	movq	(%rcx), %rcx
	movq	(%rdi), %rdi
	movq	(%rdx), %rdx
	movq	(%r15), %r15
	movq	(%r14), %r14
	movq	0(%r13), %r13
	movq	(%r12), %r12
	movq	(%rbx), %rbx
	movq	(%rax), %rax
	movq	(%rsi), %rsi
	movq	(%rcx), %rcx
	movq	(%rdi), %rdi
	movq	(%rdx), %rdx
	movq	(%r15), %r15
	movq	(%r14), %r14
	movq	0(%r13), %r13
	movq	(%r12), %r12
	movq	(%rbx), %rbx
	movq	(%rax), %rax
	movq	(%rsi), %rsi
	movq	(%rcx), %rcx
	movq	(%rdi), %rdi
	movq	(%rdx), %rdx
	movq	(%r15), %r15
	movq	(%r14), %r14
	movq	0(%r13), %r13
	movq	(%r12), %r12
	movq	(%rbx), %rbx
	movq	(%rax), %rax
	movq	(%rsi), %rsi
	movq	(%rcx), %rcx
	movq	(%rdi), %rdi
	movq	(%rdx), %rdx
	movq	(%r15), %r15
	movq	(%r14), %r14
	movq	0(%r13), %r13
	movq	(%r12), %r12
	movq	(%rbx), %rbx
	movq	(%rax), %rax
	movq	(%rsi), %rsi
	movq	(%rcx), %rcx
	movq	(%rdi), %rdi
	movq	(%rdx), %rdx
	movq	(%r15), %r15
	movq	(%r14), %r14
	movq	0(%r13), %r13
	movq	(%r12), %r12
	movq	(%rbx), %rbx
	movq	(%rax), %rax
	movq	(%rsi), %rsi
	movq	(%rcx), %rcx
	movq	(%rdi), %rdi
	movq	(%rdx), %rdx
	movq	(%r15), %r15
	movq	(%r14), %r14
	movq	0(%r13), %r13
	movq	(%r12), %r12
	movq	(%rbx), %rbx
	movq	(%rax), %rax
	movq	(%rsi), %rsi
	movq	(%rcx), %rcx
	movq	(%rdi), %rdi
	movq	(%rdx), %rdx
	movq	(%r15), %r15
	movq	(%r14), %r14
	movq	0(%r13), %r13
	movq	(%r12), %r12
	movq	(%rbx), %rbx
	movq	(%rax), %rax
	movq	(%rsi), %rsi
	movq	(%rcx), %rcx
	movq	(%rdi), %rdi
	movq	(%rdx), %rdx
	movq	(%r15), %r15
	movq	(%r14), %r14
	movq	0(%r13), %r13
	movq	(%r12), %r12
	movq	(%rbx), %rbx
	movq	(%rax), %rax
	movq	(%rsi), %rsi
	movq	(%rcx), %rcx
	movq	(%rdi), %rdi
	movq	(%rdx), %rdx
	movq	(%r15), %r15
	movq	(%r14), %r14
	movq	0(%r13), %r13
	movq	(%r12), %r12
	movq	(%rbx), %rbx
	movq	(%rax), %rax
	movq	(%rsi), %rsi
	movq	(%rcx), %rcx
	movq	(%rdi), %rdi
	movq	(%rdx), %rdx
	movq	(%r15), %r15
	movq	(%r14), %r14
	movq	0(%r13), %r13
	movq	(%r12), %r12
	movq	(%rbx), %rbx
	movq	(%rax), %rax
	movq	(%rsi), %rsi
	movq	(%rcx), %rcx
	movq	(%rdi), %rdi
	movq	(%rdx), %rdx
	movq	(%r15), %r15
	movq	(%r14), %r14
	movq	0(%r13), %r13
	movq	(%r12), %r12
	movq	(%rbx), %rbx
	movq	(%rax), %rax
	movq	(%rsi), %rsi
	movq	(%rcx), %rcx
	movq	(%rdi), %rdi
	movq	(%rdx), %rdx
	movq	(%r15), %r15
	movq	(%r14), %r14
	movq	0(%r13), %r13
	movq	(%r12), %r12
	movq	(%rbx), %rbx
	movq	(%rax), %rax
	movq	(%rsi), %rsi
	movq	(%rcx), %rcx
	movq	(%rdi), %rdi
	movq	(%rdx), %rdx
	movq	(%r15), %r15
	movq	(%r14), %r14
	movq	0(%r13), %r13
	movq	(%r12), %r12
	movq	(%rbx), %rbx
	movq	(%rax), %rax
	movq	(%rsi), %rsi
	movq	(%rcx), %rcx
	movq	(%rdi), %rdi
	movq	(%rdx), %rdx
	movq	(%r15), %r15
	movq	(%r14), %r14
	movq	0(%r13), %r13
	movq	(%r12), %r12
	movq	(%rbx), %rbx
	movq	(%rax), %rax
	movq	(%rsi), %rsi
	movq	(%rcx), %rcx
	movq	(%rdi), %rdi
	movq	(%rdx), %rdx
	movq	(%r15), %r15
	movq	(%r14), %r14
	movq	0(%r13), %r13
	movq	(%r12), %r12
	movq	(%rbx), %rbx
	movq	(%rax), %rax
	movq	(%rsi), %rsi
	movq	(%rcx), %rcx
	movq	(%rdi), %rdi
	movq	(%rdx), %rdx
	movq	(%r15), %r15
	movq	(%r14), %r14
	movq	0(%r13), %r13
	movq	(%r12), %r12
	movq	(%rbx), %rbx
	movq	(%rax), %rax
	movq	(%rsi), %rsi
	movq	(%rcx), %rcx
	movq	(%rdi), %rdi
	movq	(%rdx), %rdx
	movq	(%r15), %r15
	movq	(%r14), %r14
	movq	0(%r13), %r13
	movq	(%r12), %r12
	movq	(%rbx), %rbx
	movq	(%rax), %rax
	movq	(%rsi), %rsi
	movq	(%rcx), %rcx
	movq	(%rdi), %rdi
	movq	(%rdx), %rdx
	movq	(%r15), %r15
	movq	(%r14), %r14
	movq	0(%r13), %r13
	movq	(%r12), %r12
	movq	(%rbx), %rbx
	movq	(%rax), %rax
	movq	(%rsi), %rsi
	movq	(%rcx), %rcx
	movq	(%rdi), %rdi
	movq	(%rdx), %rdx
	movq	(%r15), %r15
	movq	(%r14), %r14
	movq	0(%r13), %r13
	movq	(%r12), %r12
	movq	(%rbx), %rbx
	movq	(%rax), %rax
	movq	(%rsi), %rsi
	movq	(%rcx), %rcx
	movq	(%rdi), %rdi
	movq	(%rdx), %rdx
	movq	(%r15), %r15
	movq	(%r14), %r14
	movq	0(%r13), %r13
	movq	(%r12), %r12
	movq	(%rbx), %rbx
	movq	(%rax), %rax
	movq	(%rsi), %rsi
	movq	(%rcx), %rcx
	movq	(%rdi), %rdi
	movq	(%rdx), %rdx
	movq	(%r15), %r15
	movq	(%r14), %r14
	movq	0(%r13), %r13
	movq	(%r12), %r12
	movq	(%rbx), %rbx
	movq	(%rax), %rax
	movq	(%rsi), %rsi
	movq	(%rcx), %rcx
	movq	(%rdi), %rdi
	movq	(%rdx), %rdx
	movq	(%r15), %r15
	movq	(%r14), %r14
	movq	0(%r13), %r13
	movq	(%r12), %r12
	movq	(%rbx), %rbx
	movq	(%rax), %rax
	movq	(%rsi), %rsi
	movq	(%rcx), %rcx
	movq	(%rdi), %rdi
	movq	(%rdx), %rdx
	movq	(%r15), %r15
	movq	(%r14), %r14
	movq	0(%r13), %r13
	movq	(%r12), %r12
	movq	(%rbx), %rbx
	movq	(%rax), %rax
	movq	(%rsi), %rsi
	movq	(%rcx), %rcx
	movq	(%rdi), %rdi
	movq	(%rdx), %rdx
	movq	(%r15), %r15
	movq	(%r14), %r14
	movq	0(%r13), %r13
	movq	(%r12), %r12
	movq	(%rbx), %rbx
	movq	(%rax), %rax
	movq	(%rsi), %rsi
	movq	(%rcx), %rcx
	movq	(%rdi), %rdi
	movq	(%rdx), %rdx
	movq	(%r15), %r15
	movq	(%r14), %r14
	movq	0(%r13), %r13
	movq	(%r12), %r12
	movq	(%rbx), %rbx
	movq	(%rax), %rax
	movq	(%rsi), %rsi
	movq	(%rcx), %rcx
	movq	(%rdi), %rdi
	movq	(%rdx), %rdx
	movq	(%r15), %r15
	movq	(%r14), %r14
	movq	0(%r13), %r13
	movq	(%r12), %r12
	movq	(%rbx), %rbx
	movq	(%rax), %rax
	movq	(%rsi), %rsi
	movq	(%rcx), %rcx
	movq	(%rdi), %rdi
	movq	(%rdx), %rdx
	movq	(%r15), %r15
	movq	(%r14), %r14
	movq	0(%r13), %r13
	movq	(%r12), %r12
	movq	(%rbx), %rbx
	movq	(%rax), %rax
	movq	(%rsi), %rsi
	movq	(%rcx), %rcx
	movq	(%rdi), %rdi
	movq	(%rdx), %rdx
	movq	(%r15), %r15
	movq	(%r14), %r14
	movq	0(%r13), %r13
	movq	(%r12), %r12
	movq	(%rbx), %rbx
	movq	(%rax), %rax
	movq	(%rsi), %rsi
	movq	(%rcx), %rcx
	movq	(%rdi), %rdi
	movq	(%rdx), %rdx
	movq	(%r15), %r15
	movq	(%r14), %r14
	movq	0(%r13), %r13
	movq	(%r12), %r12
	movq	(%rbx), %rbx
	movq	(%rax), %rax
	movq	(%rsi), %rsi
	movq	(%rcx), %rcx
	movq	(%rdi), %rdi
	movq	(%rdx), %rdx
	movq	(%r15), %r15
	movq	(%r14), %r14
	movq	0(%r13), %r13
	movq	(%r12), %r12
	movq	(%rbx), %rbx
	movq	(%rax), %rax
	movq	(%rsi), %rsi
	movq	(%rcx), %rcx
	movq	(%rdi), %rdi
	movq	(%rdx), %rdx
	movq	(%r15), %r15
	movq	(%r14), %r14
	movq	0(%r13), %r13
	movq	(%r12), %r12
	movq	(%rbx), %rbx
	movq	(%rax), %rax
	movq	(%rsi), %rsi
	movq	(%rcx), %rcx
	movq	(%rdi), %rdi
	movq	(%rdx), %rdx
	movq	(%r15), %r15
	movq	(%r14), %r14
	movq	0(%r13), %r13
	movq	(%r12), %r12
	movq	(%rbx), %rbx
	movq	(%rax), %rax
	movq	(%rsi), %rsi
	movq	(%rcx), %rcx
	movq	(%rdi), %rdi
	movq	(%rdx), %rdx
	movq	(%r15), %r15
	movq	(%r14), %r14
	movq	0(%r13), %r13
	movq	(%r12), %r12
	movq	(%rbx), %rbx
	movq	(%rax), %rax
	movq	(%rsi), %rsi
	movq	(%rcx), %rcx
	movq	(%rdi), %rdi
	movq	(%rdx), %rdx
	movq	(%r15), %r15
	movq	(%r14), %r14
	movq	0(%r13), %r13
	movq	(%r12), %r12
	movq	(%rbx), %rbx
	movq	(%rax), %rax
	movq	(%rsi), %rsi
	movq	(%rcx), %rcx
	movq	(%rdi), %rdi
	movq	(%rdx), %rdx
	movq	(%r15), %r15
	movq	(%r14), %r14
	movq	0(%r13), %r13
	movq	(%r12), %r12
	movq	(%rbx), %rbx
	movq	(%rax), %rax
	movq	(%rsi), %rsi
	movq	(%rcx), %rcx
	movq	(%rdi), %rdi
	movq	(%rdx), %rdx
	movq	(%r15), %r15
	movq	(%r14), %r14
	movq	0(%r13), %r13
	movq	(%r12), %r12
	movq	(%rbx), %rbx
	movq	(%rax), %rax
	movq	(%rsi), %rsi
	movq	(%rcx), %rcx
	movq	(%rdi), %rdi
	movq	(%rdx), %rdx
	movq	(%r15), %r15
	movq	(%r14), %r14
	movq	0(%r13), %r13
	movq	(%r12), %r12
	movq	(%rbx), %rbx
	movq	(%rax), %rax
	movq	(%rsi), %rsi
	movq	(%rcx), %rcx
	movq	(%rdi), %rdi
	movq	(%rdx), %rdx
	movq	(%r15), %r15
	movq	(%r14), %r14
	movq	0(%r13), %r13
	movq	(%r12), %r12
	movq	(%rbx), %rbx
	movq	(%rax), %rax
	movq	(%rsi), %rsi
	movq	(%rcx), %rcx
	movq	(%rdi), %rdi
	movq	(%rdx), %rdx
	movq	(%r15), %r15
	movq	(%r14), %r14
	movq	0(%r13), %r13
	movq	(%r12), %r12
	movq	(%rbx), %rbx
	movq	(%rax), %rax
	movq	(%rsi), %rsi
	movq	(%rcx), %rcx
	movq	(%rdi), %rdi
	movq	(%rdx), %rdx
	movq	(%r15), %r15
	movq	(%r14), %r14
	movq	0(%r13), %r13
	movq	(%r12), %r12
	movq	(%rbx), %rbx
	movq	(%rax), %rax
	movq	(%rsi), %rsi
	movq	(%rcx), %rcx
	movq	(%rdi), %rdi
	movq	(%rdx), %rdx
	movq	(%r15), %r15
	movq	(%r14), %r14
	movq	0(%r13), %r13
	movq	(%r12), %r12
	movq	(%rbx), %rbx
	movq	(%rax), %rax
	movq	(%rsi), %rsi
	movq	(%rcx), %rcx
	movq	(%rdi), %rdi
	movq	(%rdx), %rdx
	movq	(%r15), %r15
	movq	(%r14), %r14
	movq	0(%r13), %r13
	movq	(%r12), %r12
	movq	(%rbx), %rbx
	movq	(%rax), %rax
	movq	(%rsi), %rsi
	movq	(%rcx), %rcx
	movq	(%rdi), %rdi
	movq	(%rdx), %rdx
	movq	(%r15), %r15
	movq	(%r14), %r14
	movq	0(%r13), %r13
	movq	(%r12), %r12
	movq	(%rbx), %rbx
	movq	(%rax), %rax
	movq	(%rsi), %rsi
	movq	(%rcx), %rcx
	movq	(%rdi), %rdi
	movq	(%rdx), %rdx
	movq	(%r15), %r15
	movq	(%r14), %r14
	movq	0(%r13), %r13
	movq	(%r12), %r12
	movq	(%rbx), %rbx
	movq	(%rax), %rax
	movq	(%rsi), %rsi
	movq	(%rcx), %rcx
	movq	(%rdi), %rdi
	movq	(%rdx), %rdx
	movq	(%r15), %r15
	movq	(%r14), %r14
	movq	0(%r13), %r13
	movq	(%r12), %r12
	movq	(%rbx), %rbx
	movq	(%rax), %rax
	movq	(%rsi), %rsi
	movq	(%rcx), %rcx
	movq	(%rdi), %rdi
	movq	(%rdx), %rdx
	movq	(%r15), %r15
	movq	(%r14), %r14
	movq	0(%r13), %r13
	movq	(%r12), %r12
	movq	(%rbx), %rbx
	movq	(%rax), %rax
	movq	(%rsi), %rsi
	movq	(%rcx), %rcx
	movq	(%rdi), %rdi
	movq	(%rdx), %rdx
	movq	(%r15), %r15
	movq	(%r14), %r14
	movq	0(%r13), %r13
	movq	(%r12), %r12
	movq	(%rbx), %rbx
	movq	(%rax), %rax
	movq	(%rsi), %rsi
	movq	(%rcx), %rcx
	movq	(%rdi), %rdi
	movq	(%rdx), %rdx
	movq	(%r15), %r15
	movq	(%r14), %r14
	movq	0(%r13), %r13
	movq	(%r12), %r12
	movq	(%rbx), %rbx
	movq	(%rax), %rax
	movq	(%rsi), %rsi
	movq	(%rcx), %rcx
	movq	(%rdi), %rdi
	movq	(%rdx), %rdx
	movq	(%r15), %r15
	movq	(%r14), %r14
	movq	0(%r13), %r13
	movq	(%r12), %r12
	movq	(%rbx), %rbx
	movq	(%rax), %rax
	movq	(%rsi), %rsi
	movq	(%rcx), %rcx
	movq	(%rdi), %rdi
	movq	(%rdx), %rdx
	movq	(%r15), %r15
	movq	(%r14), %r14
	movq	0(%r13), %r13
	movq	(%r12), %r12
	movq	(%rbx), %rbx
	movq	(%rax), %rax
	movq	(%rsi), %rsi
	movq	(%rcx), %rcx
	movq	(%rdi), %rdi
	movq	(%rdx), %rdx
	movq	(%r15), %r15
	movq	(%r14), %r14
	movq	0(%r13), %r13
	movq	(%r12), %r12
	movq	(%rbx), %rbx
	movq	(%rax), %rax
	movq	(%rsi), %rsi
	movq	(%rcx), %rcx
	movq	(%rdi), %rdi
	movq	(%rdx), %rdx
	movq	(%r15), %r15
	movq	(%r14), %r14
	movq	0(%r13), %r13
	movq	(%r12), %r12
	movq	(%rbx), %rbx
	movq	(%rax), %rax
	movq	(%rsi), %rsi
	movq	(%rcx), %rcx
	movq	(%rdi), %rdi
	movq	(%rdx), %rdx
	movq	(%r15), %r15
	movq	(%r14), %r14
	movq	0(%r13), %r13
	movq	(%r12), %r12
	movq	(%rbx), %rbx
	movq	(%rax), %rax
	movq	(%rsi), %rsi
	movq	(%rcx), %rcx
	movq	(%rdi), %rdi
	movq	(%rdx), %rdx
	movq	(%r15), %r15
	movq	(%r14), %r14
	movq	0(%r13), %r13
	movq	(%r12), %r12
	movq	(%rbx), %rbx
	movq	(%rax), %rax
	movq	(%rsi), %rsi
	movq	(%rcx), %rcx
	movq	(%rdi), %rdi
	movq	(%rdx), %rdx
	movq	(%r15), %r15
	movq	(%r14), %r14
	movq	0(%r13), %r13
	movq	(%r12), %r12
	movq	(%rbx), %rbx
	movq	(%rax), %rax
	movq	(%rsi), %rsi
	movq	(%rcx), %rcx
	movq	(%rdi), %rdi
	movq	(%rdx), %rdx
	movq	(%r15), %r15
	movq	(%r14), %r14
	movq	0(%r13), %r13
	movq	(%r12), %r12
	movq	(%rbx), %rbx
	movq	(%rax), %rax
	movq	(%rsi), %rsi
	movq	(%rcx), %rcx
	movq	(%rdi), %rdi
	movq	(%rdx), %rdx
	movq	(%r15), %r15
	movq	(%r14), %r14
	movq	0(%r13), %r13
	movq	(%r12), %r12
	movq	(%rbx), %rbx
	movq	(%rax), %rax
	movq	(%rsi), %rsi
	movq	(%rcx), %rcx
	movq	(%rdi), %rdi
	movq	(%rdx), %rdx
	movq	(%r15), %r15
	movq	(%r14), %r14
	movq	0(%r13), %r13
	movq	(%r12), %r12
	movq	(%rbx), %rbx
	movq	(%rax), %rax
	movq	(%rsi), %rsi
	movq	(%rcx), %rcx
	movq	(%rdi), %rdi
	movq	(%rdx), %rdx
	movq	(%r15), %r15
	movq	(%r14), %r14
	movq	0(%r13), %r13
	movq	(%r12), %r12
	movq	(%rbx), %rbx
	movq	(%rax), %rax
	movq	(%rsi), %rsi
	movq	(%rcx), %rcx
	movq	(%rdi), %rdi
	movq	(%rdx), %rdx
	movq	(%r15), %r15
	movq	(%r14), %r14
	movq	0(%r13), %r13
	movq	(%r12), %r12
	movq	(%rbx), %rbx
	movq	(%rax), %rax
	movq	(%rsi), %rsi
	movq	(%rcx), %rcx
	movq	(%rdi), %rdi
	movq	(%rdx), %rdx
	movq	(%r15), %r15
	movq	(%r14), %r14
	movq	0(%r13), %r13
	movq	(%r12), %r12
	movq	(%rbx), %rbx
	movq	(%rax), %rax
	movq	(%rsi), %rsi
	movq	(%rcx), %rcx
	movq	(%rdi), %rdi
	movq	(%rdx), %rdx
	movq	(%r15), %r15
	movq	(%r14), %r14
	movq	0(%r13), %r13
	movq	(%r12), %r12
	movq	(%rbx), %rbx
	movq	(%rax), %rax
	movq	(%rsi), %rsi
	movq	(%rcx), %rcx
	movq	(%rdi), %rdi
	movq	(%rdx), %rdx
	movq	(%r15), %r15
	movq	(%r14), %r14
	movq	0(%r13), %r13
	movq	(%r12), %r12
	movq	(%rbx), %rbx
	movq	(%rax), %rax
	movq	(%rsi), %rsi
	movq	(%rcx), %rcx
	movq	(%rdi), %rdi
	movq	(%rdx), %rdx
	movq	(%r15), %r15
	movq	(%r14), %r14
	movq	0(%r13), %r13
	movq	(%r12), %r12
	movq	(%rbx), %rbx
	movq	(%rax), %rax
	movq	(%rsi), %rsi
	movq	(%rcx), %rcx
	movq	(%rdi), %rdi
	movq	(%rdx), %rdx
	movq	(%r15), %r15
	movq	(%r14), %r14
	movq	0(%r13), %r13
	movq	(%r12), %r12
	movq	(%rbx), %rbx
	movq	(%rax), %rax
	movq	(%rsi), %rsi
	movq	(%rcx), %rcx
	movq	(%rdi), %rdi
	movq	(%rdx), %rdx
	movq	(%r15), %r15
	movq	(%r14), %r14
	movq	0(%r13), %r13
	movq	(%r12), %r12
	movq	(%rbx), %rbx
	movq	(%rax), %rax
	movq	(%rsi), %rsi
	movq	(%rcx), %rcx
	movq	(%rdi), %rdi
	movq	(%rdx), %rdx
	movq	(%r15), %r15
	movq	(%r14), %r14
	movq	0(%r13), %r13
	movq	(%r12), %r12
	movq	(%rbx), %rbx
	movq	(%rax), %rax
	movq	(%rsi), %rsi
	movq	(%rcx), %rcx
	movq	(%rdi), %rdi
	movq	(%rdx), %rdx
	movq	(%r15), %r15
	movq	(%r14), %r14
	movq	0(%r13), %r13
	movq	(%r12), %r12
	movq	(%rbx), %rbx
	movq	(%rax), %rax
	movq	(%rsi), %rsi
	movq	(%rcx), %rcx
	movq	(%rdi), %rdi
	movq	(%rdx), %rdx
	movq	(%r15), %r15
	movq	(%r14), %r14
	movq	0(%r13), %r13
	movq	(%r12), %r12
	movq	(%rbx), %rbx
	movq	(%rax), %rax
	movq	(%rsi), %rsi
	movq	(%rcx), %rcx
	movq	(%rdi), %rdi
	movq	(%rdx), %rdx
	movq	(%r15), %r15
	movq	(%r14), %r14
	movq	0(%r13), %r13
	movq	(%r12), %r12
	movq	(%rbx), %rbx
	movq	(%rax), %rax
	movq	(%rsi), %rsi
	movq	(%rcx), %rcx
	movq	(%rdi), %rdi
	movq	(%rdx), %rdx
	movq	(%r15), %r15
	movq	(%r14), %r14
	movq	0(%r13), %r13
	movq	(%r12), %r12
	movq	(%rbx), %rbx
	movq	(%rax), %rax
	movq	(%rsi), %rsi
	movq	(%rcx), %rcx
	movq	(%rdi), %rdi
	movq	(%rdx), %rdx
	movq	(%r15), %r15
	movq	(%r14), %r14
	movq	0(%r13), %r13
	movq	(%r12), %r12
	movq	(%rbx), %rbx
	movq	(%rax), %rax
	movq	(%rsi), %rsi
	movq	(%rcx), %rcx
	movq	(%rdi), %rdi
	movq	(%rdx), %rdx
	movq	(%r15), %r15
	movq	(%r14), %r14
	movq	0(%r13), %r13
	movq	(%r12), %r12
	movq	(%rbx), %rbx
	movq	(%rax), %rax
	movq	(%rsi), %rsi
	movq	(%rcx), %rcx
	movq	(%rdi), %rdi
	movq	(%rdx), %rdx
	movq	(%r15), %r15
	movq	(%r14), %r14
	movq	0(%r13), %r13
	movq	(%r12), %r12
	movq	(%rbx), %rbx
	movq	(%rax), %rax
	movq	(%rsi), %rsi
	movq	(%rcx), %rcx
	movq	(%rdi), %rdi
	movq	(%rdx), %rdx
	movq	(%r15), %r15
	movq	(%r14), %r14
	movq	0(%r13), %r13
	movq	(%r12), %r12
	movq	(%rbx), %rbx
	movq	(%rax), %rax
	movq	(%rsi), %rsi
	movq	(%rcx), %rcx
	movq	(%rdi), %rdi
	movq	(%rdx), %rdx
	movq	(%r15), %r15
	movq	(%r14), %r14
	movq	0(%r13), %r13
	movq	(%r12), %r12
	movq	(%rbx), %rbx
	movq	(%rax), %rax
	movq	(%rsi), %rsi
	movq	(%rcx), %rcx
	movq	(%rdi), %rdi
	movq	(%rdx), %rdx
	movq	(%r15), %r15
	movq	(%r14), %r14
	movq	0(%r13), %r13
	movq	(%r12), %r12
	movq	(%rbx), %rbx
	movq	(%rax), %rax
	movq	(%rsi), %rsi
	movq	(%rcx), %rcx
	movq	(%rdi), %rdi
	movq	(%rdx), %rdx
	movq	(%r15), %r15
	movq	(%r14), %r14
	movq	0(%r13), %r13
	movq	(%r12), %r12
	movq	(%rbx), %rbx
	movq	(%rax), %rax
	movq	(%rsi), %rsi
	movq	(%rcx), %rcx
	movq	(%rdi), %rdi
	movq	(%rdx), %rdx
	movq	(%r15), %r15
	movq	(%r14), %r14
	movq	0(%r13), %r13
	movq	(%r12), %r12
	movq	(%rbx), %rbx
	movq	(%rax), %rax
	movq	(%rsi), %rsi
	movq	(%rcx), %rcx
	movq	(%rdi), %rdi
	movq	(%rdx), %rdx
	movq	(%r15), %r15
	movq	(%r14), %r14
	movq	0(%r13), %r13
	movq	(%r12), %r12
	movq	(%rbx), %rbx
	movq	(%rax), %rax
	movq	(%rsi), %rsi
	movq	(%rcx), %rcx
	movq	(%rdi), %rdi
	movq	(%rdx), %rdx
	movq	(%r15), %r15
	movq	(%r14), %r14
	movq	0(%r13), %r13
	movq	(%r12), %r12
	movq	(%rbx), %rbx
	movq	(%rax), %rax
	movq	(%rsi), %rsi
	movq	(%rcx), %rcx
	movq	(%rdi), %rdi
	movq	(%rdx), %rdx
	movq	(%r15), %r15
	movq	(%r14), %r14
	movq	0(%r13), %r13
	movq	(%r12), %r12
	movq	(%rbx), %rbx
	movq	(%rax), %rax
	movq	(%rsi), %rsi
	movq	(%rcx), %rcx
	movq	(%rdi), %rdi
	movq	(%rdx), %rdx
	movq	(%r15), %r15
	movq	(%r14), %r14
	movq	0(%r13), %r13
	movq	(%r12), %r12
	movq	(%rbx), %rbx
	movq	(%rax), %rax
	movq	(%rsi), %rsi
	movq	(%rcx), %rcx
	movq	(%rdi), %rdi
	movq	(%rdx), %rdx
	movq	(%r15), %r15
	movq	(%r14), %r14
	movq	0(%r13), %r13
	movq	(%r12), %r12
	movq	(%rbx), %rbx
	movq	(%rax), %rax
	movq	(%rsi), %rsi
	movq	(%rcx), %rcx
	movq	(%rdi), %rdi
	movq	(%rdx), %rdx
	movq	(%r15), %r15
	movq	(%r14), %r14
	movq	0(%r13), %r13
	movq	(%r12), %r12
	movq	(%rbx), %rbx
	movq	(%rax), %rax
	movq	(%rsi), %rsi
	movq	(%rcx), %rcx
	movq	(%rdi), %rdi
	movq	(%rdx), %rdx
	movq	(%r15), %r15
	movq	(%r14), %r14
	movq	0(%r13), %r13
	movq	(%r12), %r12
	movq	(%rbx), %rbx
	movq	(%rax), %rax
	movq	(%rsi), %rsi
	movq	(%rcx), %rcx
	movq	(%rdi), %rdi
	movq	(%rdx), %rdx
	movq	(%r15), %r15
	movq	(%r14), %r14
	movq	0(%r13), %r13
	movq	(%r12), %r12
	movq	(%rbx), %rbx
	movq	(%rax), %rax
	movq	(%rsi), %rsi
	movq	(%rcx), %rcx
	movq	(%rdi), %rdi
	movq	(%rdx), %rdx
	movq	(%r15), %r15
	movq	(%r14), %r14
	movq	0(%r13), %r13
	movq	(%r12), %r12
	movq	(%rbx), %rbx
	movq	(%rax), %rax
	movq	(%rsi), %rsi
	movq	(%rcx), %rcx
	movq	(%rdi), %rdi
	movq	(%rdx), %rdx
	movq	(%r15), %r15
	movq	(%r14), %r14
	movq	0(%r13), %r13
	movq	(%r12), %r12
	movq	(%rbx), %rbx
	movq	(%rax), %rax
	movq	(%rsi), %rsi
	movq	(%rcx), %rcx
	movq	(%rdi), %rdi
	movq	(%rdx), %rdx
	movq	(%r15), %r15
	movq	(%r14), %r14
	movq	0(%r13), %r13
	movq	(%r12), %r12
	movq	(%rbx), %rbx
	movq	(%rax), %rax
	movq	%rax, %r8
	movq	(%rsi), %rax
	movq	%rax, %rsi
	movq	(%rcx), %rax
	movq	%rax, %r9
	movq	(%rdi), %rax
	movq	%rax, %r10
	movq	(%rdx), %rax
	movq	%rax, %r11
	movq	(%r15), %r15
	movq	(%r14), %r14
	movq	0(%r13), %r13
	movq	(%r12), %r12
	movq	(%rbx), %rbx
.L194:
	movq	-64(%rbp), %rax
	leaq	-1(%rax), %rdx
	movq	%rdx, -64(%rbp)
	testq	%rax, %rax
	jne	.L195
	movq	%r8, %rax
	movq	%rax, sp0.98(%rip)
	movq	%rsi, %rax
	movq	%rax, sp1.97(%rip)
	movq	%r9, %rax
	movq	%rax, sp2.96(%rip)
	movq	%r10, %rax
	movq	%rax, sp3.95(%rip)
	movq	%r11, %rax
	movq	%rax, sp4.94(%rip)
	movq	%r15, sp5.93(%rip)
	movq	%r14, sp6.92(%rip)
	movq	%r13, sp7.91(%rip)
	movq	%r12, sp8.90(%rip)
	movq	%rbx, sp9.89(%rip)
	movq	-48(%rbp), %rax
	movq	(%rax), %rax
	movq	%rax, addr_save.99(%rip)
	movl	$1, mem_benchmark_rerun(%rip)
	popq	%rbx
	popq	%r12
	popq	%r13
	popq	%r14
	popq	%r15
	popq	%rbp
	.cfi_def_cfa 7, 8
	ret
	.cfi_endproc
.LFE17:
	.size	mem_benchmark_9, .-mem_benchmark_9
	.globl	mem_benchmark_10
	.type	mem_benchmark_10, @function
mem_benchmark_10:
.LFB18:
	.cfi_startproc
	endbr64
	pushq	%rbp
	.cfi_def_cfa_offset 16
	.cfi_offset 6, -16
	movq	%rsp, %rbp
	.cfi_def_cfa_register 6
	pushq	%r15
	pushq	%r14
	pushq	%r13
	pushq	%r12
	pushq	%rbx
	.cfi_offset 15, -24
	.cfi_offset 14, -32
	.cfi_offset 13, -40
	.cfi_offset 12, -48
	.cfi_offset 3, -56
	movq	%rdi, -64(%rbp)
	movq	%rsi, -72(%rbp)
	movq	-72(%rbp), %rax
	movq	%rax, -48(%rbp)
	movl	mem_benchmark_rerun(%rip), %eax
	testl	%eax, %eax
	je	.L197
	movq	-48(%rbp), %rax
	movq	(%rax), %rdx
	movq	addr_save.88(%rip), %rax
	cmpq	%rax, %rdx
	je	.L198
.L197:
	movq	-48(%rbp), %rax
	movq	16(%rax), %rax
	jmp	.L199
.L198:
	movq	sp0.87(%rip), %rax
.L199:
	movq	%rax, %r8
	movl	mem_benchmark_rerun(%rip), %eax
	testl	%eax, %eax
	je	.L200
	movq	-48(%rbp), %rax
	movq	(%rax), %rdx
	movq	addr_save.88(%rip), %rax
	cmpq	%rax, %rdx
	je	.L201
.L200:
	movq	-48(%rbp), %rax
	movq	24(%rax), %rax
	jmp	.L202
.L201:
	movq	sp1.86(%rip), %rax
.L202:
	movq	%rax, %rsi
	movl	mem_benchmark_rerun(%rip), %eax
	testl	%eax, %eax
	je	.L203
	movq	-48(%rbp), %rax
	movq	(%rax), %rdx
	movq	addr_save.88(%rip), %rax
	cmpq	%rax, %rdx
	je	.L204
.L203:
	movq	-48(%rbp), %rax
	movq	32(%rax), %rax
	jmp	.L205
.L204:
	movq	sp2.85(%rip), %rax
.L205:
	movq	%rax, %r9
	movl	mem_benchmark_rerun(%rip), %eax
	testl	%eax, %eax
	je	.L206
	movq	-48(%rbp), %rax
	movq	(%rax), %rdx
	movq	addr_save.88(%rip), %rax
	cmpq	%rax, %rdx
	je	.L207
.L206:
	movq	-48(%rbp), %rax
	movq	40(%rax), %rax
	jmp	.L208
.L207:
	movq	sp3.84(%rip), %rax
.L208:
	movq	%rax, %r10
	movl	mem_benchmark_rerun(%rip), %eax
	testl	%eax, %eax
	je	.L209
	movq	-48(%rbp), %rax
	movq	(%rax), %rdx
	movq	addr_save.88(%rip), %rax
	cmpq	%rax, %rdx
	je	.L210
.L209:
	movq	-48(%rbp), %rax
	movq	48(%rax), %rax
	jmp	.L211
.L210:
	movq	sp4.83(%rip), %rax
.L211:
	movq	%rax, -80(%rbp)
	movl	mem_benchmark_rerun(%rip), %eax
	testl	%eax, %eax
	je	.L212
	movq	-48(%rbp), %rax
	movq	(%rax), %rdx
	movq	addr_save.88(%rip), %rax
	cmpq	%rax, %rdx
	je	.L213
.L212:
	movq	-48(%rbp), %rax
	movq	56(%rax), %rax
	jmp	.L214
.L213:
	movq	sp5.82(%rip), %rax
.L214:
	movq	%rax, %r11
	movl	mem_benchmark_rerun(%rip), %eax
	testl	%eax, %eax
	je	.L215
	movq	-48(%rbp), %rax
	movq	(%rax), %rdx
	movq	addr_save.88(%rip), %rax
	cmpq	%rax, %rdx
	je	.L216
.L215:
	movq	-48(%rbp), %rax
	movq	64(%rax), %rax
	jmp	.L217
.L216:
	movq	sp6.81(%rip), %rax
.L217:
	movq	%rax, %r15
	movl	mem_benchmark_rerun(%rip), %eax
	testl	%eax, %eax
	je	.L218
	movq	-48(%rbp), %rax
	movq	(%rax), %rdx
	movq	addr_save.88(%rip), %rax
	cmpq	%rax, %rdx
	je	.L219
.L218:
	movq	-48(%rbp), %rax
	movq	72(%rax), %rax
	jmp	.L220
.L219:
	movq	sp7.80(%rip), %rax
.L220:
	movq	%rax, %r14
	movl	mem_benchmark_rerun(%rip), %eax
	testl	%eax, %eax
	je	.L221
	movq	-48(%rbp), %rax
	movq	(%rax), %rdx
	movq	addr_save.88(%rip), %rax
	cmpq	%rax, %rdx
	je	.L222
.L221:
	movq	-48(%rbp), %rax
	movq	80(%rax), %rax
	jmp	.L223
.L222:
	movq	sp8.79(%rip), %rax
.L223:
	movq	%rax, %r13
	movl	mem_benchmark_rerun(%rip), %eax
	testl	%eax, %eax
	je	.L224
	movq	-48(%rbp), %rax
	movq	(%rax), %rdx
	movq	addr_save.88(%rip), %rax
	cmpq	%rax, %rdx
	je	.L225
.L224:
	movq	-48(%rbp), %rax
	movq	88(%rax), %rax
	jmp	.L226
.L225:
	movq	sp9.78(%rip), %rax
.L226:
	movq	%rax, %r12
	movl	mem_benchmark_rerun(%rip), %eax
	testl	%eax, %eax
	je	.L227
	movq	-48(%rbp), %rax
	movq	(%rax), %rdx
	movq	addr_save.88(%rip), %rax
	cmpq	%rax, %rdx
	je	.L228
.L227:
	movq	-48(%rbp), %rax
	movq	96(%rax), %rax
	jmp	.L229
.L228:
	movq	sp10.77(%rip), %rax
.L229:
	movq	%rax, %rbx
	jmp	.L230
.L231:
	movq	%r8, %rax
	movq	(%rax), %rax
	movq	%rsi, %rcx
	movq	(%rcx), %rsi
	movq	%r9, %rdi
	movq	(%rdi), %rcx
	movq	%r10, %rdi
	movq	(%rdi), %rdi
	movq	-80(%rbp), %rdx
	movq	(%rdx), %rdx
	movq	%r11, %r8
	movq	(%r8), %r9
	movq	(%r15), %r15
	movq	(%r14), %r14
	movq	0(%r13), %r13
	movq	(%r12), %r12
	movq	(%rbx), %rbx
	movq	(%rax), %rax
	movq	(%rsi), %rsi
	movq	(%rcx), %rcx
	movq	(%rdi), %rdi
	movq	(%rdx), %rdx
	movq	(%r9), %r10
	movq	(%r15), %r15
	movq	(%r14), %r14
	movq	0(%r13), %r13
	movq	(%r12), %r12
	movq	(%rbx), %rbx
	movq	(%rax), %rax
	movq	(%rsi), %rsi
	movq	(%rcx), %rcx
	movq	(%rdi), %rdi
	movq	(%rdx), %rdx
	movq	(%r10), %r11
	movq	(%r15), %r15
	movq	(%r14), %r14
	movq	0(%r13), %r13
	movq	(%r12), %r12
	movq	(%rbx), %rbx
	movq	(%rax), %rax
	movq	(%rsi), %rsi
	movq	(%rcx), %rcx
	movq	(%rdi), %rdi
	movq	(%rdx), %rdx
	movq	(%r11), %r8
	movq	(%r15), %r15
	movq	(%r14), %r14
	movq	0(%r13), %r13
	movq	(%r12), %r12
	movq	(%rbx), %rbx
	movq	(%rax), %rax
	movq	(%rsi), %rsi
	movq	(%rcx), %rcx
	movq	(%rdi), %rdi
	movq	(%rdx), %rdx
	movq	(%r8), %r9
	movq	(%r15), %r15
	movq	(%r14), %r14
	movq	0(%r13), %r13
	movq	(%r12), %r12
	movq	(%rbx), %rbx
	movq	(%rax), %rax
	movq	(%rsi), %rsi
	movq	(%rcx), %rcx
	movq	(%rdi), %rdi
	movq	(%rdx), %rdx
	movq	(%r9), %r10
	movq	(%r15), %r15
	movq	(%r14), %r14
	movq	0(%r13), %r13
	movq	(%r12), %r12
	movq	(%rbx), %rbx
	movq	(%rax), %rax
	movq	(%rsi), %rsi
	movq	(%rcx), %rcx
	movq	(%rdi), %rdi
	movq	(%rdx), %rdx
	movq	(%r10), %r11
	movq	(%r15), %r15
	movq	(%r14), %r14
	movq	0(%r13), %r13
	movq	(%r12), %r12
	movq	(%rbx), %rbx
	movq	(%rax), %rax
	movq	(%rsi), %rsi
	movq	(%rcx), %rcx
	movq	(%rdi), %rdi
	movq	(%rdx), %rdx
	movq	(%r11), %r8
	movq	(%r15), %r15
	movq	(%r14), %r14
	movq	0(%r13), %r13
	movq	(%r12), %r12
	movq	(%rbx), %rbx
	movq	(%rax), %rax
	movq	(%rsi), %rsi
	movq	(%rcx), %rcx
	movq	(%rdi), %rdi
	movq	(%rdx), %rdx
	movq	(%r8), %r9
	movq	(%r15), %r15
	movq	(%r14), %r14
	movq	0(%r13), %r13
	movq	(%r12), %r12
	movq	(%rbx), %rbx
	movq	(%rax), %rax
	movq	(%rsi), %rsi
	movq	(%rcx), %rcx
	movq	(%rdi), %rdi
	movq	(%rdx), %rdx
	movq	(%r9), %r10
	movq	(%r15), %r15
	movq	(%r14), %r14
	movq	0(%r13), %r13
	movq	(%r12), %r12
	movq	(%rbx), %rbx
	movq	(%rax), %rax
	movq	(%rsi), %rsi
	movq	(%rcx), %rcx
	movq	(%rdi), %rdi
	movq	(%rdx), %rdx
	movq	(%r10), %r11
	movq	(%r15), %r15
	movq	(%r14), %r14
	movq	0(%r13), %r13
	movq	(%r12), %r12
	movq	(%rbx), %rbx
	movq	(%rax), %rax
	movq	(%rsi), %rsi
	movq	(%rcx), %rcx
	movq	(%rdi), %rdi
	movq	(%rdx), %rdx
	movq	(%r11), %r8
	movq	(%r15), %r15
	movq	(%r14), %r14
	movq	0(%r13), %r13
	movq	(%r12), %r12
	movq	(%rbx), %rbx
	movq	(%rax), %rax
	movq	(%rsi), %rsi
	movq	(%rcx), %rcx
	movq	(%rdi), %rdi
	movq	(%rdx), %rdx
	movq	(%r8), %r9
	movq	(%r15), %r15
	movq	(%r14), %r14
	movq	0(%r13), %r13
	movq	(%r12), %r12
	movq	(%rbx), %rbx
	movq	(%rax), %rax
	movq	(%rsi), %rsi
	movq	(%rcx), %rcx
	movq	(%rdi), %rdi
	movq	(%rdx), %rdx
	movq	(%r9), %r10
	movq	(%r15), %r15
	movq	(%r14), %r14
	movq	0(%r13), %r13
	movq	(%r12), %r12
	movq	(%rbx), %rbx
	movq	(%rax), %rax
	movq	(%rsi), %rsi
	movq	(%rcx), %rcx
	movq	(%rdi), %rdi
	movq	(%rdx), %rdx
	movq	(%r10), %r11
	movq	(%r15), %r15
	movq	(%r14), %r14
	movq	0(%r13), %r13
	movq	(%r12), %r12
	movq	(%rbx), %rbx
	movq	(%rax), %rax
	movq	(%rsi), %rsi
	movq	(%rcx), %rcx
	movq	(%rdi), %rdi
	movq	(%rdx), %rdx
	movq	(%r11), %r8
	movq	(%r15), %r15
	movq	(%r14), %r14
	movq	0(%r13), %r13
	movq	(%r12), %r12
	movq	(%rbx), %rbx
	movq	(%rax), %rax
	movq	(%rsi), %rsi
	movq	(%rcx), %rcx
	movq	(%rdi), %rdi
	movq	(%rdx), %rdx
	movq	(%r8), %r9
	movq	(%r15), %r15
	movq	(%r14), %r14
	movq	0(%r13), %r13
	movq	(%r12), %r12
	movq	(%rbx), %rbx
	movq	(%rax), %rax
	movq	(%rsi), %rsi
	movq	(%rcx), %rcx
	movq	(%rdi), %rdi
	movq	(%rdx), %rdx
	movq	(%r9), %r10
	movq	(%r15), %r15
	movq	(%r14), %r14
	movq	0(%r13), %r13
	movq	(%r12), %r12
	movq	(%rbx), %rbx
	movq	(%rax), %rax
	movq	(%rsi), %rsi
	movq	(%rcx), %rcx
	movq	(%rdi), %rdi
	movq	(%rdx), %rdx
	movq	(%r10), %r11
	movq	(%r15), %r15
	movq	(%r14), %r14
	movq	0(%r13), %r13
	movq	(%r12), %r12
	movq	(%rbx), %rbx
	movq	(%rax), %rax
	movq	(%rsi), %rsi
	movq	(%rcx), %rcx
	movq	(%rdi), %rdi
	movq	(%rdx), %rdx
	movq	(%r11), %r8
	movq	(%r15), %r15
	movq	(%r14), %r14
	movq	0(%r13), %r13
	movq	(%r12), %r12
	movq	(%rbx), %rbx
	movq	(%rax), %rax
	movq	(%rsi), %rsi
	movq	(%rcx), %rcx
	movq	(%rdi), %rdi
	movq	(%rdx), %rdx
	movq	(%r8), %r9
	movq	(%r15), %r15
	movq	(%r14), %r14
	movq	0(%r13), %r13
	movq	(%r12), %r12
	movq	(%rbx), %rbx
	movq	(%rax), %rax
	movq	(%rsi), %rsi
	movq	(%rcx), %rcx
	movq	(%rdi), %rdi
	movq	(%rdx), %rdx
	movq	(%r9), %r10
	movq	(%r15), %r15
	movq	(%r14), %r14
	movq	0(%r13), %r13
	movq	(%r12), %r12
	movq	(%rbx), %rbx
	movq	(%rax), %rax
	movq	(%rsi), %rsi
	movq	(%rcx), %rcx
	movq	(%rdi), %rdi
	movq	(%rdx), %rdx
	movq	(%r10), %r11
	movq	(%r15), %r15
	movq	(%r14), %r14
	movq	0(%r13), %r13
	movq	(%r12), %r12
	movq	(%rbx), %rbx
	movq	(%rax), %rax
	movq	(%rsi), %rsi
	movq	(%rcx), %rcx
	movq	(%rdi), %rdi
	movq	(%rdx), %rdx
	movq	(%r11), %r8
	movq	(%r15), %r15
	movq	(%r14), %r14
	movq	0(%r13), %r13
	movq	(%r12), %r12
	movq	(%rbx), %rbx
	movq	(%rax), %rax
	movq	(%rsi), %rsi
	movq	(%rcx), %rcx
	movq	(%rdi), %rdi
	movq	(%rdx), %rdx
	movq	(%r8), %r9
	movq	(%r15), %r15
	movq	(%r14), %r14
	movq	0(%r13), %r13
	movq	(%r12), %r12
	movq	(%rbx), %rbx
	movq	(%rax), %rax
	movq	(%rsi), %rsi
	movq	(%rcx), %rcx
	movq	(%rdi), %rdi
	movq	(%rdx), %rdx
	movq	(%r9), %r10
	movq	(%r15), %r15
	movq	(%r14), %r14
	movq	0(%r13), %r13
	movq	(%r12), %r12
	movq	(%rbx), %rbx
	movq	(%rax), %rax
	movq	(%rsi), %rsi
	movq	(%rcx), %rcx
	movq	(%rdi), %rdi
	movq	(%rdx), %rdx
	movq	(%r10), %r11
	movq	(%r15), %r15
	movq	(%r14), %r14
	movq	0(%r13), %r13
	movq	(%r12), %r12
	movq	(%rbx), %rbx
	movq	(%rax), %rax
	movq	(%rsi), %rsi
	movq	(%rcx), %rcx
	movq	(%rdi), %rdi
	movq	(%rdx), %rdx
	movq	(%r11), %r8
	movq	(%r15), %r15
	movq	(%r14), %r14
	movq	0(%r13), %r13
	movq	(%r12), %r12
	movq	(%rbx), %rbx
	movq	(%rax), %rax
	movq	(%rsi), %rsi
	movq	(%rcx), %rcx
	movq	(%rdi), %rdi
	movq	(%rdx), %rdx
	movq	(%r8), %r9
	movq	(%r15), %r15
	movq	(%r14), %r14
	movq	0(%r13), %r13
	movq	(%r12), %r12
	movq	(%rbx), %rbx
	movq	(%rax), %rax
	movq	(%rsi), %rsi
	movq	(%rcx), %rcx
	movq	(%rdi), %rdi
	movq	(%rdx), %rdx
	movq	(%r9), %r10
	movq	(%r15), %r15
	movq	(%r14), %r14
	movq	0(%r13), %r13
	movq	(%r12), %r12
	movq	(%rbx), %rbx
	movq	(%rax), %rax
	movq	(%rsi), %rsi
	movq	(%rcx), %rcx
	movq	(%rdi), %rdi
	movq	(%rdx), %rdx
	movq	(%r10), %r11
	movq	(%r15), %r15
	movq	(%r14), %r14
	movq	0(%r13), %r13
	movq	(%r12), %r12
	movq	(%rbx), %rbx
	movq	(%rax), %rax
	movq	(%rsi), %rsi
	movq	(%rcx), %rcx
	movq	(%rdi), %rdi
	movq	(%rdx), %rdx
	movq	(%r11), %r8
	movq	(%r15), %r15
	movq	(%r14), %r14
	movq	0(%r13), %r13
	movq	(%r12), %r12
	movq	(%rbx), %rbx
	movq	(%rax), %rax
	movq	(%rsi), %rsi
	movq	(%rcx), %rcx
	movq	(%rdi), %rdi
	movq	(%rdx), %rdx
	movq	(%r8), %r9
	movq	(%r15), %r15
	movq	(%r14), %r14
	movq	0(%r13), %r13
	movq	(%r12), %r12
	movq	(%rbx), %rbx
	movq	(%rax), %rax
	movq	(%rsi), %rsi
	movq	(%rcx), %rcx
	movq	(%rdi), %rdi
	movq	(%rdx), %rdx
	movq	(%r9), %r10
	movq	(%r15), %r15
	movq	(%r14), %r14
	movq	0(%r13), %r13
	movq	(%r12), %r12
	movq	(%rbx), %rbx
	movq	(%rax), %rax
	movq	(%rsi), %rsi
	movq	(%rcx), %rcx
	movq	(%rdi), %rdi
	movq	(%rdx), %rdx
	movq	(%r10), %r11
	movq	(%r15), %r15
	movq	(%r14), %r14
	movq	0(%r13), %r13
	movq	(%r12), %r12
	movq	(%rbx), %rbx
	movq	(%rax), %rax
	movq	(%rsi), %rsi
	movq	(%rcx), %rcx
	movq	(%rdi), %rdi
	movq	(%rdx), %rdx
	movq	(%r11), %r8
	movq	(%r15), %r15
	movq	(%r14), %r14
	movq	0(%r13), %r13
	movq	(%r12), %r12
	movq	(%rbx), %rbx
	movq	(%rax), %rax
	movq	(%rsi), %rsi
	movq	(%rcx), %rcx
	movq	(%rdi), %rdi
	movq	(%rdx), %rdx
	movq	(%r8), %r9
	movq	(%r15), %r15
	movq	(%r14), %r14
	movq	0(%r13), %r13
	movq	(%r12), %r12
	movq	(%rbx), %rbx
	movq	(%rax), %rax
	movq	(%rsi), %rsi
	movq	(%rcx), %rcx
	movq	(%rdi), %rdi
	movq	(%rdx), %rdx
	movq	(%r9), %r10
	movq	(%r15), %r15
	movq	(%r14), %r14
	movq	0(%r13), %r13
	movq	(%r12), %r12
	movq	(%rbx), %rbx
	movq	(%rax), %rax
	movq	(%rsi), %rsi
	movq	(%rcx), %rcx
	movq	(%rdi), %rdi
	movq	(%rdx), %rdx
	movq	(%r10), %r11
	movq	(%r15), %r15
	movq	(%r14), %r14
	movq	0(%r13), %r13
	movq	(%r12), %r12
	movq	(%rbx), %rbx
	movq	(%rax), %rax
	movq	(%rsi), %rsi
	movq	(%rcx), %rcx
	movq	(%rdi), %rdi
	movq	(%rdx), %rdx
	movq	(%r11), %r8
	movq	(%r15), %r15
	movq	(%r14), %r14
	movq	0(%r13), %r13
	movq	(%r12), %r12
	movq	(%rbx), %rbx
	movq	(%rax), %rax
	movq	(%rsi), %rsi
	movq	(%rcx), %rcx
	movq	(%rdi), %rdi
	movq	(%rdx), %rdx
	movq	(%r8), %r9
	movq	(%r15), %r15
	movq	(%r14), %r14
	movq	0(%r13), %r13
	movq	(%r12), %r12
	movq	(%rbx), %rbx
	movq	(%rax), %rax
	movq	(%rsi), %rsi
	movq	(%rcx), %rcx
	movq	(%rdi), %rdi
	movq	(%rdx), %rdx
	movq	(%r9), %r10
	movq	(%r15), %r15
	movq	(%r14), %r14
	movq	0(%r13), %r13
	movq	(%r12), %r12
	movq	(%rbx), %rbx
	movq	(%rax), %rax
	movq	(%rsi), %rsi
	movq	(%rcx), %rcx
	movq	(%rdi), %rdi
	movq	(%rdx), %rdx
	movq	(%r10), %r11
	movq	(%r15), %r15
	movq	(%r14), %r14
	movq	0(%r13), %r13
	movq	(%r12), %r12
	movq	(%rbx), %rbx
	movq	(%rax), %rax
	movq	(%rsi), %rsi
	movq	(%rcx), %rcx
	movq	(%rdi), %rdi
	movq	(%rdx), %rdx
	movq	(%r11), %r8
	movq	(%r15), %r15
	movq	(%r14), %r14
	movq	0(%r13), %r13
	movq	(%r12), %r12
	movq	(%rbx), %rbx
	movq	(%rax), %rax
	movq	(%rsi), %rsi
	movq	(%rcx), %rcx
	movq	(%rdi), %rdi
	movq	(%rdx), %rdx
	movq	(%r8), %r9
	movq	(%r15), %r15
	movq	(%r14), %r14
	movq	0(%r13), %r13
	movq	(%r12), %r12
	movq	(%rbx), %rbx
	movq	(%rax), %rax
	movq	(%rsi), %rsi
	movq	(%rcx), %rcx
	movq	(%rdi), %rdi
	movq	(%rdx), %rdx
	movq	(%r9), %r10
	movq	(%r15), %r15
	movq	(%r14), %r14
	movq	0(%r13), %r13
	movq	(%r12), %r12
	movq	(%rbx), %rbx
	movq	(%rax), %rax
	movq	(%rsi), %rsi
	movq	(%rcx), %rcx
	movq	(%rdi), %rdi
	movq	(%rdx), %rdx
	movq	(%r10), %r11
	movq	(%r15), %r15
	movq	(%r14), %r14
	movq	0(%r13), %r13
	movq	(%r12), %r12
	movq	(%rbx), %rbx
	movq	(%rax), %rax
	movq	(%rsi), %rsi
	movq	(%rcx), %rcx
	movq	(%rdi), %rdi
	movq	(%rdx), %rdx
	movq	(%r11), %r8
	movq	(%r15), %r15
	movq	(%r14), %r14
	movq	0(%r13), %r13
	movq	(%r12), %r12
	movq	(%rbx), %rbx
	movq	(%rax), %rax
	movq	(%rsi), %rsi
	movq	(%rcx), %rcx
	movq	(%rdi), %rdi
	movq	(%rdx), %rdx
	movq	(%r8), %r9
	movq	(%r15), %r15
	movq	(%r14), %r14
	movq	0(%r13), %r13
	movq	(%r12), %r12
	movq	(%rbx), %rbx
	movq	(%rax), %rax
	movq	(%rsi), %rsi
	movq	(%rcx), %rcx
	movq	(%rdi), %rdi
	movq	(%rdx), %rdx
	movq	(%r9), %r10
	movq	(%r15), %r15
	movq	(%r14), %r14
	movq	0(%r13), %r13
	movq	(%r12), %r12
	movq	(%rbx), %rbx
	movq	(%rax), %rax
	movq	(%rsi), %rsi
	movq	(%rcx), %rcx
	movq	(%rdi), %rdi
	movq	(%rdx), %rdx
	movq	(%r10), %r11
	movq	(%r15), %r15
	movq	(%r14), %r14
	movq	0(%r13), %r13
	movq	(%r12), %r12
	movq	(%rbx), %rbx
	movq	(%rax), %rax
	movq	(%rsi), %rsi
	movq	(%rcx), %rcx
	movq	(%rdi), %rdi
	movq	(%rdx), %rdx
	movq	(%r11), %r8
	movq	(%r15), %r15
	movq	(%r14), %r14
	movq	0(%r13), %r13
	movq	(%r12), %r12
	movq	(%rbx), %rbx
	movq	(%rax), %rax
	movq	(%rsi), %rsi
	movq	(%rcx), %rcx
	movq	(%rdi), %rdi
	movq	(%rdx), %rdx
	movq	(%r8), %r9
	movq	(%r15), %r15
	movq	(%r14), %r14
	movq	0(%r13), %r13
	movq	(%r12), %r12
	movq	(%rbx), %rbx
	movq	(%rax), %rax
	movq	(%rsi), %rsi
	movq	(%rcx), %rcx
	movq	(%rdi), %rdi
	movq	(%rdx), %rdx
	movq	(%r9), %r10
	movq	(%r15), %r15
	movq	(%r14), %r14
	movq	0(%r13), %r13
	movq	(%r12), %r12
	movq	(%rbx), %rbx
	movq	(%rax), %rax
	movq	(%rsi), %rsi
	movq	(%rcx), %rcx
	movq	(%rdi), %rdi
	movq	(%rdx), %rdx
	movq	(%r10), %r11
	movq	(%r15), %r15
	movq	(%r14), %r14
	movq	0(%r13), %r13
	movq	(%r12), %r12
	movq	(%rbx), %rbx
	movq	(%rax), %rax
	movq	(%rsi), %rsi
	movq	(%rcx), %rcx
	movq	(%rdi), %rdi
	movq	(%rdx), %rdx
	movq	(%r11), %r8
	movq	(%r15), %r15
	movq	(%r14), %r14
	movq	0(%r13), %r13
	movq	(%r12), %r12
	movq	(%rbx), %rbx
	movq	(%rax), %rax
	movq	(%rsi), %rsi
	movq	(%rcx), %rcx
	movq	(%rdi), %rdi
	movq	(%rdx), %rdx
	movq	(%r8), %r9
	movq	(%r15), %r15
	movq	(%r14), %r14
	movq	0(%r13), %r13
	movq	(%r12), %r12
	movq	(%rbx), %rbx
	movq	(%rax), %rax
	movq	(%rsi), %rsi
	movq	(%rcx), %rcx
	movq	(%rdi), %rdi
	movq	(%rdx), %rdx
	movq	(%r9), %r10
	movq	(%r15), %r15
	movq	(%r14), %r14
	movq	0(%r13), %r13
	movq	(%r12), %r12
	movq	(%rbx), %rbx
	movq	(%rax), %rax
	movq	(%rsi), %rsi
	movq	(%rcx), %rcx
	movq	(%rdi), %rdi
	movq	(%rdx), %rdx
	movq	(%r10), %r11
	movq	(%r15), %r15
	movq	(%r14), %r14
	movq	0(%r13), %r13
	movq	(%r12), %r12
	movq	(%rbx), %rbx
	movq	(%rax), %rax
	movq	(%rsi), %rsi
	movq	(%rcx), %rcx
	movq	(%rdi), %rdi
	movq	(%rdx), %rdx
	movq	(%r11), %r8
	movq	(%r15), %r15
	movq	(%r14), %r14
	movq	0(%r13), %r13
	movq	(%r12), %r12
	movq	(%rbx), %rbx
	movq	(%rax), %rax
	movq	(%rsi), %rsi
	movq	(%rcx), %rcx
	movq	(%rdi), %rdi
	movq	(%rdx), %rdx
	movq	(%r8), %r9
	movq	(%r15), %r15
	movq	(%r14), %r14
	movq	0(%r13), %r13
	movq	(%r12), %r12
	movq	(%rbx), %rbx
	movq	(%rax), %rax
	movq	(%rsi), %rsi
	movq	(%rcx), %rcx
	movq	(%rdi), %rdi
	movq	(%rdx), %rdx
	movq	(%r9), %r10
	movq	(%r15), %r15
	movq	(%r14), %r14
	movq	0(%r13), %r13
	movq	(%r12), %r12
	movq	(%rbx), %rbx
	movq	(%rax), %rax
	movq	(%rsi), %rsi
	movq	(%rcx), %rcx
	movq	(%rdi), %rdi
	movq	(%rdx), %rdx
	movq	(%r10), %r11
	movq	(%r15), %r15
	movq	(%r14), %r14
	movq	0(%r13), %r13
	movq	(%r12), %r12
	movq	(%rbx), %rbx
	movq	(%rax), %rax
	movq	(%rsi), %rsi
	movq	(%rcx), %rcx
	movq	(%rdi), %rdi
	movq	(%rdx), %rdx
	movq	(%r11), %r8
	movq	(%r15), %r15
	movq	(%r14), %r14
	movq	0(%r13), %r13
	movq	(%r12), %r12
	movq	(%rbx), %rbx
	movq	(%rax), %rax
	movq	(%rsi), %rsi
	movq	(%rcx), %rcx
	movq	(%rdi), %rdi
	movq	(%rdx), %rdx
	movq	(%r8), %r9
	movq	(%r15), %r15
	movq	(%r14), %r14
	movq	0(%r13), %r13
	movq	(%r12), %r12
	movq	(%rbx), %rbx
	movq	(%rax), %rax
	movq	(%rsi), %rsi
	movq	(%rcx), %rcx
	movq	(%rdi), %rdi
	movq	(%rdx), %rdx
	movq	(%r9), %r10
	movq	(%r15), %r15
	movq	(%r14), %r14
	movq	0(%r13), %r13
	movq	(%r12), %r12
	movq	(%rbx), %rbx
	movq	(%rax), %rax
	movq	(%rsi), %rsi
	movq	(%rcx), %rcx
	movq	(%rdi), %rdi
	movq	(%rdx), %rdx
	movq	(%r10), %r11
	movq	(%r15), %r15
	movq	(%r14), %r14
	movq	0(%r13), %r13
	movq	(%r12), %r12
	movq	(%rbx), %rbx
	movq	(%rax), %rax
	movq	(%rsi), %rsi
	movq	(%rcx), %rcx
	movq	(%rdi), %rdi
	movq	(%rdx), %rdx
	movq	(%r11), %r8
	movq	(%r15), %r15
	movq	(%r14), %r14
	movq	0(%r13), %r13
	movq	(%r12), %r12
	movq	(%rbx), %rbx
	movq	(%rax), %rax
	movq	(%rsi), %rsi
	movq	(%rcx), %rcx
	movq	(%rdi), %rdi
	movq	(%rdx), %rdx
	movq	(%r8), %r9
	movq	(%r15), %r15
	movq	(%r14), %r14
	movq	0(%r13), %r13
	movq	(%r12), %r12
	movq	(%rbx), %rbx
	movq	(%rax), %rax
	movq	(%rsi), %rsi
	movq	(%rcx), %rcx
	movq	(%rdi), %rdi
	movq	(%rdx), %rdx
	movq	(%r9), %r10
	movq	(%r15), %r15
	movq	(%r14), %r14
	movq	0(%r13), %r13
	movq	(%r12), %r12
	movq	(%rbx), %rbx
	movq	(%rax), %rax
	movq	(%rsi), %rsi
	movq	(%rcx), %rcx
	movq	(%rdi), %rdi
	movq	(%rdx), %rdx
	movq	(%r10), %r11
	movq	(%r15), %r15
	movq	(%r14), %r14
	movq	0(%r13), %r13
	movq	(%r12), %r12
	movq	(%rbx), %rbx
	movq	(%rax), %rax
	movq	(%rsi), %rsi
	movq	(%rcx), %rcx
	movq	(%rdi), %rdi
	movq	(%rdx), %rdx
	movq	(%r11), %r8
	movq	(%r15), %r15
	movq	(%r14), %r14
	movq	0(%r13), %r13
	movq	(%r12), %r12
	movq	(%rbx), %rbx
	movq	(%rax), %rax
	movq	(%rsi), %rsi
	movq	(%rcx), %rcx
	movq	(%rdi), %rdi
	movq	(%rdx), %rdx
	movq	(%r8), %r9
	movq	(%r15), %r15
	movq	(%r14), %r14
	movq	0(%r13), %r13
	movq	(%r12), %r12
	movq	(%rbx), %rbx
	movq	(%rax), %rax
	movq	(%rsi), %rsi
	movq	(%rcx), %rcx
	movq	(%rdi), %rdi
	movq	(%rdx), %rdx
	movq	(%r9), %r10
	movq	(%r15), %r15
	movq	(%r14), %r14
	movq	0(%r13), %r13
	movq	(%r12), %r12
	movq	(%rbx), %rbx
	movq	(%rax), %rax
	movq	(%rsi), %rsi
	movq	(%rcx), %rcx
	movq	(%rdi), %rdi
	movq	(%rdx), %rdx
	movq	(%r10), %r11
	movq	(%r15), %r15
	movq	(%r14), %r14
	movq	0(%r13), %r13
	movq	(%r12), %r12
	movq	(%rbx), %rbx
	movq	(%rax), %rax
	movq	(%rsi), %rsi
	movq	(%rcx), %rcx
	movq	(%rdi), %rdi
	movq	(%rdx), %rdx
	movq	(%r11), %r8
	movq	(%r15), %r15
	movq	(%r14), %r14
	movq	0(%r13), %r13
	movq	(%r12), %r12
	movq	(%rbx), %rbx
	movq	(%rax), %rax
	movq	(%rsi), %rsi
	movq	(%rcx), %rcx
	movq	(%rdi), %rdi
	movq	(%rdx), %rdx
	movq	(%r8), %r9
	movq	(%r15), %r15
	movq	(%r14), %r14
	movq	0(%r13), %r13
	movq	(%r12), %r12
	movq	(%rbx), %rbx
	movq	(%rax), %rax
	movq	(%rsi), %rsi
	movq	(%rcx), %rcx
	movq	(%rdi), %rdi
	movq	(%rdx), %rdx
	movq	(%r9), %r10
	movq	(%r15), %r15
	movq	(%r14), %r14
	movq	0(%r13), %r13
	movq	(%r12), %r12
	movq	(%rbx), %rbx
	movq	(%rax), %rax
	movq	(%rsi), %rsi
	movq	(%rcx), %rcx
	movq	(%rdi), %rdi
	movq	(%rdx), %rdx
	movq	(%r10), %r11
	movq	(%r15), %r15
	movq	(%r14), %r14
	movq	0(%r13), %r13
	movq	(%r12), %r12
	movq	(%rbx), %rbx
	movq	(%rax), %rax
	movq	(%rsi), %rsi
	movq	(%rcx), %rcx
	movq	(%rdi), %rdi
	movq	(%rdx), %rdx
	movq	(%r11), %r8
	movq	(%r15), %r15
	movq	(%r14), %r14
	movq	0(%r13), %r13
	movq	(%r12), %r12
	movq	(%rbx), %rbx
	movq	(%rax), %rax
	movq	(%rsi), %rsi
	movq	(%rcx), %rcx
	movq	(%rdi), %rdi
	movq	(%rdx), %rdx
	movq	(%r8), %r9
	movq	(%r15), %r15
	movq	(%r14), %r14
	movq	0(%r13), %r13
	movq	(%r12), %r12
	movq	(%rbx), %rbx
	movq	(%rax), %rax
	movq	(%rsi), %rsi
	movq	(%rcx), %rcx
	movq	(%rdi), %rdi
	movq	(%rdx), %rdx
	movq	(%r9), %r10
	movq	(%r15), %r15
	movq	(%r14), %r14
	movq	0(%r13), %r13
	movq	(%r12), %r12
	movq	(%rbx), %rbx
	movq	(%rax), %rax
	movq	(%rsi), %rsi
	movq	(%rcx), %rcx
	movq	(%rdi), %rdi
	movq	(%rdx), %rdx
	movq	(%r10), %r11
	movq	(%r15), %r15
	movq	(%r14), %r14
	movq	0(%r13), %r13
	movq	(%r12), %r12
	movq	(%rbx), %rbx
	movq	(%rax), %rax
	movq	(%rsi), %rsi
	movq	(%rcx), %rcx
	movq	(%rdi), %rdi
	movq	(%rdx), %rdx
	movq	(%r11), %r8
	movq	(%r15), %r15
	movq	(%r14), %r14
	movq	0(%r13), %r13
	movq	(%r12), %r12
	movq	(%rbx), %rbx
	movq	(%rax), %rax
	movq	(%rsi), %rsi
	movq	(%rcx), %rcx
	movq	(%rdi), %rdi
	movq	(%rdx), %rdx
	movq	(%r8), %r9
	movq	(%r15), %r15
	movq	(%r14), %r14
	movq	0(%r13), %r13
	movq	(%r12), %r12
	movq	(%rbx), %rbx
	movq	(%rax), %rax
	movq	(%rsi), %rsi
	movq	(%rcx), %rcx
	movq	(%rdi), %rdi
	movq	(%rdx), %rdx
	movq	(%r9), %r10
	movq	(%r15), %r15
	movq	(%r14), %r14
	movq	0(%r13), %r13
	movq	(%r12), %r12
	movq	(%rbx), %rbx
	movq	(%rax), %rax
	movq	(%rsi), %rsi
	movq	(%rcx), %rcx
	movq	(%rdi), %rdi
	movq	(%rdx), %rdx
	movq	(%r10), %r11
	movq	(%r15), %r15
	movq	(%r14), %r14
	movq	0(%r13), %r13
	movq	(%r12), %r12
	movq	(%rbx), %rbx
	movq	(%rax), %rax
	movq	(%rsi), %rsi
	movq	(%rcx), %rcx
	movq	(%rdi), %rdi
	movq	(%rdx), %rdx
	movq	(%r11), %r8
	movq	(%r15), %r15
	movq	(%r14), %r14
	movq	0(%r13), %r13
	movq	(%r12), %r12
	movq	(%rbx), %rbx
	movq	(%rax), %rax
	movq	(%rsi), %rsi
	movq	(%rcx), %rcx
	movq	(%rdi), %rdi
	movq	(%rdx), %rdx
	movq	(%r8), %r9
	movq	(%r15), %r15
	movq	(%r14), %r14
	movq	0(%r13), %r13
	movq	(%r12), %r12
	movq	(%rbx), %rbx
	movq	(%rax), %rax
	movq	(%rsi), %rsi
	movq	(%rcx), %rcx
	movq	(%rdi), %rdi
	movq	(%rdx), %rdx
	movq	(%r9), %r10
	movq	(%r15), %r15
	movq	(%r14), %r14
	movq	0(%r13), %r13
	movq	(%r12), %r12
	movq	(%rbx), %rbx
	movq	(%rax), %rax
	movq	(%rsi), %rsi
	movq	(%rcx), %rcx
	movq	(%rdi), %rdi
	movq	(%rdx), %rdx
	movq	(%r10), %r11
	movq	(%r15), %r15
	movq	(%r14), %r14
	movq	0(%r13), %r13
	movq	(%r12), %r12
	movq	(%rbx), %rbx
	movq	(%rax), %rax
	movq	(%rsi), %rsi
	movq	(%rcx), %rcx
	movq	(%rdi), %rdi
	movq	(%rdx), %rdx
	movq	(%r11), %r8
	movq	(%r15), %r15
	movq	(%r14), %r14
	movq	0(%r13), %r13
	movq	(%r12), %r12
	movq	(%rbx), %rbx
	movq	(%rax), %rax
	movq	(%rsi), %rsi
	movq	(%rcx), %rcx
	movq	(%rdi), %rdi
	movq	(%rdx), %rdx
	movq	(%r8), %r9
	movq	(%r15), %r15
	movq	(%r14), %r14
	movq	0(%r13), %r13
	movq	(%r12), %r12
	movq	(%rbx), %rbx
	movq	(%rax), %rax
	movq	(%rsi), %rsi
	movq	(%rcx), %rcx
	movq	(%rdi), %rdi
	movq	(%rdx), %rdx
	movq	(%r9), %r10
	movq	(%r15), %r15
	movq	(%r14), %r14
	movq	0(%r13), %r13
	movq	(%r12), %r12
	movq	(%rbx), %rbx
	movq	(%rax), %rax
	movq	(%rsi), %rsi
	movq	(%rcx), %rcx
	movq	(%rdi), %rdi
	movq	(%rdx), %rdx
	movq	(%r10), %r11
	movq	(%r15), %r15
	movq	(%r14), %r14
	movq	0(%r13), %r13
	movq	(%r12), %r12
	movq	(%rbx), %rbx
	movq	(%rax), %rax
	movq	(%rsi), %rsi
	movq	(%rcx), %rcx
	movq	(%rdi), %rdi
	movq	(%rdx), %rdx
	movq	(%r11), %r8
	movq	(%r15), %r15
	movq	(%r14), %r14
	movq	0(%r13), %r13
	movq	(%r12), %r12
	movq	(%rbx), %rbx
	movq	(%rax), %rax
	movq	(%rsi), %rsi
	movq	(%rcx), %rcx
	movq	(%rdi), %rdi
	movq	(%rdx), %rdx
	movq	(%r8), %r9
	movq	(%r15), %r15
	movq	(%r14), %r14
	movq	0(%r13), %r13
	movq	(%r12), %r12
	movq	(%rbx), %rbx
	movq	(%rax), %rax
	movq	(%rsi), %rsi
	movq	(%rcx), %rcx
	movq	(%rdi), %rdi
	movq	(%rdx), %rdx
	movq	(%r9), %r10
	movq	(%r15), %r15
	movq	(%r14), %r14
	movq	0(%r13), %r13
	movq	(%r12), %r12
	movq	(%rbx), %rbx
	movq	(%rax), %rax
	movq	(%rsi), %rsi
	movq	(%rcx), %rcx
	movq	(%rdi), %rdi
	movq	(%rdx), %rdx
	movq	(%r10), %r11
	movq	(%r15), %r15
	movq	(%r14), %r14
	movq	0(%r13), %r13
	movq	(%r12), %r12
	movq	(%rbx), %rbx
	movq	(%rax), %rax
	movq	%rax, %r8
	movq	(%rsi), %rax
	movq	%rax, %rsi
	movq	(%rcx), %rax
	movq	%rax, %r9
	movq	(%rdi), %rax
	movq	%rax, %r10
	movq	(%rdx), %rax
	movq	%rax, -80(%rbp)
	movq	(%r11), %rax
	movq	%rax, %r11
	movq	(%r15), %r15
	movq	(%r14), %r14
	movq	0(%r13), %r13
	movq	(%r12), %r12
	movq	(%rbx), %rbx
.L230:
	movq	-64(%rbp), %rax
	leaq	-1(%rax), %rdx
	movq	%rdx, -64(%rbp)
	testq	%rax, %rax
	jne	.L231
	movq	%r8, %rax
	movq	%rax, sp0.87(%rip)
	movq	%rsi, %rax
	movq	%rax, sp1.86(%rip)
	movq	%r9, %rax
	movq	%rax, sp2.85(%rip)
	movq	%r10, %rax
	movq	%rax, sp3.84(%rip)
	movq	-80(%rbp), %rax
	movq	%rax, sp4.83(%rip)
	movq	%r11, %rax
	movq	%rax, sp5.82(%rip)
	movq	%r15, sp6.81(%rip)
	movq	%r14, sp7.80(%rip)
	movq	%r13, sp8.79(%rip)
	movq	%r12, sp9.78(%rip)
	movq	%rbx, sp10.77(%rip)
	movq	-48(%rbp), %rax
	movq	(%rax), %rax
	movq	%rax, addr_save.88(%rip)
	movl	$1, mem_benchmark_rerun(%rip)
	popq	%rbx
	popq	%r12
	popq	%r13
	popq	%r14
	popq	%r15
	popq	%rbp
	.cfi_def_cfa 7, 8
	ret
	.cfi_endproc
.LFE18:
	.size	mem_benchmark_10, .-mem_benchmark_10
	.globl	mem_benchmark_11
	.type	mem_benchmark_11, @function
mem_benchmark_11:
.LFB19:
	.cfi_startproc
	endbr64
	pushq	%rbp
	.cfi_def_cfa_offset 16
	.cfi_offset 6, -16
	movq	%rsp, %rbp
	.cfi_def_cfa_register 6
	pushq	%r15
	pushq	%r14
	pushq	%r13
	pushq	%r12
	pushq	%rbx
	.cfi_offset 15, -24
	.cfi_offset 14, -32
	.cfi_offset 13, -40
	.cfi_offset 12, -48
	.cfi_offset 3, -56
	movq	%rdi, -64(%rbp)
	movq	%rsi, -72(%rbp)
	movq	-72(%rbp), %rax
	movq	%rax, -48(%rbp)
	movl	mem_benchmark_rerun(%rip), %eax
	testl	%eax, %eax
	je	.L233
	movq	-48(%rbp), %rax
	movq	(%rax), %rdx
	movq	addr_save.76(%rip), %rax
	cmpq	%rax, %rdx
	je	.L234
.L233:
	movq	-48(%rbp), %rax
	movq	16(%rax), %rax
	jmp	.L235
.L234:
	movq	sp0.75(%rip), %rax
.L235:
	movq	%rax, %r8
	movl	mem_benchmark_rerun(%rip), %eax
	testl	%eax, %eax
	je	.L236
	movq	-48(%rbp), %rax
	movq	(%rax), %rdx
	movq	addr_save.76(%rip), %rax
	cmpq	%rax, %rdx
	je	.L237
.L236:
	movq	-48(%rbp), %rax
	movq	24(%rax), %rax
	jmp	.L238
.L237:
	movq	sp1.74(%rip), %rax
.L238:
	movq	%rax, %rsi
	movl	mem_benchmark_rerun(%rip), %eax
	testl	%eax, %eax
	je	.L239
	movq	-48(%rbp), %rax
	movq	(%rax), %rdx
	movq	addr_save.76(%rip), %rax
	cmpq	%rax, %rdx
	je	.L240
.L239:
	movq	-48(%rbp), %rax
	movq	32(%rax), %rax
	jmp	.L241
.L240:
	movq	sp2.73(%rip), %rax
.L241:
	movq	%rax, %r10
	movl	mem_benchmark_rerun(%rip), %eax
	testl	%eax, %eax
	je	.L242
	movq	-48(%rbp), %rax
	movq	(%rax), %rdx
	movq	addr_save.76(%rip), %rax
	cmpq	%rax, %rdx
	je	.L243
.L242:
	movq	-48(%rbp), %rax
	movq	40(%rax), %rax
	jmp	.L244
.L243:
	movq	sp3.72(%rip), %rax
.L244:
	movq	%rax, -80(%rbp)
	movl	mem_benchmark_rerun(%rip), %eax
	testl	%eax, %eax
	je	.L245
	movq	-48(%rbp), %rax
	movq	(%rax), %rdx
	movq	addr_save.76(%rip), %rax
	cmpq	%rax, %rdx
	je	.L246
.L245:
	movq	-48(%rbp), %rax
	movq	48(%rax), %rax
	jmp	.L247
.L246:
	movq	sp4.71(%rip), %rax
.L247:
	movq	%rax, -88(%rbp)
	movl	mem_benchmark_rerun(%rip), %eax
	testl	%eax, %eax
	je	.L248
	movq	-48(%rbp), %rax
	movq	(%rax), %rdx
	movq	addr_save.76(%rip), %rax
	cmpq	%rax, %rdx
	je	.L249
.L248:
	movq	-48(%rbp), %rax
	movq	56(%rax), %rax
	jmp	.L250
.L249:
	movq	sp5.70(%rip), %rax
.L250:
	movq	%rax, %r9
	movl	mem_benchmark_rerun(%rip), %eax
	testl	%eax, %eax
	je	.L251
	movq	-48(%rbp), %rax
	movq	(%rax), %rdx
	movq	addr_save.76(%rip), %rax
	cmpq	%rax, %rdx
	je	.L252
.L251:
	movq	-48(%rbp), %rax
	movq	64(%rax), %rax
	jmp	.L253
.L252:
	movq	sp6.69(%rip), %rax
.L253:
	movq	%rax, %r11
	movl	mem_benchmark_rerun(%rip), %eax
	testl	%eax, %eax
	je	.L254
	movq	-48(%rbp), %rax
	movq	(%rax), %rdx
	movq	addr_save.76(%rip), %rax
	cmpq	%rax, %rdx
	je	.L255
.L254:
	movq	-48(%rbp), %rax
	movq	72(%rax), %rax
	jmp	.L256
.L255:
	movq	sp7.68(%rip), %rax
.L256:
	movq	%rax, %r15
	movl	mem_benchmark_rerun(%rip), %eax
	testl	%eax, %eax
	je	.L257
	movq	-48(%rbp), %rax
	movq	(%rax), %rdx
	movq	addr_save.76(%rip), %rax
	cmpq	%rax, %rdx
	je	.L258
.L257:
	movq	-48(%rbp), %rax
	movq	80(%rax), %rax
	jmp	.L259
.L258:
	movq	sp8.67(%rip), %rax
.L259:
	movq	%rax, %r14
	movl	mem_benchmark_rerun(%rip), %eax
	testl	%eax, %eax
	je	.L260
	movq	-48(%rbp), %rax
	movq	(%rax), %rdx
	movq	addr_save.76(%rip), %rax
	cmpq	%rax, %rdx
	je	.L261
.L260:
	movq	-48(%rbp), %rax
	movq	88(%rax), %rax
	jmp	.L262
.L261:
	movq	sp9.66(%rip), %rax
.L262:
	movq	%rax, %r13
	movl	mem_benchmark_rerun(%rip), %eax
	testl	%eax, %eax
	je	.L263
	movq	-48(%rbp), %rax
	movq	(%rax), %rdx
	movq	addr_save.76(%rip), %rax
	cmpq	%rax, %rdx
	je	.L264
.L263:
	movq	-48(%rbp), %rax
	movq	96(%rax), %rax
	jmp	.L265
.L264:
	movq	sp10.65(%rip), %rax
.L265:
	movq	%rax, %r12
	movl	mem_benchmark_rerun(%rip), %eax
	testl	%eax, %eax
	je	.L266
	movq	-48(%rbp), %rax
	movq	(%rax), %rdx
	movq	addr_save.76(%rip), %rax
	cmpq	%rax, %rdx
	je	.L267
.L266:
	movq	-48(%rbp), %rax
	movq	104(%rax), %rax
	jmp	.L268
.L267:
	movq	sp11.64(%rip), %rax
.L268:
	movq	%rax, %rbx
	jmp	.L269
.L270:
	movq	%r8, %rax
	movq	(%rax), %rax
	movq	%rsi, %rcx
	movq	(%rcx), %rsi
	movq	%r10, %rdi
	movq	(%rdi), %rcx
	movq	-80(%rbp), %rdi
	movq	(%rdi), %rdi
	movq	-88(%rbp), %rdx
	movq	(%rdx), %rdx
	movq	%r9, %r8
	movq	(%r8), %r9
	movq	%r11, %r10
	movq	(%r10), %r11
	movq	(%r15), %r15
	movq	(%r14), %r14
	movq	0(%r13), %r13
	movq	(%r12), %r12
	movq	(%rbx), %rbx
	movq	(%rax), %rax
	movq	(%rsi), %rsi
	movq	(%rcx), %rcx
	movq	(%rdi), %rdi
	movq	(%rdx), %rdx
	movq	(%r9), %r8
	movq	(%r11), %r10
	movq	(%r15), %r15
	movq	(%r14), %r14
	movq	0(%r13), %r13
	movq	(%r12), %r12
	movq	(%rbx), %rbx
	movq	(%rax), %rax
	movq	(%rsi), %rsi
	movq	(%rcx), %rcx
	movq	(%rdi), %rdi
	movq	(%rdx), %rdx
	movq	(%r8), %r9
	movq	(%r10), %r11
	movq	(%r15), %r15
	movq	(%r14), %r14
	movq	0(%r13), %r13
	movq	(%r12), %r12
	movq	(%rbx), %rbx
	movq	(%rax), %rax
	movq	(%rsi), %rsi
	movq	(%rcx), %rcx
	movq	(%rdi), %rdi
	movq	(%rdx), %rdx
	movq	(%r9), %r8
	movq	(%r11), %r10
	movq	(%r15), %r15
	movq	(%r14), %r14
	movq	0(%r13), %r13
	movq	(%r12), %r12
	movq	(%rbx), %rbx
	movq	(%rax), %rax
	movq	(%rsi), %rsi
	movq	(%rcx), %rcx
	movq	(%rdi), %rdi
	movq	(%rdx), %rdx
	movq	(%r8), %r9
	movq	(%r10), %r11
	movq	(%r15), %r15
	movq	(%r14), %r14
	movq	0(%r13), %r13
	movq	(%r12), %r12
	movq	(%rbx), %rbx
	movq	(%rax), %rax
	movq	(%rsi), %rsi
	movq	(%rcx), %rcx
	movq	(%rdi), %rdi
	movq	(%rdx), %rdx
	movq	(%r9), %r8
	movq	(%r11), %r10
	movq	(%r15), %r15
	movq	(%r14), %r14
	movq	0(%r13), %r13
	movq	(%r12), %r12
	movq	(%rbx), %rbx
	movq	(%rax), %rax
	movq	(%rsi), %rsi
	movq	(%rcx), %rcx
	movq	(%rdi), %rdi
	movq	(%rdx), %rdx
	movq	(%r8), %r9
	movq	(%r10), %r11
	movq	(%r15), %r15
	movq	(%r14), %r14
	movq	0(%r13), %r13
	movq	(%r12), %r12
	movq	(%rbx), %rbx
	movq	(%rax), %rax
	movq	(%rsi), %rsi
	movq	(%rcx), %rcx
	movq	(%rdi), %rdi
	movq	(%rdx), %rdx
	movq	(%r9), %r8
	movq	(%r11), %r10
	movq	(%r15), %r15
	movq	(%r14), %r14
	movq	0(%r13), %r13
	movq	(%r12), %r12
	movq	(%rbx), %rbx
	movq	(%rax), %rax
	movq	(%rsi), %rsi
	movq	(%rcx), %rcx
	movq	(%rdi), %rdi
	movq	(%rdx), %rdx
	movq	(%r8), %r9
	movq	(%r10), %r11
	movq	(%r15), %r15
	movq	(%r14), %r14
	movq	0(%r13), %r13
	movq	(%r12), %r12
	movq	(%rbx), %rbx
	movq	(%rax), %rax
	movq	(%rsi), %rsi
	movq	(%rcx), %rcx
	movq	(%rdi), %rdi
	movq	(%rdx), %rdx
	movq	(%r9), %r8
	movq	(%r11), %r10
	movq	(%r15), %r15
	movq	(%r14), %r14
	movq	0(%r13), %r13
	movq	(%r12), %r12
	movq	(%rbx), %rbx
	movq	(%rax), %rax
	movq	(%rsi), %rsi
	movq	(%rcx), %rcx
	movq	(%rdi), %rdi
	movq	(%rdx), %rdx
	movq	(%r8), %r9
	movq	(%r10), %r11
	movq	(%r15), %r15
	movq	(%r14), %r14
	movq	0(%r13), %r13
	movq	(%r12), %r12
	movq	(%rbx), %rbx
	movq	(%rax), %rax
	movq	(%rsi), %rsi
	movq	(%rcx), %rcx
	movq	(%rdi), %rdi
	movq	(%rdx), %rdx
	movq	(%r9), %r8
	movq	(%r11), %r10
	movq	(%r15), %r15
	movq	(%r14), %r14
	movq	0(%r13), %r13
	movq	(%r12), %r12
	movq	(%rbx), %rbx
	movq	(%rax), %rax
	movq	(%rsi), %rsi
	movq	(%rcx), %rcx
	movq	(%rdi), %rdi
	movq	(%rdx), %rdx
	movq	(%r8), %r9
	movq	(%r10), %r11
	movq	(%r15), %r15
	movq	(%r14), %r14
	movq	0(%r13), %r13
	movq	(%r12), %r12
	movq	(%rbx), %rbx
	movq	(%rax), %rax
	movq	(%rsi), %rsi
	movq	(%rcx), %rcx
	movq	(%rdi), %rdi
	movq	(%rdx), %rdx
	movq	(%r9), %r8
	movq	(%r11), %r10
	movq	(%r15), %r15
	movq	(%r14), %r14
	movq	0(%r13), %r13
	movq	(%r12), %r12
	movq	(%rbx), %rbx
	movq	(%rax), %rax
	movq	(%rsi), %rsi
	movq	(%rcx), %rcx
	movq	(%rdi), %rdi
	movq	(%rdx), %rdx
	movq	(%r8), %r9
	movq	(%r10), %r11
	movq	(%r15), %r15
	movq	(%r14), %r14
	movq	0(%r13), %r13
	movq	(%r12), %r12
	movq	(%rbx), %rbx
	movq	(%rax), %rax
	movq	(%rsi), %rsi
	movq	(%rcx), %rcx
	movq	(%rdi), %rdi
	movq	(%rdx), %rdx
	movq	(%r9), %r8
	movq	(%r11), %r10
	movq	(%r15), %r15
	movq	(%r14), %r14
	movq	0(%r13), %r13
	movq	(%r12), %r12
	movq	(%rbx), %rbx
	movq	(%rax), %rax
	movq	(%rsi), %rsi
	movq	(%rcx), %rcx
	movq	(%rdi), %rdi
	movq	(%rdx), %rdx
	movq	(%r8), %r9
	movq	(%r10), %r11
	movq	(%r15), %r15
	movq	(%r14), %r14
	movq	0(%r13), %r13
	movq	(%r12), %r12
	movq	(%rbx), %rbx
	movq	(%rax), %rax
	movq	(%rsi), %rsi
	movq	(%rcx), %rcx
	movq	(%rdi), %rdi
	movq	(%rdx), %rdx
	movq	(%r9), %r8
	movq	(%r11), %r10
	movq	(%r15), %r15
	movq	(%r14), %r14
	movq	0(%r13), %r13
	movq	(%r12), %r12
	movq	(%rbx), %rbx
	movq	(%rax), %rax
	movq	(%rsi), %rsi
	movq	(%rcx), %rcx
	movq	(%rdi), %rdi
	movq	(%rdx), %rdx
	movq	(%r8), %r9
	movq	(%r10), %r11
	movq	(%r15), %r15
	movq	(%r14), %r14
	movq	0(%r13), %r13
	movq	(%r12), %r12
	movq	(%rbx), %rbx
	movq	(%rax), %rax
	movq	(%rsi), %rsi
	movq	(%rcx), %rcx
	movq	(%rdi), %rdi
	movq	(%rdx), %rdx
	movq	(%r9), %r8
	movq	(%r11), %r10
	movq	(%r15), %r15
	movq	(%r14), %r14
	movq	0(%r13), %r13
	movq	(%r12), %r12
	movq	(%rbx), %rbx
	movq	(%rax), %rax
	movq	(%rsi), %rsi
	movq	(%rcx), %rcx
	movq	(%rdi), %rdi
	movq	(%rdx), %rdx
	movq	(%r8), %r9
	movq	(%r10), %r11
	movq	(%r15), %r15
	movq	(%r14), %r14
	movq	0(%r13), %r13
	movq	(%r12), %r12
	movq	(%rbx), %rbx
	movq	(%rax), %rax
	movq	(%rsi), %rsi
	movq	(%rcx), %rcx
	movq	(%rdi), %rdi
	movq	(%rdx), %rdx
	movq	(%r9), %r8
	movq	(%r11), %r10
	movq	(%r15), %r15
	movq	(%r14), %r14
	movq	0(%r13), %r13
	movq	(%r12), %r12
	movq	(%rbx), %rbx
	movq	(%rax), %rax
	movq	(%rsi), %rsi
	movq	(%rcx), %rcx
	movq	(%rdi), %rdi
	movq	(%rdx), %rdx
	movq	(%r8), %r9
	movq	(%r10), %r11
	movq	(%r15), %r15
	movq	(%r14), %r14
	movq	0(%r13), %r13
	movq	(%r12), %r12
	movq	(%rbx), %rbx
	movq	(%rax), %rax
	movq	(%rsi), %rsi
	movq	(%rcx), %rcx
	movq	(%rdi), %rdi
	movq	(%rdx), %rdx
	movq	(%r9), %r8
	movq	(%r11), %r10
	movq	(%r15), %r15
	movq	(%r14), %r14
	movq	0(%r13), %r13
	movq	(%r12), %r12
	movq	(%rbx), %rbx
	movq	(%rax), %rax
	movq	(%rsi), %rsi
	movq	(%rcx), %rcx
	movq	(%rdi), %rdi
	movq	(%rdx), %rdx
	movq	(%r8), %r9
	movq	(%r10), %r11
	movq	(%r15), %r15
	movq	(%r14), %r14
	movq	0(%r13), %r13
	movq	(%r12), %r12
	movq	(%rbx), %rbx
	movq	(%rax), %rax
	movq	(%rsi), %rsi
	movq	(%rcx), %rcx
	movq	(%rdi), %rdi
	movq	(%rdx), %rdx
	movq	(%r9), %r8
	movq	(%r11), %r10
	movq	(%r15), %r15
	movq	(%r14), %r14
	movq	0(%r13), %r13
	movq	(%r12), %r12
	movq	(%rbx), %rbx
	movq	(%rax), %rax
	movq	(%rsi), %rsi
	movq	(%rcx), %rcx
	movq	(%rdi), %rdi
	movq	(%rdx), %rdx
	movq	(%r8), %r9
	movq	(%r10), %r11
	movq	(%r15), %r15
	movq	(%r14), %r14
	movq	0(%r13), %r13
	movq	(%r12), %r12
	movq	(%rbx), %rbx
	movq	(%rax), %rax
	movq	(%rsi), %rsi
	movq	(%rcx), %rcx
	movq	(%rdi), %rdi
	movq	(%rdx), %rdx
	movq	(%r9), %r8
	movq	(%r11), %r10
	movq	(%r15), %r15
	movq	(%r14), %r14
	movq	0(%r13), %r13
	movq	(%r12), %r12
	movq	(%rbx), %rbx
	movq	(%rax), %rax
	movq	(%rsi), %rsi
	movq	(%rcx), %rcx
	movq	(%rdi), %rdi
	movq	(%rdx), %rdx
	movq	(%r8), %r9
	movq	(%r10), %r11
	movq	(%r15), %r15
	movq	(%r14), %r14
	movq	0(%r13), %r13
	movq	(%r12), %r12
	movq	(%rbx), %rbx
	movq	(%rax), %rax
	movq	(%rsi), %rsi
	movq	(%rcx), %rcx
	movq	(%rdi), %rdi
	movq	(%rdx), %rdx
	movq	(%r9), %r8
	movq	(%r11), %r10
	movq	(%r15), %r15
	movq	(%r14), %r14
	movq	0(%r13), %r13
	movq	(%r12), %r12
	movq	(%rbx), %rbx
	movq	(%rax), %rax
	movq	(%rsi), %rsi
	movq	(%rcx), %rcx
	movq	(%rdi), %rdi
	movq	(%rdx), %rdx
	movq	(%r8), %r9
	movq	(%r10), %r11
	movq	(%r15), %r15
	movq	(%r14), %r14
	movq	0(%r13), %r13
	movq	(%r12), %r12
	movq	(%rbx), %rbx
	movq	(%rax), %rax
	movq	(%rsi), %rsi
	movq	(%rcx), %rcx
	movq	(%rdi), %rdi
	movq	(%rdx), %rdx
	movq	(%r9), %r8
	movq	(%r11), %r10
	movq	(%r15), %r15
	movq	(%r14), %r14
	movq	0(%r13), %r13
	movq	(%r12), %r12
	movq	(%rbx), %rbx
	movq	(%rax), %rax
	movq	(%rsi), %rsi
	movq	(%rcx), %rcx
	movq	(%rdi), %rdi
	movq	(%rdx), %rdx
	movq	(%r8), %r9
	movq	(%r10), %r11
	movq	(%r15), %r15
	movq	(%r14), %r14
	movq	0(%r13), %r13
	movq	(%r12), %r12
	movq	(%rbx), %rbx
	movq	(%rax), %rax
	movq	(%rsi), %rsi
	movq	(%rcx), %rcx
	movq	(%rdi), %rdi
	movq	(%rdx), %rdx
	movq	(%r9), %r8
	movq	(%r11), %r10
	movq	(%r15), %r15
	movq	(%r14), %r14
	movq	0(%r13), %r13
	movq	(%r12), %r12
	movq	(%rbx), %rbx
	movq	(%rax), %rax
	movq	(%rsi), %rsi
	movq	(%rcx), %rcx
	movq	(%rdi), %rdi
	movq	(%rdx), %rdx
	movq	(%r8), %r9
	movq	(%r10), %r11
	movq	(%r15), %r15
	movq	(%r14), %r14
	movq	0(%r13), %r13
	movq	(%r12), %r12
	movq	(%rbx), %rbx
	movq	(%rax), %rax
	movq	(%rsi), %rsi
	movq	(%rcx), %rcx
	movq	(%rdi), %rdi
	movq	(%rdx), %rdx
	movq	(%r9), %r8
	movq	(%r11), %r10
	movq	(%r15), %r15
	movq	(%r14), %r14
	movq	0(%r13), %r13
	movq	(%r12), %r12
	movq	(%rbx), %rbx
	movq	(%rax), %rax
	movq	(%rsi), %rsi
	movq	(%rcx), %rcx
	movq	(%rdi), %rdi
	movq	(%rdx), %rdx
	movq	(%r8), %r9
	movq	(%r10), %r11
	movq	(%r15), %r15
	movq	(%r14), %r14
	movq	0(%r13), %r13
	movq	(%r12), %r12
	movq	(%rbx), %rbx
	movq	(%rax), %rax
	movq	(%rsi), %rsi
	movq	(%rcx), %rcx
	movq	(%rdi), %rdi
	movq	(%rdx), %rdx
	movq	(%r9), %r8
	movq	(%r11), %r10
	movq	(%r15), %r15
	movq	(%r14), %r14
	movq	0(%r13), %r13
	movq	(%r12), %r12
	movq	(%rbx), %rbx
	movq	(%rax), %rax
	movq	(%rsi), %rsi
	movq	(%rcx), %rcx
	movq	(%rdi), %rdi
	movq	(%rdx), %rdx
	movq	(%r8), %r9
	movq	(%r10), %r11
	movq	(%r15), %r15
	movq	(%r14), %r14
	movq	0(%r13), %r13
	movq	(%r12), %r12
	movq	(%rbx), %rbx
	movq	(%rax), %rax
	movq	(%rsi), %rsi
	movq	(%rcx), %rcx
	movq	(%rdi), %rdi
	movq	(%rdx), %rdx
	movq	(%r9), %r8
	movq	(%r11), %r10
	movq	(%r15), %r15
	movq	(%r14), %r14
	movq	0(%r13), %r13
	movq	(%r12), %r12
	movq	(%rbx), %rbx
	movq	(%rax), %rax
	movq	(%rsi), %rsi
	movq	(%rcx), %rcx
	movq	(%rdi), %rdi
	movq	(%rdx), %rdx
	movq	(%r8), %r9
	movq	(%r10), %r11
	movq	(%r15), %r15
	movq	(%r14), %r14
	movq	0(%r13), %r13
	movq	(%r12), %r12
	movq	(%rbx), %rbx
	movq	(%rax), %rax
	movq	(%rsi), %rsi
	movq	(%rcx), %rcx
	movq	(%rdi), %rdi
	movq	(%rdx), %rdx
	movq	(%r9), %r8
	movq	(%r11), %r10
	movq	(%r15), %r15
	movq	(%r14), %r14
	movq	0(%r13), %r13
	movq	(%r12), %r12
	movq	(%rbx), %rbx
	movq	(%rax), %rax
	movq	(%rsi), %rsi
	movq	(%rcx), %rcx
	movq	(%rdi), %rdi
	movq	(%rdx), %rdx
	movq	(%r8), %r9
	movq	(%r10), %r11
	movq	(%r15), %r15
	movq	(%r14), %r14
	movq	0(%r13), %r13
	movq	(%r12), %r12
	movq	(%rbx), %rbx
	movq	(%rax), %rax
	movq	(%rsi), %rsi
	movq	(%rcx), %rcx
	movq	(%rdi), %rdi
	movq	(%rdx), %rdx
	movq	(%r9), %r8
	movq	(%r11), %r10
	movq	(%r15), %r15
	movq	(%r14), %r14
	movq	0(%r13), %r13
	movq	(%r12), %r12
	movq	(%rbx), %rbx
	movq	(%rax), %rax
	movq	(%rsi), %rsi
	movq	(%rcx), %rcx
	movq	(%rdi), %rdi
	movq	(%rdx), %rdx
	movq	(%r8), %r9
	movq	(%r10), %r11
	movq	(%r15), %r15
	movq	(%r14), %r14
	movq	0(%r13), %r13
	movq	(%r12), %r12
	movq	(%rbx), %rbx
	movq	(%rax), %rax
	movq	(%rsi), %rsi
	movq	(%rcx), %rcx
	movq	(%rdi), %rdi
	movq	(%rdx), %rdx
	movq	(%r9), %r8
	movq	(%r11), %r10
	movq	(%r15), %r15
	movq	(%r14), %r14
	movq	0(%r13), %r13
	movq	(%r12), %r12
	movq	(%rbx), %rbx
	movq	(%rax), %rax
	movq	(%rsi), %rsi
	movq	(%rcx), %rcx
	movq	(%rdi), %rdi
	movq	(%rdx), %rdx
	movq	(%r8), %r9
	movq	(%r10), %r11
	movq	(%r15), %r15
	movq	(%r14), %r14
	movq	0(%r13), %r13
	movq	(%r12), %r12
	movq	(%rbx), %rbx
	movq	(%rax), %rax
	movq	(%rsi), %rsi
	movq	(%rcx), %rcx
	movq	(%rdi), %rdi
	movq	(%rdx), %rdx
	movq	(%r9), %r8
	movq	(%r11), %r10
	movq	(%r15), %r15
	movq	(%r14), %r14
	movq	0(%r13), %r13
	movq	(%r12), %r12
	movq	(%rbx), %rbx
	movq	(%rax), %rax
	movq	(%rsi), %rsi
	movq	(%rcx), %rcx
	movq	(%rdi), %rdi
	movq	(%rdx), %rdx
	movq	(%r8), %r9
	movq	(%r10), %r11
	movq	(%r15), %r15
	movq	(%r14), %r14
	movq	0(%r13), %r13
	movq	(%r12), %r12
	movq	(%rbx), %rbx
	movq	(%rax), %rax
	movq	(%rsi), %rsi
	movq	(%rcx), %rcx
	movq	(%rdi), %rdi
	movq	(%rdx), %rdx
	movq	(%r9), %r8
	movq	(%r11), %r10
	movq	(%r15), %r15
	movq	(%r14), %r14
	movq	0(%r13), %r13
	movq	(%r12), %r12
	movq	(%rbx), %rbx
	movq	(%rax), %rax
	movq	(%rsi), %rsi
	movq	(%rcx), %rcx
	movq	(%rdi), %rdi
	movq	(%rdx), %rdx
	movq	(%r8), %r9
	movq	(%r10), %r11
	movq	(%r15), %r15
	movq	(%r14), %r14
	movq	0(%r13), %r13
	movq	(%r12), %r12
	movq	(%rbx), %rbx
	movq	(%rax), %rax
	movq	(%rsi), %rsi
	movq	(%rcx), %rcx
	movq	(%rdi), %rdi
	movq	(%rdx), %rdx
	movq	(%r9), %r8
	movq	(%r11), %r10
	movq	(%r15), %r15
	movq	(%r14), %r14
	movq	0(%r13), %r13
	movq	(%r12), %r12
	movq	(%rbx), %rbx
	movq	(%rax), %rax
	movq	(%rsi), %rsi
	movq	(%rcx), %rcx
	movq	(%rdi), %rdi
	movq	(%rdx), %rdx
	movq	(%r8), %r9
	movq	(%r10), %r11
	movq	(%r15), %r15
	movq	(%r14), %r14
	movq	0(%r13), %r13
	movq	(%r12), %r12
	movq	(%rbx), %rbx
	movq	(%rax), %rax
	movq	(%rsi), %rsi
	movq	(%rcx), %rcx
	movq	(%rdi), %rdi
	movq	(%rdx), %rdx
	movq	(%r9), %r8
	movq	(%r11), %r10
	movq	(%r15), %r15
	movq	(%r14), %r14
	movq	0(%r13), %r13
	movq	(%r12), %r12
	movq	(%rbx), %rbx
	movq	(%rax), %rax
	movq	(%rsi), %rsi
	movq	(%rcx), %rcx
	movq	(%rdi), %rdi
	movq	(%rdx), %rdx
	movq	(%r8), %r9
	movq	(%r10), %r11
	movq	(%r15), %r15
	movq	(%r14), %r14
	movq	0(%r13), %r13
	movq	(%r12), %r12
	movq	(%rbx), %rbx
	movq	(%rax), %rax
	movq	(%rsi), %rsi
	movq	(%rcx), %rcx
	movq	(%rdi), %rdi
	movq	(%rdx), %rdx
	movq	(%r9), %r8
	movq	(%r11), %r10
	movq	(%r15), %r15
	movq	(%r14), %r14
	movq	0(%r13), %r13
	movq	(%r12), %r12
	movq	(%rbx), %rbx
	movq	(%rax), %rax
	movq	(%rsi), %rsi
	movq	(%rcx), %rcx
	movq	(%rdi), %rdi
	movq	(%rdx), %rdx
	movq	(%r8), %r9
	movq	(%r10), %r11
	movq	(%r15), %r15
	movq	(%r14), %r14
	movq	0(%r13), %r13
	movq	(%r12), %r12
	movq	(%rbx), %rbx
	movq	(%rax), %rax
	movq	(%rsi), %rsi
	movq	(%rcx), %rcx
	movq	(%rdi), %rdi
	movq	(%rdx), %rdx
	movq	(%r9), %r8
	movq	(%r11), %r10
	movq	(%r15), %r15
	movq	(%r14), %r14
	movq	0(%r13), %r13
	movq	(%r12), %r12
	movq	(%rbx), %rbx
	movq	(%rax), %rax
	movq	(%rsi), %rsi
	movq	(%rcx), %rcx
	movq	(%rdi), %rdi
	movq	(%rdx), %rdx
	movq	(%r8), %r9
	movq	(%r10), %r11
	movq	(%r15), %r15
	movq	(%r14), %r14
	movq	0(%r13), %r13
	movq	(%r12), %r12
	movq	(%rbx), %rbx
	movq	(%rax), %rax
	movq	(%rsi), %rsi
	movq	(%rcx), %rcx
	movq	(%rdi), %rdi
	movq	(%rdx), %rdx
	movq	(%r9), %r8
	movq	(%r11), %r10
	movq	(%r15), %r15
	movq	(%r14), %r14
	movq	0(%r13), %r13
	movq	(%r12), %r12
	movq	(%rbx), %rbx
	movq	(%rax), %rax
	movq	(%rsi), %rsi
	movq	(%rcx), %rcx
	movq	(%rdi), %rdi
	movq	(%rdx), %rdx
	movq	(%r8), %r9
	movq	(%r10), %r11
	movq	(%r15), %r15
	movq	(%r14), %r14
	movq	0(%r13), %r13
	movq	(%r12), %r12
	movq	(%rbx), %rbx
	movq	(%rax), %rax
	movq	(%rsi), %rsi
	movq	(%rcx), %rcx
	movq	(%rdi), %rdi
	movq	(%rdx), %rdx
	movq	(%r9), %r8
	movq	(%r11), %r10
	movq	(%r15), %r15
	movq	(%r14), %r14
	movq	0(%r13), %r13
	movq	(%r12), %r12
	movq	(%rbx), %rbx
	movq	(%rax), %rax
	movq	(%rsi), %rsi
	movq	(%rcx), %rcx
	movq	(%rdi), %rdi
	movq	(%rdx), %rdx
	movq	(%r8), %r9
	movq	(%r10), %r11
	movq	(%r15), %r15
	movq	(%r14), %r14
	movq	0(%r13), %r13
	movq	(%r12), %r12
	movq	(%rbx), %rbx
	movq	(%rax), %rax
	movq	(%rsi), %rsi
	movq	(%rcx), %rcx
	movq	(%rdi), %rdi
	movq	(%rdx), %rdx
	movq	(%r9), %r8
	movq	(%r11), %r10
	movq	(%r15), %r15
	movq	(%r14), %r14
	movq	0(%r13), %r13
	movq	(%r12), %r12
	movq	(%rbx), %rbx
	movq	(%rax), %rax
	movq	(%rsi), %rsi
	movq	(%rcx), %rcx
	movq	(%rdi), %rdi
	movq	(%rdx), %rdx
	movq	(%r8), %r9
	movq	(%r10), %r11
	movq	(%r15), %r15
	movq	(%r14), %r14
	movq	0(%r13), %r13
	movq	(%r12), %r12
	movq	(%rbx), %rbx
	movq	(%rax), %rax
	movq	(%rsi), %rsi
	movq	(%rcx), %rcx
	movq	(%rdi), %rdi
	movq	(%rdx), %rdx
	movq	(%r9), %r8
	movq	(%r11), %r10
	movq	(%r15), %r15
	movq	(%r14), %r14
	movq	0(%r13), %r13
	movq	(%r12), %r12
	movq	(%rbx), %rbx
	movq	(%rax), %rax
	movq	(%rsi), %rsi
	movq	(%rcx), %rcx
	movq	(%rdi), %rdi
	movq	(%rdx), %rdx
	movq	(%r8), %r9
	movq	(%r10), %r11
	movq	(%r15), %r15
	movq	(%r14), %r14
	movq	0(%r13), %r13
	movq	(%r12), %r12
	movq	(%rbx), %rbx
	movq	(%rax), %rax
	movq	(%rsi), %rsi
	movq	(%rcx), %rcx
	movq	(%rdi), %rdi
	movq	(%rdx), %rdx
	movq	(%r9), %r8
	movq	(%r11), %r10
	movq	(%r15), %r15
	movq	(%r14), %r14
	movq	0(%r13), %r13
	movq	(%r12), %r12
	movq	(%rbx), %rbx
	movq	(%rax), %rax
	movq	(%rsi), %rsi
	movq	(%rcx), %rcx
	movq	(%rdi), %rdi
	movq	(%rdx), %rdx
	movq	(%r8), %r9
	movq	(%r10), %r11
	movq	(%r15), %r15
	movq	(%r14), %r14
	movq	0(%r13), %r13
	movq	(%r12), %r12
	movq	(%rbx), %rbx
	movq	(%rax), %rax
	movq	(%rsi), %rsi
	movq	(%rcx), %rcx
	movq	(%rdi), %rdi
	movq	(%rdx), %rdx
	movq	(%r9), %r8
	movq	(%r11), %r10
	movq	(%r15), %r15
	movq	(%r14), %r14
	movq	0(%r13), %r13
	movq	(%r12), %r12
	movq	(%rbx), %rbx
	movq	(%rax), %rax
	movq	(%rsi), %rsi
	movq	(%rcx), %rcx
	movq	(%rdi), %rdi
	movq	(%rdx), %rdx
	movq	(%r8), %r9
	movq	(%r10), %r11
	movq	(%r15), %r15
	movq	(%r14), %r14
	movq	0(%r13), %r13
	movq	(%r12), %r12
	movq	(%rbx), %rbx
	movq	(%rax), %rax
	movq	(%rsi), %rsi
	movq	(%rcx), %rcx
	movq	(%rdi), %rdi
	movq	(%rdx), %rdx
	movq	(%r9), %r8
	movq	(%r11), %r10
	movq	(%r15), %r15
	movq	(%r14), %r14
	movq	0(%r13), %r13
	movq	(%r12), %r12
	movq	(%rbx), %rbx
	movq	(%rax), %rax
	movq	(%rsi), %rsi
	movq	(%rcx), %rcx
	movq	(%rdi), %rdi
	movq	(%rdx), %rdx
	movq	(%r8), %r9
	movq	(%r10), %r11
	movq	(%r15), %r15
	movq	(%r14), %r14
	movq	0(%r13), %r13
	movq	(%r12), %r12
	movq	(%rbx), %rbx
	movq	(%rax), %rax
	movq	(%rsi), %rsi
	movq	(%rcx), %rcx
	movq	(%rdi), %rdi
	movq	(%rdx), %rdx
	movq	(%r9), %r8
	movq	(%r11), %r10
	movq	(%r15), %r15
	movq	(%r14), %r14
	movq	0(%r13), %r13
	movq	(%r12), %r12
	movq	(%rbx), %rbx
	movq	(%rax), %rax
	movq	(%rsi), %rsi
	movq	(%rcx), %rcx
	movq	(%rdi), %rdi
	movq	(%rdx), %rdx
	movq	(%r8), %r9
	movq	(%r10), %r11
	movq	(%r15), %r15
	movq	(%r14), %r14
	movq	0(%r13), %r13
	movq	(%r12), %r12
	movq	(%rbx), %rbx
	movq	(%rax), %rax
	movq	(%rsi), %rsi
	movq	(%rcx), %rcx
	movq	(%rdi), %rdi
	movq	(%rdx), %rdx
	movq	(%r9), %r8
	movq	(%r11), %r10
	movq	(%r15), %r15
	movq	(%r14), %r14
	movq	0(%r13), %r13
	movq	(%r12), %r12
	movq	(%rbx), %rbx
	movq	(%rax), %rax
	movq	(%rsi), %rsi
	movq	(%rcx), %rcx
	movq	(%rdi), %rdi
	movq	(%rdx), %rdx
	movq	(%r8), %r9
	movq	(%r10), %r11
	movq	(%r15), %r15
	movq	(%r14), %r14
	movq	0(%r13), %r13
	movq	(%r12), %r12
	movq	(%rbx), %rbx
	movq	(%rax), %rax
	movq	(%rsi), %rsi
	movq	(%rcx), %rcx
	movq	(%rdi), %rdi
	movq	(%rdx), %rdx
	movq	(%r9), %r8
	movq	(%r11), %r10
	movq	(%r15), %r15
	movq	(%r14), %r14
	movq	0(%r13), %r13
	movq	(%r12), %r12
	movq	(%rbx), %rbx
	movq	(%rax), %rax
	movq	(%rsi), %rsi
	movq	(%rcx), %rcx
	movq	(%rdi), %rdi
	movq	(%rdx), %rdx
	movq	(%r8), %r9
	movq	(%r10), %r11
	movq	(%r15), %r15
	movq	(%r14), %r14
	movq	0(%r13), %r13
	movq	(%r12), %r12
	movq	(%rbx), %rbx
	movq	(%rax), %rax
	movq	(%rsi), %rsi
	movq	(%rcx), %rcx
	movq	(%rdi), %rdi
	movq	(%rdx), %rdx
	movq	(%r9), %r8
	movq	(%r11), %r10
	movq	(%r15), %r15
	movq	(%r14), %r14
	movq	0(%r13), %r13
	movq	(%r12), %r12
	movq	(%rbx), %rbx
	movq	(%rax), %rax
	movq	(%rsi), %rsi
	movq	(%rcx), %rcx
	movq	(%rdi), %rdi
	movq	(%rdx), %rdx
	movq	(%r8), %r9
	movq	(%r10), %r11
	movq	(%r15), %r15
	movq	(%r14), %r14
	movq	0(%r13), %r13
	movq	(%r12), %r12
	movq	(%rbx), %rbx
	movq	(%rax), %rax
	movq	(%rsi), %rsi
	movq	(%rcx), %rcx
	movq	(%rdi), %rdi
	movq	(%rdx), %rdx
	movq	(%r9), %r8
	movq	(%r11), %r10
	movq	(%r15), %r15
	movq	(%r14), %r14
	movq	0(%r13), %r13
	movq	(%r12), %r12
	movq	(%rbx), %rbx
	movq	(%rax), %rax
	movq	(%rsi), %rsi
	movq	(%rcx), %rcx
	movq	(%rdi), %rdi
	movq	(%rdx), %rdx
	movq	(%r8), %r9
	movq	(%r10), %r11
	movq	(%r15), %r15
	movq	(%r14), %r14
	movq	0(%r13), %r13
	movq	(%r12), %r12
	movq	(%rbx), %rbx
	movq	(%rax), %rax
	movq	(%rsi), %rsi
	movq	(%rcx), %rcx
	movq	(%rdi), %rdi
	movq	(%rdx), %rdx
	movq	(%r9), %r8
	movq	(%r11), %r10
	movq	(%r15), %r15
	movq	(%r14), %r14
	movq	0(%r13), %r13
	movq	(%r12), %r12
	movq	(%rbx), %rbx
	movq	(%rax), %rax
	movq	(%rsi), %rsi
	movq	(%rcx), %rcx
	movq	(%rdi), %rdi
	movq	(%rdx), %rdx
	movq	(%r8), %r9
	movq	(%r10), %r11
	movq	(%r15), %r15
	movq	(%r14), %r14
	movq	0(%r13), %r13
	movq	(%r12), %r12
	movq	(%rbx), %rbx
	movq	(%rax), %rax
	movq	(%rsi), %rsi
	movq	(%rcx), %rcx
	movq	(%rdi), %rdi
	movq	(%rdx), %rdx
	movq	(%r9), %r8
	movq	(%r11), %r10
	movq	(%r15), %r15
	movq	(%r14), %r14
	movq	0(%r13), %r13
	movq	(%r12), %r12
	movq	(%rbx), %rbx
	movq	(%rax), %rax
	movq	(%rsi), %rsi
	movq	(%rcx), %rcx
	movq	(%rdi), %rdi
	movq	(%rdx), %rdx
	movq	(%r8), %r9
	movq	(%r10), %r11
	movq	(%r15), %r15
	movq	(%r14), %r14
	movq	0(%r13), %r13
	movq	(%r12), %r12
	movq	(%rbx), %rbx
	movq	(%rax), %rax
	movq	(%rsi), %rsi
	movq	(%rcx), %rcx
	movq	(%rdi), %rdi
	movq	(%rdx), %rdx
	movq	(%r9), %r8
	movq	(%r11), %r10
	movq	(%r15), %r15
	movq	(%r14), %r14
	movq	0(%r13), %r13
	movq	(%r12), %r12
	movq	(%rbx), %rbx
	movq	(%rax), %rax
	movq	(%rsi), %rsi
	movq	(%rcx), %rcx
	movq	(%rdi), %rdi
	movq	(%rdx), %rdx
	movq	(%r8), %r9
	movq	(%r10), %r11
	movq	(%r15), %r15
	movq	(%r14), %r14
	movq	0(%r13), %r13
	movq	(%r12), %r12
	movq	(%rbx), %rbx
	movq	(%rax), %rax
	movq	(%rsi), %rsi
	movq	(%rcx), %rcx
	movq	(%rdi), %rdi
	movq	(%rdx), %rdx
	movq	(%r9), %r8
	movq	(%r11), %r10
	movq	(%r15), %r15
	movq	(%r14), %r14
	movq	0(%r13), %r13
	movq	(%r12), %r12
	movq	(%rbx), %rbx
	movq	(%rax), %rax
	movq	(%rsi), %rsi
	movq	(%rcx), %rcx
	movq	(%rdi), %rdi
	movq	(%rdx), %rdx
	movq	(%r8), %r9
	movq	(%r10), %r11
	movq	(%r15), %r15
	movq	(%r14), %r14
	movq	0(%r13), %r13
	movq	(%r12), %r12
	movq	(%rbx), %rbx
	movq	(%rax), %rax
	movq	(%rsi), %rsi
	movq	(%rcx), %rcx
	movq	(%rdi), %rdi
	movq	(%rdx), %rdx
	movq	(%r9), %r8
	movq	(%r11), %r10
	movq	(%r15), %r15
	movq	(%r14), %r14
	movq	0(%r13), %r13
	movq	(%r12), %r12
	movq	(%rbx), %rbx
	movq	(%rax), %rax
	movq	(%rsi), %rsi
	movq	(%rcx), %rcx
	movq	(%rdi), %rdi
	movq	(%rdx), %rdx
	movq	(%r8), %r9
	movq	(%r10), %r11
	movq	(%r15), %r15
	movq	(%r14), %r14
	movq	0(%r13), %r13
	movq	(%r12), %r12
	movq	(%rbx), %rbx
	movq	(%rax), %rax
	movq	(%rsi), %rsi
	movq	(%rcx), %rcx
	movq	(%rdi), %rdi
	movq	(%rdx), %rdx
	movq	(%r9), %r8
	movq	(%r11), %r10
	movq	(%r15), %r15
	movq	(%r14), %r14
	movq	0(%r13), %r13
	movq	(%r12), %r12
	movq	(%rbx), %rbx
	movq	(%rax), %rax
	movq	(%rsi), %rsi
	movq	(%rcx), %rcx
	movq	(%rdi), %rdi
	movq	(%rdx), %rdx
	movq	(%r8), %r9
	movq	(%r10), %r11
	movq	(%r15), %r15
	movq	(%r14), %r14
	movq	0(%r13), %r13
	movq	(%r12), %r12
	movq	(%rbx), %rbx
	movq	(%rax), %rax
	movq	(%rsi), %rsi
	movq	(%rcx), %rcx
	movq	(%rdi), %rdi
	movq	(%rdx), %rdx
	movq	(%r9), %r8
	movq	(%r11), %r10
	movq	(%r15), %r15
	movq	(%r14), %r14
	movq	0(%r13), %r13
	movq	(%r12), %r12
	movq	(%rbx), %rbx
	movq	(%rax), %rax
	movq	(%rsi), %rsi
	movq	(%rcx), %rcx
	movq	(%rdi), %rdi
	movq	(%rdx), %rdx
	movq	(%r8), %r9
	movq	(%r10), %r11
	movq	(%r15), %r15
	movq	(%r14), %r14
	movq	0(%r13), %r13
	movq	(%r12), %r12
	movq	(%rbx), %rbx
	movq	(%rax), %rax
	movq	(%rsi), %rsi
	movq	(%rcx), %rcx
	movq	(%rdi), %rdi
	movq	(%rdx), %rdx
	movq	(%r9), %r8
	movq	(%r11), %r10
	movq	(%r15), %r15
	movq	(%r14), %r14
	movq	0(%r13), %r13
	movq	(%r12), %r12
	movq	(%rbx), %rbx
	movq	(%rax), %rax
	movq	(%rsi), %rsi
	movq	(%rcx), %rcx
	movq	(%rdi), %rdi
	movq	(%rdx), %rdx
	movq	(%r8), %r9
	movq	(%r10), %r11
	movq	(%r15), %r15
	movq	(%r14), %r14
	movq	0(%r13), %r13
	movq	(%r12), %r12
	movq	(%rbx), %rbx
	movq	(%rax), %rax
	movq	%rax, %r8
	movq	(%rsi), %rax
	movq	%rax, %rsi
	movq	(%rcx), %rax
	movq	%rax, %r10
	movq	(%rdi), %rax
	movq	%rax, -80(%rbp)
	movq	(%rdx), %rax
	movq	%rax, -88(%rbp)
	movq	(%r9), %rax
	movq	%rax, %r9
	movq	(%r11), %rax
	movq	%rax, %r11
	movq	(%r15), %r15
	movq	(%r14), %r14
	movq	0(%r13), %r13
	movq	(%r12), %r12
	movq	(%rbx), %rbx
.L269:
	movq	-64(%rbp), %rax
	leaq	-1(%rax), %rdx
	movq	%rdx, -64(%rbp)
	testq	%rax, %rax
	jne	.L270
	movq	%r8, %rax
	movq	%rax, sp0.75(%rip)
	movq	%rsi, %rax
	movq	%rax, sp1.74(%rip)
	movq	%r10, %rax
	movq	%rax, sp2.73(%rip)
	movq	-80(%rbp), %rax
	movq	%rax, sp3.72(%rip)
	movq	-88(%rbp), %rax
	movq	%rax, sp4.71(%rip)
	movq	%r9, %rax
	movq	%rax, sp5.70(%rip)
	movq	%r11, %rax
	movq	%rax, sp6.69(%rip)
	movq	%r15, sp7.68(%rip)
	movq	%r14, sp8.67(%rip)
	movq	%r13, sp9.66(%rip)
	movq	%r12, sp10.65(%rip)
	movq	%rbx, sp11.64(%rip)
	movq	-48(%rbp), %rax
	movq	(%rax), %rax
	movq	%rax, addr_save.76(%rip)
	movl	$1, mem_benchmark_rerun(%rip)
	popq	%rbx
	popq	%r12
	popq	%r13
	popq	%r14
	popq	%r15
	popq	%rbp
	.cfi_def_cfa 7, 8
	ret
	.cfi_endproc
.LFE19:
	.size	mem_benchmark_11, .-mem_benchmark_11
	.globl	mem_benchmark_12
	.type	mem_benchmark_12, @function
mem_benchmark_12:
.LFB20:
	.cfi_startproc
	endbr64
	pushq	%rbp
	.cfi_def_cfa_offset 16
	.cfi_offset 6, -16
	movq	%rsp, %rbp
	.cfi_def_cfa_register 6
	pushq	%r15
	pushq	%r14
	pushq	%r13
	pushq	%r12
	pushq	%rbx
	.cfi_offset 15, -24
	.cfi_offset 14, -32
	.cfi_offset 13, -40
	.cfi_offset 12, -48
	.cfi_offset 3, -56
	movq	%rdi, -64(%rbp)
	movq	%rsi, -72(%rbp)
	movq	-72(%rbp), %rax
	movq	%rax, -48(%rbp)
	movl	mem_benchmark_rerun(%rip), %eax
	testl	%eax, %eax
	je	.L272
	movq	-48(%rbp), %rax
	movq	(%rax), %rdx
	movq	addr_save.63(%rip), %rax
	cmpq	%rax, %rdx
	je	.L273
.L272:
	movq	-48(%rbp), %rax
	movq	16(%rax), %rax
	jmp	.L274
.L273:
	movq	sp0.62(%rip), %rax
.L274:
	movq	%rax, %r11
	movl	mem_benchmark_rerun(%rip), %eax
	testl	%eax, %eax
	je	.L275
	movq	-48(%rbp), %rax
	movq	(%rax), %rdx
	movq	addr_save.63(%rip), %rax
	cmpq	%rax, %rdx
	je	.L276
.L275:
	movq	-48(%rbp), %rax
	movq	24(%rax), %rax
	jmp	.L277
.L276:
	movq	sp1.61(%rip), %rax
.L277:
	movq	%rax, %rsi
	movl	mem_benchmark_rerun(%rip), %eax
	testl	%eax, %eax
	je	.L278
	movq	-48(%rbp), %rax
	movq	(%rax), %rdx
	movq	addr_save.63(%rip), %rax
	cmpq	%rax, %rdx
	je	.L279
.L278:
	movq	-48(%rbp), %rax
	movq	32(%rax), %rax
	jmp	.L280
.L279:
	movq	sp2.60(%rip), %rax
.L280:
	movq	%rax, -80(%rbp)
	movl	mem_benchmark_rerun(%rip), %eax
	testl	%eax, %eax
	je	.L281
	movq	-48(%rbp), %rax
	movq	(%rax), %rdx
	movq	addr_save.63(%rip), %rax
	cmpq	%rax, %rdx
	je	.L282
.L281:
	movq	-48(%rbp), %rax
	movq	40(%rax), %rax
	jmp	.L283
.L282:
	movq	sp3.59(%rip), %rax
.L283:
	movq	%rax, -88(%rbp)
	movl	mem_benchmark_rerun(%rip), %eax
	testl	%eax, %eax
	je	.L284
	movq	-48(%rbp), %rax
	movq	(%rax), %rdx
	movq	addr_save.63(%rip), %rax
	cmpq	%rax, %rdx
	je	.L285
.L284:
	movq	-48(%rbp), %rax
	movq	48(%rax), %rax
	jmp	.L286
.L285:
	movq	sp4.58(%rip), %rax
.L286:
	movq	%rax, -96(%rbp)
	movl	mem_benchmark_rerun(%rip), %eax
	testl	%eax, %eax
	je	.L287
	movq	-48(%rbp), %rax
	movq	(%rax), %rdx
	movq	addr_save.63(%rip), %rax
	cmpq	%rax, %rdx
	je	.L288
.L287:
	movq	-48(%rbp), %rax
	movq	56(%rax), %rax
	jmp	.L289
.L288:
	movq	sp5.57(%rip), %rax
.L289:
	movq	%rax, %r10
	movl	mem_benchmark_rerun(%rip), %eax
	testl	%eax, %eax
	je	.L290
	movq	-48(%rbp), %rax
	movq	(%rax), %rdx
	movq	addr_save.63(%rip), %rax
	cmpq	%rax, %rdx
	je	.L291
.L290:
	movq	-48(%rbp), %rax
	movq	64(%rax), %rax
	jmp	.L292
.L291:
	movq	sp6.56(%rip), %rax
.L292:
	movq	%rax, -104(%rbp)
	movl	mem_benchmark_rerun(%rip), %eax
	testl	%eax, %eax
	je	.L293
	movq	-48(%rbp), %rax
	movq	(%rax), %rdx
	movq	addr_save.63(%rip), %rax
	cmpq	%rax, %rdx
	je	.L294
.L293:
	movq	-48(%rbp), %rax
	movq	72(%rax), %rax
	jmp	.L295
.L294:
	movq	sp7.55(%rip), %rax
.L295:
	movq	%rax, -112(%rbp)
	movl	mem_benchmark_rerun(%rip), %eax
	testl	%eax, %eax
	je	.L296
	movq	-48(%rbp), %rax
	movq	(%rax), %rdx
	movq	addr_save.63(%rip), %rax
	cmpq	%rax, %rdx
	je	.L297
.L296:
	movq	-48(%rbp), %rax
	movq	80(%rax), %rax
	jmp	.L298
.L297:
	movq	sp8.54(%rip), %rax
.L298:
	movq	%rax, %r15
	movl	mem_benchmark_rerun(%rip), %eax
	testl	%eax, %eax
	je	.L299
	movq	-48(%rbp), %rax
	movq	(%rax), %rdx
	movq	addr_save.63(%rip), %rax
	cmpq	%rax, %rdx
	je	.L300
.L299:
	movq	-48(%rbp), %rax
	movq	88(%rax), %rax
	jmp	.L301
.L300:
	movq	sp9.53(%rip), %rax
.L301:
	movq	%rax, %r14
	movl	mem_benchmark_rerun(%rip), %eax
	testl	%eax, %eax
	je	.L302
	movq	-48(%rbp), %rax
	movq	(%rax), %rdx
	movq	addr_save.63(%rip), %rax
	cmpq	%rax, %rdx
	je	.L303
.L302:
	movq	-48(%rbp), %rax
	movq	96(%rax), %rax
	jmp	.L304
.L303:
	movq	sp10.52(%rip), %rax
.L304:
	movq	%rax, %r13
	movl	mem_benchmark_rerun(%rip), %eax
	testl	%eax, %eax
	je	.L305
	movq	-48(%rbp), %rax
	movq	(%rax), %rdx
	movq	addr_save.63(%rip), %rax
	cmpq	%rax, %rdx
	je	.L306
.L305:
	movq	-48(%rbp), %rax
	movq	104(%rax), %rax
	jmp	.L307
.L306:
	movq	sp11.51(%rip), %rax
.L307:
	movq	%rax, %r12
	movl	mem_benchmark_rerun(%rip), %eax
	testl	%eax, %eax
	je	.L308
	movq	-48(%rbp), %rax
	movq	(%rax), %rdx
	movq	addr_save.63(%rip), %rax
	cmpq	%rax, %rdx
	je	.L309
.L308:
	movq	-48(%rbp), %rax
	movq	112(%rax), %rax
	jmp	.L310
.L309:
	movq	sp12.50(%rip), %rax
.L310:
	movq	%rax, %rbx
	jmp	.L311
.L312:
	movq	%r11, %rax
	movq	(%rax), %rax
	movq	%rsi, %rcx
	movq	(%rcx), %rsi
	movq	-80(%rbp), %rdi
	movq	(%rdi), %rcx
	movq	-88(%rbp), %rdi
	movq	(%rdi), %rdi
	movq	-96(%rbp), %rdx
	movq	(%rdx), %rdx
	movq	%r10, %r8
	movq	(%r8), %r9
	movq	-104(%rbp), %r10
	movq	(%r10), %r11
	movq	-112(%rbp), %r8
	movq	(%r8), %r10
	movq	(%r15), %r15
	movq	(%r14), %r14
	movq	0(%r13), %r13
	movq	(%r12), %r12
	movq	(%rbx), %rbx
	movq	(%rax), %rax
	movq	(%rsi), %rsi
	movq	(%rcx), %rcx
	movq	(%rdi), %rdi
	movq	(%rdx), %rdx
	movq	(%r9), %r8
	movq	(%r11), %r9
	movq	(%r10), %r11
	movq	(%r15), %r15
	movq	(%r14), %r14
	movq	0(%r13), %r13
	movq	(%r12), %r12
	movq	(%rbx), %rbx
	movq	(%rax), %rax
	movq	(%rsi), %rsi
	movq	(%rcx), %rcx
	movq	(%rdi), %rdi
	movq	(%rdx), %rdx
	movq	(%r8), %r10
	movq	(%r9), %r8
	movq	(%r11), %r9
	movq	(%r15), %r15
	movq	(%r14), %r14
	movq	0(%r13), %r13
	movq	(%r12), %r12
	movq	(%rbx), %rbx
	movq	(%rax), %rax
	movq	(%rsi), %rsi
	movq	(%rcx), %rcx
	movq	(%rdi), %rdi
	movq	(%rdx), %rdx
	movq	(%r10), %r11
	movq	(%r8), %r10
	movq	(%r9), %r8
	movq	(%r15), %r15
	movq	(%r14), %r14
	movq	0(%r13), %r13
	movq	(%r12), %r12
	movq	(%rbx), %rbx
	movq	(%rax), %rax
	movq	(%rsi), %rsi
	movq	(%rcx), %rcx
	movq	(%rdi), %rdi
	movq	(%rdx), %rdx
	movq	(%r11), %r9
	movq	(%r10), %r11
	movq	(%r8), %r10
	movq	(%r15), %r15
	movq	(%r14), %r14
	movq	0(%r13), %r13
	movq	(%r12), %r12
	movq	(%rbx), %rbx
	movq	(%rax), %rax
	movq	(%rsi), %rsi
	movq	(%rcx), %rcx
	movq	(%rdi), %rdi
	movq	(%rdx), %rdx
	movq	(%r9), %r8
	movq	(%r11), %r9
	movq	(%r10), %r11
	movq	(%r15), %r15
	movq	(%r14), %r14
	movq	0(%r13), %r13
	movq	(%r12), %r12
	movq	(%rbx), %rbx
	movq	(%rax), %rax
	movq	(%rsi), %rsi
	movq	(%rcx), %rcx
	movq	(%rdi), %rdi
	movq	(%rdx), %rdx
	movq	(%r8), %r10
	movq	(%r9), %r8
	movq	(%r11), %r9
	movq	(%r15), %r15
	movq	(%r14), %r14
	movq	0(%r13), %r13
	movq	(%r12), %r12
	movq	(%rbx), %rbx
	movq	(%rax), %rax
	movq	(%rsi), %rsi
	movq	(%rcx), %rcx
	movq	(%rdi), %rdi
	movq	(%rdx), %rdx
	movq	(%r10), %r11
	movq	(%r8), %r10
	movq	(%r9), %r8
	movq	(%r15), %r15
	movq	(%r14), %r14
	movq	0(%r13), %r13
	movq	(%r12), %r12
	movq	(%rbx), %rbx
	movq	(%rax), %rax
	movq	(%rsi), %rsi
	movq	(%rcx), %rcx
	movq	(%rdi), %rdi
	movq	(%rdx), %rdx
	movq	(%r11), %r9
	movq	(%r10), %r11
	movq	(%r8), %r10
	movq	(%r15), %r15
	movq	(%r14), %r14
	movq	0(%r13), %r13
	movq	(%r12), %r12
	movq	(%rbx), %rbx
	movq	(%rax), %rax
	movq	(%rsi), %rsi
	movq	(%rcx), %rcx
	movq	(%rdi), %rdi
	movq	(%rdx), %rdx
	movq	(%r9), %r8
	movq	(%r11), %r9
	movq	(%r10), %r11
	movq	(%r15), %r15
	movq	(%r14), %r14
	movq	0(%r13), %r13
	movq	(%r12), %r12
	movq	(%rbx), %rbx
	movq	(%rax), %rax
	movq	(%rsi), %rsi
	movq	(%rcx), %rcx
	movq	(%rdi), %rdi
	movq	(%rdx), %rdx
	movq	(%r8), %r10
	movq	(%r9), %r8
	movq	(%r11), %r9
	movq	(%r15), %r15
	movq	(%r14), %r14
	movq	0(%r13), %r13
	movq	(%r12), %r12
	movq	(%rbx), %rbx
	movq	(%rax), %rax
	movq	(%rsi), %rsi
	movq	(%rcx), %rcx
	movq	(%rdi), %rdi
	movq	(%rdx), %rdx
	movq	(%r10), %r11
	movq	(%r8), %r10
	movq	(%r9), %r8
	movq	(%r15), %r15
	movq	(%r14), %r14
	movq	0(%r13), %r13
	movq	(%r12), %r12
	movq	(%rbx), %rbx
	movq	(%rax), %rax
	movq	(%rsi), %rsi
	movq	(%rcx), %rcx
	movq	(%rdi), %rdi
	movq	(%rdx), %rdx
	movq	(%r11), %r9
	movq	(%r10), %r11
	movq	(%r8), %r10
	movq	(%r15), %r15
	movq	(%r14), %r14
	movq	0(%r13), %r13
	movq	(%r12), %r12
	movq	(%rbx), %rbx
	movq	(%rax), %rax
	movq	(%rsi), %rsi
	movq	(%rcx), %rcx
	movq	(%rdi), %rdi
	movq	(%rdx), %rdx
	movq	(%r9), %r8
	movq	(%r11), %r9
	movq	(%r10), %r11
	movq	(%r15), %r15
	movq	(%r14), %r14
	movq	0(%r13), %r13
	movq	(%r12), %r12
	movq	(%rbx), %rbx
	movq	(%rax), %rax
	movq	(%rsi), %rsi
	movq	(%rcx), %rcx
	movq	(%rdi), %rdi
	movq	(%rdx), %rdx
	movq	(%r8), %r10
	movq	(%r9), %r8
	movq	(%r11), %r9
	movq	(%r15), %r15
	movq	(%r14), %r14
	movq	0(%r13), %r13
	movq	(%r12), %r12
	movq	(%rbx), %rbx
	movq	(%rax), %rax
	movq	(%rsi), %rsi
	movq	(%rcx), %rcx
	movq	(%rdi), %rdi
	movq	(%rdx), %rdx
	movq	(%r10), %r11
	movq	(%r8), %r10
	movq	(%r9), %r8
	movq	(%r15), %r15
	movq	(%r14), %r14
	movq	0(%r13), %r13
	movq	(%r12), %r12
	movq	(%rbx), %rbx
	movq	(%rax), %rax
	movq	(%rsi), %rsi
	movq	(%rcx), %rcx
	movq	(%rdi), %rdi
	movq	(%rdx), %rdx
	movq	(%r11), %r9
	movq	(%r10), %r11
	movq	(%r8), %r10
	movq	(%r15), %r15
	movq	(%r14), %r14
	movq	0(%r13), %r13
	movq	(%r12), %r12
	movq	(%rbx), %rbx
	movq	(%rax), %rax
	movq	(%rsi), %rsi
	movq	(%rcx), %rcx
	movq	(%rdi), %rdi
	movq	(%rdx), %rdx
	movq	(%r9), %r8
	movq	(%r11), %r9
	movq	(%r10), %r11
	movq	(%r15), %r15
	movq	(%r14), %r14
	movq	0(%r13), %r13
	movq	(%r12), %r12
	movq	(%rbx), %rbx
	movq	(%rax), %rax
	movq	(%rsi), %rsi
	movq	(%rcx), %rcx
	movq	(%rdi), %rdi
	movq	(%rdx), %rdx
	movq	(%r8), %r10
	movq	(%r9), %r8
	movq	(%r11), %r9
	movq	(%r15), %r15
	movq	(%r14), %r14
	movq	0(%r13), %r13
	movq	(%r12), %r12
	movq	(%rbx), %rbx
	movq	(%rax), %rax
	movq	(%rsi), %rsi
	movq	(%rcx), %rcx
	movq	(%rdi), %rdi
	movq	(%rdx), %rdx
	movq	(%r10), %r11
	movq	(%r8), %r10
	movq	(%r9), %r8
	movq	(%r15), %r15
	movq	(%r14), %r14
	movq	0(%r13), %r13
	movq	(%r12), %r12
	movq	(%rbx), %rbx
	movq	(%rax), %rax
	movq	(%rsi), %rsi
	movq	(%rcx), %rcx
	movq	(%rdi), %rdi
	movq	(%rdx), %rdx
	movq	(%r11), %r9
	movq	(%r10), %r11
	movq	(%r8), %r10
	movq	(%r15), %r15
	movq	(%r14), %r14
	movq	0(%r13), %r13
	movq	(%r12), %r12
	movq	(%rbx), %rbx
	movq	(%rax), %rax
	movq	(%rsi), %rsi
	movq	(%rcx), %rcx
	movq	(%rdi), %rdi
	movq	(%rdx), %rdx
	movq	(%r9), %r8
	movq	(%r11), %r9
	movq	(%r10), %r11
	movq	(%r15), %r15
	movq	(%r14), %r14
	movq	0(%r13), %r13
	movq	(%r12), %r12
	movq	(%rbx), %rbx
	movq	(%rax), %rax
	movq	(%rsi), %rsi
	movq	(%rcx), %rcx
	movq	(%rdi), %rdi
	movq	(%rdx), %rdx
	movq	(%r8), %r10
	movq	(%r9), %r8
	movq	(%r11), %r9
	movq	(%r15), %r15
	movq	(%r14), %r14
	movq	0(%r13), %r13
	movq	(%r12), %r12
	movq	(%rbx), %rbx
	movq	(%rax), %rax
	movq	(%rsi), %rsi
	movq	(%rcx), %rcx
	movq	(%rdi), %rdi
	movq	(%rdx), %rdx
	movq	(%r10), %r11
	movq	(%r8), %r10
	movq	(%r9), %r8
	movq	(%r15), %r15
	movq	(%r14), %r14
	movq	0(%r13), %r13
	movq	(%r12), %r12
	movq	(%rbx), %rbx
	movq	(%rax), %rax
	movq	(%rsi), %rsi
	movq	(%rcx), %rcx
	movq	(%rdi), %rdi
	movq	(%rdx), %rdx
	movq	(%r11), %r9
	movq	(%r10), %r11
	movq	(%r8), %r10
	movq	(%r15), %r15
	movq	(%r14), %r14
	movq	0(%r13), %r13
	movq	(%r12), %r12
	movq	(%rbx), %rbx
	movq	(%rax), %rax
	movq	(%rsi), %rsi
	movq	(%rcx), %rcx
	movq	(%rdi), %rdi
	movq	(%rdx), %rdx
	movq	(%r9), %r8
	movq	(%r11), %r9
	movq	(%r10), %r11
	movq	(%r15), %r15
	movq	(%r14), %r14
	movq	0(%r13), %r13
	movq	(%r12), %r12
	movq	(%rbx), %rbx
	movq	(%rax), %rax
	movq	(%rsi), %rsi
	movq	(%rcx), %rcx
	movq	(%rdi), %rdi
	movq	(%rdx), %rdx
	movq	(%r8), %r10
	movq	(%r9), %r8
	movq	(%r11), %r9
	movq	(%r15), %r15
	movq	(%r14), %r14
	movq	0(%r13), %r13
	movq	(%r12), %r12
	movq	(%rbx), %rbx
	movq	(%rax), %rax
	movq	(%rsi), %rsi
	movq	(%rcx), %rcx
	movq	(%rdi), %rdi
	movq	(%rdx), %rdx
	movq	(%r10), %r11
	movq	(%r8), %r10
	movq	(%r9), %r8
	movq	(%r15), %r15
	movq	(%r14), %r14
	movq	0(%r13), %r13
	movq	(%r12), %r12
	movq	(%rbx), %rbx
	movq	(%rax), %rax
	movq	(%rsi), %rsi
	movq	(%rcx), %rcx
	movq	(%rdi), %rdi
	movq	(%rdx), %rdx
	movq	(%r11), %r9
	movq	(%r10), %r11
	movq	(%r8), %r10
	movq	(%r15), %r15
	movq	(%r14), %r14
	movq	0(%r13), %r13
	movq	(%r12), %r12
	movq	(%rbx), %rbx
	movq	(%rax), %rax
	movq	(%rsi), %rsi
	movq	(%rcx), %rcx
	movq	(%rdi), %rdi
	movq	(%rdx), %rdx
	movq	(%r9), %r8
	movq	(%r11), %r9
	movq	(%r10), %r11
	movq	(%r15), %r15
	movq	(%r14), %r14
	movq	0(%r13), %r13
	movq	(%r12), %r12
	movq	(%rbx), %rbx
	movq	(%rax), %rax
	movq	(%rsi), %rsi
	movq	(%rcx), %rcx
	movq	(%rdi), %rdi
	movq	(%rdx), %rdx
	movq	(%r8), %r10
	movq	(%r9), %r8
	movq	(%r11), %r9
	movq	(%r15), %r15
	movq	(%r14), %r14
	movq	0(%r13), %r13
	movq	(%r12), %r12
	movq	(%rbx), %rbx
	movq	(%rax), %rax
	movq	(%rsi), %rsi
	movq	(%rcx), %rcx
	movq	(%rdi), %rdi
	movq	(%rdx), %rdx
	movq	(%r10), %r11
	movq	(%r8), %r10
	movq	(%r9), %r8
	movq	(%r15), %r15
	movq	(%r14), %r14
	movq	0(%r13), %r13
	movq	(%r12), %r12
	movq	(%rbx), %rbx
	movq	(%rax), %rax
	movq	(%rsi), %rsi
	movq	(%rcx), %rcx
	movq	(%rdi), %rdi
	movq	(%rdx), %rdx
	movq	(%r11), %r9
	movq	(%r10), %r11
	movq	(%r8), %r10
	movq	(%r15), %r15
	movq	(%r14), %r14
	movq	0(%r13), %r13
	movq	(%r12), %r12
	movq	(%rbx), %rbx
	movq	(%rax), %rax
	movq	(%rsi), %rsi
	movq	(%rcx), %rcx
	movq	(%rdi), %rdi
	movq	(%rdx), %rdx
	movq	(%r9), %r8
	movq	(%r11), %r9
	movq	(%r10), %r11
	movq	(%r15), %r15
	movq	(%r14), %r14
	movq	0(%r13), %r13
	movq	(%r12), %r12
	movq	(%rbx), %rbx
	movq	(%rax), %rax
	movq	(%rsi), %rsi
	movq	(%rcx), %rcx
	movq	(%rdi), %rdi
	movq	(%rdx), %rdx
	movq	(%r8), %r10
	movq	(%r9), %r8
	movq	(%r11), %r9
	movq	(%r15), %r15
	movq	(%r14), %r14
	movq	0(%r13), %r13
	movq	(%r12), %r12
	movq	(%rbx), %rbx
	movq	(%rax), %rax
	movq	(%rsi), %rsi
	movq	(%rcx), %rcx
	movq	(%rdi), %rdi
	movq	(%rdx), %rdx
	movq	(%r10), %r11
	movq	(%r8), %r10
	movq	(%r9), %r8
	movq	(%r15), %r15
	movq	(%r14), %r14
	movq	0(%r13), %r13
	movq	(%r12), %r12
	movq	(%rbx), %rbx
	movq	(%rax), %rax
	movq	(%rsi), %rsi
	movq	(%rcx), %rcx
	movq	(%rdi), %rdi
	movq	(%rdx), %rdx
	movq	(%r11), %r9
	movq	(%r10), %r11
	movq	(%r8), %r10
	movq	(%r15), %r15
	movq	(%r14), %r14
	movq	0(%r13), %r13
	movq	(%r12), %r12
	movq	(%rbx), %rbx
	movq	(%rax), %rax
	movq	(%rsi), %rsi
	movq	(%rcx), %rcx
	movq	(%rdi), %rdi
	movq	(%rdx), %rdx
	movq	(%r9), %r8
	movq	(%r11), %r9
	movq	(%r10), %r11
	movq	(%r15), %r15
	movq	(%r14), %r14
	movq	0(%r13), %r13
	movq	(%r12), %r12
	movq	(%rbx), %rbx
	movq	(%rax), %rax
	movq	(%rsi), %rsi
	movq	(%rcx), %rcx
	movq	(%rdi), %rdi
	movq	(%rdx), %rdx
	movq	(%r8), %r10
	movq	(%r9), %r8
	movq	(%r11), %r9
	movq	(%r15), %r15
	movq	(%r14), %r14
	movq	0(%r13), %r13
	movq	(%r12), %r12
	movq	(%rbx), %rbx
	movq	(%rax), %rax
	movq	(%rsi), %rsi
	movq	(%rcx), %rcx
	movq	(%rdi), %rdi
	movq	(%rdx), %rdx
	movq	(%r10), %r11
	movq	(%r8), %r10
	movq	(%r9), %r8
	movq	(%r15), %r15
	movq	(%r14), %r14
	movq	0(%r13), %r13
	movq	(%r12), %r12
	movq	(%rbx), %rbx
	movq	(%rax), %rax
	movq	(%rsi), %rsi
	movq	(%rcx), %rcx
	movq	(%rdi), %rdi
	movq	(%rdx), %rdx
	movq	(%r11), %r9
	movq	(%r10), %r11
	movq	(%r8), %r10
	movq	(%r15), %r15
	movq	(%r14), %r14
	movq	0(%r13), %r13
	movq	(%r12), %r12
	movq	(%rbx), %rbx
	movq	(%rax), %rax
	movq	(%rsi), %rsi
	movq	(%rcx), %rcx
	movq	(%rdi), %rdi
	movq	(%rdx), %rdx
	movq	(%r9), %r8
	movq	(%r11), %r9
	movq	(%r10), %r11
	movq	(%r15), %r15
	movq	(%r14), %r14
	movq	0(%r13), %r13
	movq	(%r12), %r12
	movq	(%rbx), %rbx
	movq	(%rax), %rax
	movq	(%rsi), %rsi
	movq	(%rcx), %rcx
	movq	(%rdi), %rdi
	movq	(%rdx), %rdx
	movq	(%r8), %r10
	movq	(%r9), %r8
	movq	(%r11), %r9
	movq	(%r15), %r15
	movq	(%r14), %r14
	movq	0(%r13), %r13
	movq	(%r12), %r12
	movq	(%rbx), %rbx
	movq	(%rax), %rax
	movq	(%rsi), %rsi
	movq	(%rcx), %rcx
	movq	(%rdi), %rdi
	movq	(%rdx), %rdx
	movq	(%r10), %r11
	movq	(%r8), %r10
	movq	(%r9), %r8
	movq	(%r15), %r15
	movq	(%r14), %r14
	movq	0(%r13), %r13
	movq	(%r12), %r12
	movq	(%rbx), %rbx
	movq	(%rax), %rax
	movq	(%rsi), %rsi
	movq	(%rcx), %rcx
	movq	(%rdi), %rdi
	movq	(%rdx), %rdx
	movq	(%r11), %r9
	movq	(%r10), %r11
	movq	(%r8), %r10
	movq	(%r15), %r15
	movq	(%r14), %r14
	movq	0(%r13), %r13
	movq	(%r12), %r12
	movq	(%rbx), %rbx
	movq	(%rax), %rax
	movq	(%rsi), %rsi
	movq	(%rcx), %rcx
	movq	(%rdi), %rdi
	movq	(%rdx), %rdx
	movq	(%r9), %r8
	movq	(%r11), %r9
	movq	(%r10), %r11
	movq	(%r15), %r15
	movq	(%r14), %r14
	movq	0(%r13), %r13
	movq	(%r12), %r12
	movq	(%rbx), %rbx
	movq	(%rax), %rax
	movq	(%rsi), %rsi
	movq	(%rcx), %rcx
	movq	(%rdi), %rdi
	movq	(%rdx), %rdx
	movq	(%r8), %r10
	movq	(%r9), %r8
	movq	(%r11), %r9
	movq	(%r15), %r15
	movq	(%r14), %r14
	movq	0(%r13), %r13
	movq	(%r12), %r12
	movq	(%rbx), %rbx
	movq	(%rax), %rax
	movq	(%rsi), %rsi
	movq	(%rcx), %rcx
	movq	(%rdi), %rdi
	movq	(%rdx), %rdx
	movq	(%r10), %r11
	movq	(%r8), %r10
	movq	(%r9), %r8
	movq	(%r15), %r15
	movq	(%r14), %r14
	movq	0(%r13), %r13
	movq	(%r12), %r12
	movq	(%rbx), %rbx
	movq	(%rax), %rax
	movq	(%rsi), %rsi
	movq	(%rcx), %rcx
	movq	(%rdi), %rdi
	movq	(%rdx), %rdx
	movq	(%r11), %r9
	movq	(%r10), %r11
	movq	(%r8), %r10
	movq	(%r15), %r15
	movq	(%r14), %r14
	movq	0(%r13), %r13
	movq	(%r12), %r12
	movq	(%rbx), %rbx
	movq	(%rax), %rax
	movq	(%rsi), %rsi
	movq	(%rcx), %rcx
	movq	(%rdi), %rdi
	movq	(%rdx), %rdx
	movq	(%r9), %r8
	movq	(%r11), %r9
	movq	(%r10), %r11
	movq	(%r15), %r15
	movq	(%r14), %r14
	movq	0(%r13), %r13
	movq	(%r12), %r12
	movq	(%rbx), %rbx
	movq	(%rax), %rax
	movq	(%rsi), %rsi
	movq	(%rcx), %rcx
	movq	(%rdi), %rdi
	movq	(%rdx), %rdx
	movq	(%r8), %r10
	movq	(%r9), %r8
	movq	(%r11), %r9
	movq	(%r15), %r15
	movq	(%r14), %r14
	movq	0(%r13), %r13
	movq	(%r12), %r12
	movq	(%rbx), %rbx
	movq	(%rax), %rax
	movq	(%rsi), %rsi
	movq	(%rcx), %rcx
	movq	(%rdi), %rdi
	movq	(%rdx), %rdx
	movq	(%r10), %r11
	movq	(%r8), %r10
	movq	(%r9), %r8
	movq	(%r15), %r15
	movq	(%r14), %r14
	movq	0(%r13), %r13
	movq	(%r12), %r12
	movq	(%rbx), %rbx
	movq	(%rax), %rax
	movq	(%rsi), %rsi
	movq	(%rcx), %rcx
	movq	(%rdi), %rdi
	movq	(%rdx), %rdx
	movq	(%r11), %r9
	movq	(%r10), %r11
	movq	(%r8), %r10
	movq	(%r15), %r15
	movq	(%r14), %r14
	movq	0(%r13), %r13
	movq	(%r12), %r12
	movq	(%rbx), %rbx
	movq	(%rax), %rax
	movq	(%rsi), %rsi
	movq	(%rcx), %rcx
	movq	(%rdi), %rdi
	movq	(%rdx), %rdx
	movq	(%r9), %r8
	movq	(%r11), %r9
	movq	(%r10), %r11
	movq	(%r15), %r15
	movq	(%r14), %r14
	movq	0(%r13), %r13
	movq	(%r12), %r12
	movq	(%rbx), %rbx
	movq	(%rax), %rax
	movq	(%rsi), %rsi
	movq	(%rcx), %rcx
	movq	(%rdi), %rdi
	movq	(%rdx), %rdx
	movq	(%r8), %r10
	movq	(%r9), %r8
	movq	(%r11), %r9
	movq	(%r15), %r15
	movq	(%r14), %r14
	movq	0(%r13), %r13
	movq	(%r12), %r12
	movq	(%rbx), %rbx
	movq	(%rax), %rax
	movq	(%rsi), %rsi
	movq	(%rcx), %rcx
	movq	(%rdi), %rdi
	movq	(%rdx), %rdx
	movq	(%r10), %r11
	movq	(%r8), %r10
	movq	(%r9), %r8
	movq	(%r15), %r15
	movq	(%r14), %r14
	movq	0(%r13), %r13
	movq	(%r12), %r12
	movq	(%rbx), %rbx
	movq	(%rax), %rax
	movq	(%rsi), %rsi
	movq	(%rcx), %rcx
	movq	(%rdi), %rdi
	movq	(%rdx), %rdx
	movq	(%r11), %r9
	movq	(%r10), %r11
	movq	(%r8), %r10
	movq	(%r15), %r15
	movq	(%r14), %r14
	movq	0(%r13), %r13
	movq	(%r12), %r12
	movq	(%rbx), %rbx
	movq	(%rax), %rax
	movq	(%rsi), %rsi
	movq	(%rcx), %rcx
	movq	(%rdi), %rdi
	movq	(%rdx), %rdx
	movq	(%r9), %r8
	movq	(%r11), %r9
	movq	(%r10), %r11
	movq	(%r15), %r15
	movq	(%r14), %r14
	movq	0(%r13), %r13
	movq	(%r12), %r12
	movq	(%rbx), %rbx
	movq	(%rax), %rax
	movq	(%rsi), %rsi
	movq	(%rcx), %rcx
	movq	(%rdi), %rdi
	movq	(%rdx), %rdx
	movq	(%r8), %r10
	movq	(%r9), %r8
	movq	(%r11), %r9
	movq	(%r15), %r15
	movq	(%r14), %r14
	movq	0(%r13), %r13
	movq	(%r12), %r12
	movq	(%rbx), %rbx
	movq	(%rax), %rax
	movq	(%rsi), %rsi
	movq	(%rcx), %rcx
	movq	(%rdi), %rdi
	movq	(%rdx), %rdx
	movq	(%r10), %r11
	movq	(%r8), %r10
	movq	(%r9), %r8
	movq	(%r15), %r15
	movq	(%r14), %r14
	movq	0(%r13), %r13
	movq	(%r12), %r12
	movq	(%rbx), %rbx
	movq	(%rax), %rax
	movq	(%rsi), %rsi
	movq	(%rcx), %rcx
	movq	(%rdi), %rdi
	movq	(%rdx), %rdx
	movq	(%r11), %r9
	movq	(%r10), %r11
	movq	(%r8), %r10
	movq	(%r15), %r15
	movq	(%r14), %r14
	movq	0(%r13), %r13
	movq	(%r12), %r12
	movq	(%rbx), %rbx
	movq	(%rax), %rax
	movq	(%rsi), %rsi
	movq	(%rcx), %rcx
	movq	(%rdi), %rdi
	movq	(%rdx), %rdx
	movq	(%r9), %r8
	movq	(%r11), %r9
	movq	(%r10), %r11
	movq	(%r15), %r15
	movq	(%r14), %r14
	movq	0(%r13), %r13
	movq	(%r12), %r12
	movq	(%rbx), %rbx
	movq	(%rax), %rax
	movq	(%rsi), %rsi
	movq	(%rcx), %rcx
	movq	(%rdi), %rdi
	movq	(%rdx), %rdx
	movq	(%r8), %r10
	movq	(%r9), %r8
	movq	(%r11), %r9
	movq	(%r15), %r15
	movq	(%r14), %r14
	movq	0(%r13), %r13
	movq	(%r12), %r12
	movq	(%rbx), %rbx
	movq	(%rax), %rax
	movq	(%rsi), %rsi
	movq	(%rcx), %rcx
	movq	(%rdi), %rdi
	movq	(%rdx), %rdx
	movq	(%r10), %r11
	movq	(%r8), %r10
	movq	(%r9), %r8
	movq	(%r15), %r15
	movq	(%r14), %r14
	movq	0(%r13), %r13
	movq	(%r12), %r12
	movq	(%rbx), %rbx
	movq	(%rax), %rax
	movq	(%rsi), %rsi
	movq	(%rcx), %rcx
	movq	(%rdi), %rdi
	movq	(%rdx), %rdx
	movq	(%r11), %r9
	movq	(%r10), %r11
	movq	(%r8), %r10
	movq	(%r15), %r15
	movq	(%r14), %r14
	movq	0(%r13), %r13
	movq	(%r12), %r12
	movq	(%rbx), %rbx
	movq	(%rax), %rax
	movq	(%rsi), %rsi
	movq	(%rcx), %rcx
	movq	(%rdi), %rdi
	movq	(%rdx), %rdx
	movq	(%r9), %r8
	movq	(%r11), %r9
	movq	(%r10), %r11
	movq	(%r15), %r15
	movq	(%r14), %r14
	movq	0(%r13), %r13
	movq	(%r12), %r12
	movq	(%rbx), %rbx
	movq	(%rax), %rax
	movq	(%rsi), %rsi
	movq	(%rcx), %rcx
	movq	(%rdi), %rdi
	movq	(%rdx), %rdx
	movq	(%r8), %r10
	movq	(%r9), %r8
	movq	(%r11), %r9
	movq	(%r15), %r15
	movq	(%r14), %r14
	movq	0(%r13), %r13
	movq	(%r12), %r12
	movq	(%rbx), %rbx
	movq	(%rax), %rax
	movq	(%rsi), %rsi
	movq	(%rcx), %rcx
	movq	(%rdi), %rdi
	movq	(%rdx), %rdx
	movq	(%r10), %r11
	movq	(%r8), %r10
	movq	(%r9), %r8
	movq	(%r15), %r15
	movq	(%r14), %r14
	movq	0(%r13), %r13
	movq	(%r12), %r12
	movq	(%rbx), %rbx
	movq	(%rax), %rax
	movq	(%rsi), %rsi
	movq	(%rcx), %rcx
	movq	(%rdi), %rdi
	movq	(%rdx), %rdx
	movq	(%r11), %r9
	movq	(%r10), %r11
	movq	(%r8), %r10
	movq	(%r15), %r15
	movq	(%r14), %r14
	movq	0(%r13), %r13
	movq	(%r12), %r12
	movq	(%rbx), %rbx
	movq	(%rax), %rax
	movq	(%rsi), %rsi
	movq	(%rcx), %rcx
	movq	(%rdi), %rdi
	movq	(%rdx), %rdx
	movq	(%r9), %r8
	movq	(%r11), %r9
	movq	(%r10), %r11
	movq	(%r15), %r15
	movq	(%r14), %r14
	movq	0(%r13), %r13
	movq	(%r12), %r12
	movq	(%rbx), %rbx
	movq	(%rax), %rax
	movq	(%rsi), %rsi
	movq	(%rcx), %rcx
	movq	(%rdi), %rdi
	movq	(%rdx), %rdx
	movq	(%r8), %r10
	movq	(%r9), %r8
	movq	(%r11), %r9
	movq	(%r15), %r15
	movq	(%r14), %r14
	movq	0(%r13), %r13
	movq	(%r12), %r12
	movq	(%rbx), %rbx
	movq	(%rax), %rax
	movq	(%rsi), %rsi
	movq	(%rcx), %rcx
	movq	(%rdi), %rdi
	movq	(%rdx), %rdx
	movq	(%r10), %r11
	movq	(%r8), %r10
	movq	(%r9), %r8
	movq	(%r15), %r15
	movq	(%r14), %r14
	movq	0(%r13), %r13
	movq	(%r12), %r12
	movq	(%rbx), %rbx
	movq	(%rax), %rax
	movq	(%rsi), %rsi
	movq	(%rcx), %rcx
	movq	(%rdi), %rdi
	movq	(%rdx), %rdx
	movq	(%r11), %r9
	movq	(%r10), %r11
	movq	(%r8), %r10
	movq	(%r15), %r15
	movq	(%r14), %r14
	movq	0(%r13), %r13
	movq	(%r12), %r12
	movq	(%rbx), %rbx
	movq	(%rax), %rax
	movq	(%rsi), %rsi
	movq	(%rcx), %rcx
	movq	(%rdi), %rdi
	movq	(%rdx), %rdx
	movq	(%r9), %r8
	movq	(%r11), %r9
	movq	(%r10), %r11
	movq	(%r15), %r15
	movq	(%r14), %r14
	movq	0(%r13), %r13
	movq	(%r12), %r12
	movq	(%rbx), %rbx
	movq	(%rax), %rax
	movq	(%rsi), %rsi
	movq	(%rcx), %rcx
	movq	(%rdi), %rdi
	movq	(%rdx), %rdx
	movq	(%r8), %r10
	movq	(%r9), %r8
	movq	(%r11), %r9
	movq	(%r15), %r15
	movq	(%r14), %r14
	movq	0(%r13), %r13
	movq	(%r12), %r12
	movq	(%rbx), %rbx
	movq	(%rax), %rax
	movq	(%rsi), %rsi
	movq	(%rcx), %rcx
	movq	(%rdi), %rdi
	movq	(%rdx), %rdx
	movq	(%r10), %r11
	movq	(%r8), %r10
	movq	(%r9), %r8
	movq	(%r15), %r15
	movq	(%r14), %r14
	movq	0(%r13), %r13
	movq	(%r12), %r12
	movq	(%rbx), %rbx
	movq	(%rax), %rax
	movq	(%rsi), %rsi
	movq	(%rcx), %rcx
	movq	(%rdi), %rdi
	movq	(%rdx), %rdx
	movq	(%r11), %r9
	movq	(%r10), %r11
	movq	(%r8), %r10
	movq	(%r15), %r15
	movq	(%r14), %r14
	movq	0(%r13), %r13
	movq	(%r12), %r12
	movq	(%rbx), %rbx
	movq	(%rax), %rax
	movq	(%rsi), %rsi
	movq	(%rcx), %rcx
	movq	(%rdi), %rdi
	movq	(%rdx), %rdx
	movq	(%r9), %r8
	movq	(%r11), %r9
	movq	(%r10), %r11
	movq	(%r15), %r15
	movq	(%r14), %r14
	movq	0(%r13), %r13
	movq	(%r12), %r12
	movq	(%rbx), %rbx
	movq	(%rax), %rax
	movq	(%rsi), %rsi
	movq	(%rcx), %rcx
	movq	(%rdi), %rdi
	movq	(%rdx), %rdx
	movq	(%r8), %r10
	movq	(%r9), %r8
	movq	(%r11), %r9
	movq	(%r15), %r15
	movq	(%r14), %r14
	movq	0(%r13), %r13
	movq	(%r12), %r12
	movq	(%rbx), %rbx
	movq	(%rax), %rax
	movq	(%rsi), %rsi
	movq	(%rcx), %rcx
	movq	(%rdi), %rdi
	movq	(%rdx), %rdx
	movq	(%r10), %r11
	movq	(%r8), %r10
	movq	(%r9), %r8
	movq	(%r15), %r15
	movq	(%r14), %r14
	movq	0(%r13), %r13
	movq	(%r12), %r12
	movq	(%rbx), %rbx
	movq	(%rax), %rax
	movq	(%rsi), %rsi
	movq	(%rcx), %rcx
	movq	(%rdi), %rdi
	movq	(%rdx), %rdx
	movq	(%r11), %r9
	movq	(%r10), %r11
	movq	(%r8), %r10
	movq	(%r15), %r15
	movq	(%r14), %r14
	movq	0(%r13), %r13
	movq	(%r12), %r12
	movq	(%rbx), %rbx
	movq	(%rax), %rax
	movq	(%rsi), %rsi
	movq	(%rcx), %rcx
	movq	(%rdi), %rdi
	movq	(%rdx), %rdx
	movq	(%r9), %r8
	movq	(%r11), %r9
	movq	(%r10), %r11
	movq	(%r15), %r15
	movq	(%r14), %r14
	movq	0(%r13), %r13
	movq	(%r12), %r12
	movq	(%rbx), %rbx
	movq	(%rax), %rax
	movq	(%rsi), %rsi
	movq	(%rcx), %rcx
	movq	(%rdi), %rdi
	movq	(%rdx), %rdx
	movq	(%r8), %r10
	movq	(%r9), %r8
	movq	(%r11), %r9
	movq	(%r15), %r15
	movq	(%r14), %r14
	movq	0(%r13), %r13
	movq	(%r12), %r12
	movq	(%rbx), %rbx
	movq	(%rax), %rax
	movq	(%rsi), %rsi
	movq	(%rcx), %rcx
	movq	(%rdi), %rdi
	movq	(%rdx), %rdx
	movq	(%r10), %r11
	movq	(%r8), %r10
	movq	(%r9), %r8
	movq	(%r15), %r15
	movq	(%r14), %r14
	movq	0(%r13), %r13
	movq	(%r12), %r12
	movq	(%rbx), %rbx
	movq	(%rax), %rax
	movq	(%rsi), %rsi
	movq	(%rcx), %rcx
	movq	(%rdi), %rdi
	movq	(%rdx), %rdx
	movq	(%r11), %r9
	movq	(%r10), %r11
	movq	(%r8), %r10
	movq	(%r15), %r15
	movq	(%r14), %r14
	movq	0(%r13), %r13
	movq	(%r12), %r12
	movq	(%rbx), %rbx
	movq	(%rax), %rax
	movq	(%rsi), %rsi
	movq	(%rcx), %rcx
	movq	(%rdi), %rdi
	movq	(%rdx), %rdx
	movq	(%r9), %r8
	movq	(%r11), %r9
	movq	(%r10), %r11
	movq	(%r15), %r15
	movq	(%r14), %r14
	movq	0(%r13), %r13
	movq	(%r12), %r12
	movq	(%rbx), %rbx
	movq	(%rax), %rax
	movq	(%rsi), %rsi
	movq	(%rcx), %rcx
	movq	(%rdi), %rdi
	movq	(%rdx), %rdx
	movq	(%r8), %r10
	movq	(%r9), %r8
	movq	(%r11), %r9
	movq	(%r15), %r15
	movq	(%r14), %r14
	movq	0(%r13), %r13
	movq	(%r12), %r12
	movq	(%rbx), %rbx
	movq	(%rax), %rax
	movq	(%rsi), %rsi
	movq	(%rcx), %rcx
	movq	(%rdi), %rdi
	movq	(%rdx), %rdx
	movq	(%r10), %r11
	movq	(%r8), %r10
	movq	(%r9), %r8
	movq	(%r15), %r15
	movq	(%r14), %r14
	movq	0(%r13), %r13
	movq	(%r12), %r12
	movq	(%rbx), %rbx
	movq	(%rax), %rax
	movq	(%rsi), %rsi
	movq	(%rcx), %rcx
	movq	(%rdi), %rdi
	movq	(%rdx), %rdx
	movq	(%r11), %r9
	movq	(%r10), %r11
	movq	(%r8), %r10
	movq	(%r15), %r15
	movq	(%r14), %r14
	movq	0(%r13), %r13
	movq	(%r12), %r12
	movq	(%rbx), %rbx
	movq	(%rax), %rax
	movq	(%rsi), %rsi
	movq	(%rcx), %rcx
	movq	(%rdi), %rdi
	movq	(%rdx), %rdx
	movq	(%r9), %r8
	movq	(%r11), %r9
	movq	(%r10), %r11
	movq	(%r15), %r15
	movq	(%r14), %r14
	movq	0(%r13), %r13
	movq	(%r12), %r12
	movq	(%rbx), %rbx
	movq	(%rax), %rax
	movq	(%rsi), %rsi
	movq	(%rcx), %rcx
	movq	(%rdi), %rdi
	movq	(%rdx), %rdx
	movq	(%r8), %r10
	movq	(%r9), %r8
	movq	(%r11), %r9
	movq	(%r15), %r15
	movq	(%r14), %r14
	movq	0(%r13), %r13
	movq	(%r12), %r12
	movq	(%rbx), %rbx
	movq	(%rax), %rax
	movq	(%rsi), %rsi
	movq	(%rcx), %rcx
	movq	(%rdi), %rdi
	movq	(%rdx), %rdx
	movq	(%r10), %r11
	movq	(%r8), %r10
	movq	(%r9), %r8
	movq	(%r15), %r15
	movq	(%r14), %r14
	movq	0(%r13), %r13
	movq	(%r12), %r12
	movq	(%rbx), %rbx
	movq	(%rax), %rax
	movq	(%rsi), %rsi
	movq	(%rcx), %rcx
	movq	(%rdi), %rdi
	movq	(%rdx), %rdx
	movq	(%r11), %r9
	movq	(%r10), %r11
	movq	(%r8), %r10
	movq	(%r15), %r15
	movq	(%r14), %r14
	movq	0(%r13), %r13
	movq	(%r12), %r12
	movq	(%rbx), %rbx
	movq	(%rax), %rax
	movq	(%rsi), %rsi
	movq	(%rcx), %rcx
	movq	(%rdi), %rdi
	movq	(%rdx), %rdx
	movq	(%r9), %r8
	movq	(%r11), %r9
	movq	(%r10), %r11
	movq	(%r15), %r15
	movq	(%r14), %r14
	movq	0(%r13), %r13
	movq	(%r12), %r12
	movq	(%rbx), %rbx
	movq	(%rax), %rax
	movq	(%rsi), %rsi
	movq	(%rcx), %rcx
	movq	(%rdi), %rdi
	movq	(%rdx), %rdx
	movq	(%r8), %r10
	movq	(%r9), %r8
	movq	(%r11), %r9
	movq	(%r15), %r15
	movq	(%r14), %r14
	movq	0(%r13), %r13
	movq	(%r12), %r12
	movq	(%rbx), %rbx
	movq	(%rax), %rax
	movq	(%rsi), %rsi
	movq	(%rcx), %rcx
	movq	(%rdi), %rdi
	movq	(%rdx), %rdx
	movq	(%r10), %r11
	movq	(%r8), %r10
	movq	(%r9), %r8
	movq	(%r15), %r15
	movq	(%r14), %r14
	movq	0(%r13), %r13
	movq	(%r12), %r12
	movq	(%rbx), %rbx
	movq	(%rax), %rax
	movq	(%rsi), %rsi
	movq	(%rcx), %rcx
	movq	(%rdi), %rdi
	movq	(%rdx), %rdx
	movq	(%r11), %r9
	movq	(%r10), %r11
	movq	(%r8), %r10
	movq	(%r15), %r15
	movq	(%r14), %r14
	movq	0(%r13), %r13
	movq	(%r12), %r12
	movq	(%rbx), %rbx
	movq	(%rax), %rax
	movq	(%rsi), %rsi
	movq	(%rcx), %rcx
	movq	(%rdi), %rdi
	movq	(%rdx), %rdx
	movq	(%r9), %r8
	movq	(%r11), %r9
	movq	(%r10), %r11
	movq	(%r15), %r15
	movq	(%r14), %r14
	movq	0(%r13), %r13
	movq	(%r12), %r12
	movq	(%rbx), %rbx
	movq	(%rax), %rax
	movq	(%rsi), %rsi
	movq	(%rcx), %rcx
	movq	(%rdi), %rdi
	movq	(%rdx), %rdx
	movq	(%r8), %r10
	movq	(%r9), %r8
	movq	(%r11), %r9
	movq	(%r15), %r15
	movq	(%r14), %r14
	movq	0(%r13), %r13
	movq	(%r12), %r12
	movq	(%rbx), %rbx
	movq	(%rax), %rax
	movq	%rax, %r11
	movq	(%rsi), %rax
	movq	%rax, %rsi
	movq	(%rcx), %rax
	movq	%rax, -80(%rbp)
	movq	(%rdi), %rax
	movq	%rax, -88(%rbp)
	movq	(%rdx), %rax
	movq	%rax, -96(%rbp)
	movq	(%r10), %rax
	movq	%rax, %r10
	movq	(%r8), %rax
	movq	%rax, -104(%rbp)
	movq	(%r9), %rax
	movq	%rax, -112(%rbp)
	movq	(%r15), %r15
	movq	(%r14), %r14
	movq	0(%r13), %r13
	movq	(%r12), %r12
	movq	(%rbx), %rbx
.L311:
	movq	-64(%rbp), %rax
	leaq	-1(%rax), %rdx
	movq	%rdx, -64(%rbp)
	testq	%rax, %rax
	jne	.L312
	movq	%r11, %rax
	movq	%rax, sp0.62(%rip)
	movq	%rsi, %rax
	movq	%rax, sp1.61(%rip)
	movq	-80(%rbp), %rax
	movq	%rax, sp2.60(%rip)
	movq	-88(%rbp), %rax
	movq	%rax, sp3.59(%rip)
	movq	-96(%rbp), %rax
	movq	%rax, sp4.58(%rip)
	movq	%r10, %rax
	movq	%rax, sp5.57(%rip)
	movq	-104(%rbp), %rax
	movq	%rax, sp6.56(%rip)
	movq	-112(%rbp), %rax
	movq	%rax, sp7.55(%rip)
	movq	%r15, sp8.54(%rip)
	movq	%r14, sp9.53(%rip)
	movq	%r13, sp10.52(%rip)
	movq	%r12, sp11.51(%rip)
	movq	%rbx, sp12.50(%rip)
	movq	-48(%rbp), %rax
	movq	(%rax), %rax
	movq	%rax, addr_save.63(%rip)
	movl	$1, mem_benchmark_rerun(%rip)
	popq	%rbx
	popq	%r12
	popq	%r13
	popq	%r14
	popq	%r15
	popq	%rbp
	.cfi_def_cfa 7, 8
	ret
	.cfi_endproc
.LFE20:
	.size	mem_benchmark_12, .-mem_benchmark_12
	.globl	mem_benchmark_13
	.type	mem_benchmark_13, @function
mem_benchmark_13:
.LFB21:
	.cfi_startproc
	endbr64
	pushq	%rbp
	.cfi_def_cfa_offset 16
	.cfi_offset 6, -16
	movq	%rsp, %rbp
	.cfi_def_cfa_register 6
	pushq	%r15
	pushq	%r14
	pushq	%r13
	pushq	%r12
	pushq	%rbx
	.cfi_offset 15, -24
	.cfi_offset 14, -32
	.cfi_offset 13, -40
	.cfi_offset 12, -48
	.cfi_offset 3, -56
	movq	%rdi, -64(%rbp)
	movq	%rsi, -72(%rbp)
	movq	-72(%rbp), %rax
	movq	%rax, -48(%rbp)
	movl	mem_benchmark_rerun(%rip), %eax
	testl	%eax, %eax
	je	.L314
	movq	-48(%rbp), %rax
	movq	(%rax), %rdx
	movq	addr_save.49(%rip), %rax
	cmpq	%rax, %rdx
	je	.L315
.L314:
	movq	-48(%rbp), %rax
	movq	16(%rax), %rax
	jmp	.L316
.L315:
	movq	sp0.48(%rip), %rax
.L316:
	movq	%rax, -80(%rbp)
	movl	mem_benchmark_rerun(%rip), %eax
	testl	%eax, %eax
	je	.L317
	movq	-48(%rbp), %rax
	movq	(%rax), %rdx
	movq	addr_save.49(%rip), %rax
	cmpq	%rax, %rdx
	je	.L318
.L317:
	movq	-48(%rbp), %rax
	movq	24(%rax), %rax
	jmp	.L319
.L318:
	movq	sp1.47(%rip), %rax
.L319:
	movq	%rax, %rsi
	movl	mem_benchmark_rerun(%rip), %eax
	testl	%eax, %eax
	je	.L320
	movq	-48(%rbp), %rax
	movq	(%rax), %rdx
	movq	addr_save.49(%rip), %rax
	cmpq	%rax, %rdx
	je	.L321
.L320:
	movq	-48(%rbp), %rax
	movq	32(%rax), %rax
	jmp	.L322
.L321:
	movq	sp2.46(%rip), %rax
.L322:
	movq	%rax, -88(%rbp)
	movl	mem_benchmark_rerun(%rip), %eax
	testl	%eax, %eax
	je	.L323
	movq	-48(%rbp), %rax
	movq	(%rax), %rdx
	movq	addr_save.49(%rip), %rax
	cmpq	%rax, %rdx
	je	.L324
.L323:
	movq	-48(%rbp), %rax
	movq	40(%rax), %rax
	jmp	.L325
.L324:
	movq	sp3.45(%rip), %rax
.L325:
	movq	%rax, -96(%rbp)
	movl	mem_benchmark_rerun(%rip), %eax
	testl	%eax, %eax
	je	.L326
	movq	-48(%rbp), %rax
	movq	(%rax), %rdx
	movq	addr_save.49(%rip), %rax
	cmpq	%rax, %rdx
	je	.L327
.L326:
	movq	-48(%rbp), %rax
	movq	48(%rax), %rax
	jmp	.L328
.L327:
	movq	sp4.44(%rip), %rax
.L328:
	movq	%rax, -104(%rbp)
	movl	mem_benchmark_rerun(%rip), %eax
	testl	%eax, %eax
	je	.L329
	movq	-48(%rbp), %rax
	movq	(%rax), %rdx
	movq	addr_save.49(%rip), %rax
	cmpq	%rax, %rdx
	je	.L330
.L329:
	movq	-48(%rbp), %rax
	movq	56(%rax), %rax
	jmp	.L331
.L330:
	movq	sp5.43(%rip), %rax
.L331:
	movq	%rax, %r9
	movl	mem_benchmark_rerun(%rip), %eax
	testl	%eax, %eax
	je	.L332
	movq	-48(%rbp), %rax
	movq	(%rax), %rdx
	movq	addr_save.49(%rip), %rax
	cmpq	%rax, %rdx
	je	.L333
.L332:
	movq	-48(%rbp), %rax
	movq	64(%rax), %rax
	jmp	.L334
.L333:
	movq	sp6.42(%rip), %rax
.L334:
	movq	%rax, %r11
	movl	mem_benchmark_rerun(%rip), %eax
	testl	%eax, %eax
	je	.L335
	movq	-48(%rbp), %rax
	movq	(%rax), %rdx
	movq	addr_save.49(%rip), %rax
	cmpq	%rax, %rdx
	je	.L336
.L335:
	movq	-48(%rbp), %rax
	movq	72(%rax), %rax
	jmp	.L337
.L336:
	movq	sp7.41(%rip), %rax
.L337:
	movq	%rax, -112(%rbp)
	movl	mem_benchmark_rerun(%rip), %eax
	testl	%eax, %eax
	je	.L338
	movq	-48(%rbp), %rax
	movq	(%rax), %rdx
	movq	addr_save.49(%rip), %rax
	cmpq	%rax, %rdx
	je	.L339
.L338:
	movq	-48(%rbp), %rax
	movq	80(%rax), %rax
	jmp	.L340
.L339:
	movq	sp8.40(%rip), %rax
.L340:
	movq	%rax, -120(%rbp)
	movl	mem_benchmark_rerun(%rip), %eax
	testl	%eax, %eax
	je	.L341
	movq	-48(%rbp), %rax
	movq	(%rax), %rdx
	movq	addr_save.49(%rip), %rax
	cmpq	%rax, %rdx
	je	.L342
.L341:
	movq	-48(%rbp), %rax
	movq	88(%rax), %rax
	jmp	.L343
.L342:
	movq	sp9.39(%rip), %rax
.L343:
	movq	%rax, %r15
	movl	mem_benchmark_rerun(%rip), %eax
	testl	%eax, %eax
	je	.L344
	movq	-48(%rbp), %rax
	movq	(%rax), %rdx
	movq	addr_save.49(%rip), %rax
	cmpq	%rax, %rdx
	je	.L345
.L344:
	movq	-48(%rbp), %rax
	movq	96(%rax), %rax
	jmp	.L346
.L345:
	movq	sp10.38(%rip), %rax
.L346:
	movq	%rax, %r14
	movl	mem_benchmark_rerun(%rip), %eax
	testl	%eax, %eax
	je	.L347
	movq	-48(%rbp), %rax
	movq	(%rax), %rdx
	movq	addr_save.49(%rip), %rax
	cmpq	%rax, %rdx
	je	.L348
.L347:
	movq	-48(%rbp), %rax
	movq	104(%rax), %rax
	jmp	.L349
.L348:
	movq	sp11.37(%rip), %rax
.L349:
	movq	%rax, %r13
	movl	mem_benchmark_rerun(%rip), %eax
	testl	%eax, %eax
	je	.L350
	movq	-48(%rbp), %rax
	movq	(%rax), %rdx
	movq	addr_save.49(%rip), %rax
	cmpq	%rax, %rdx
	je	.L351
.L350:
	movq	-48(%rbp), %rax
	movq	112(%rax), %rax
	jmp	.L352
.L351:
	movq	sp12.36(%rip), %rax
.L352:
	movq	%rax, %r12
	movl	mem_benchmark_rerun(%rip), %eax
	testl	%eax, %eax
	je	.L353
	movq	-48(%rbp), %rax
	movq	(%rax), %rdx
	movq	addr_save.49(%rip), %rax
	cmpq	%rax, %rdx
	je	.L354
.L353:
	movq	-48(%rbp), %rax
	movq	120(%rax), %rax
	jmp	.L355
.L354:
	movq	sp13.35(%rip), %rax
.L355:
	movq	%rax, %rbx
	jmp	.L356
.L357:
	movq	-80(%rbp), %rax
	movq	(%rax), %rax
	movq	%rsi, %rcx
	movq	(%rcx), %rsi
	movq	-88(%rbp), %rdi
	movq	(%rdi), %rcx
	movq	-96(%rbp), %rdi
	movq	(%rdi), %rdi
	movq	-104(%rbp), %rdx
	movq	(%rdx), %rdx
	movq	%r9, %r8
	movq	(%r8), %r9
	movq	%r11, %r10
	movq	(%r10), %r11
	movq	-112(%rbp), %r8
	movq	(%r8), %r10
	movq	-120(%rbp), %r8
	movq	(%r8), %r8
	movq	(%r15), %r15
	movq	(%r14), %r14
	movq	0(%r13), %r13
	movq	(%r12), %r12
	movq	(%rbx), %rbx
	movq	(%rax), %rax
	movq	(%rsi), %rsi
	movq	(%rcx), %rcx
	movq	(%rdi), %rdi
	movq	(%rdx), %rdx
	movq	(%r9), %r9
	movq	(%r11), %r11
	movq	(%r10), %r10
	movq	(%r8), %r8
	movq	(%r15), %r15
	movq	(%r14), %r14
	movq	0(%r13), %r13
	movq	(%r12), %r12
	movq	(%rbx), %rbx
	movq	(%rax), %rax
	movq	(%rsi), %rsi
	movq	(%rcx), %rcx
	movq	(%rdi), %rdi
	movq	(%rdx), %rdx
	movq	(%r9), %r9
	movq	(%r11), %r11
	movq	(%r10), %r10
	movq	(%r8), %r8
	movq	(%r15), %r15
	movq	(%r14), %r14
	movq	0(%r13), %r13
	movq	(%r12), %r12
	movq	(%rbx), %rbx
	movq	(%rax), %rax
	movq	(%rsi), %rsi
	movq	(%rcx), %rcx
	movq	(%rdi), %rdi
	movq	(%rdx), %rdx
	movq	(%r9), %r9
	movq	(%r11), %r11
	movq	(%r10), %r10
	movq	(%r8), %r8
	movq	(%r15), %r15
	movq	(%r14), %r14
	movq	0(%r13), %r13
	movq	(%r12), %r12
	movq	(%rbx), %rbx
	movq	(%rax), %rax
	movq	(%rsi), %rsi
	movq	(%rcx), %rcx
	movq	(%rdi), %rdi
	movq	(%rdx), %rdx
	movq	(%r9), %r9
	movq	(%r11), %r11
	movq	(%r10), %r10
	movq	(%r8), %r8
	movq	(%r15), %r15
	movq	(%r14), %r14
	movq	0(%r13), %r13
	movq	(%r12), %r12
	movq	(%rbx), %rbx
	movq	(%rax), %rax
	movq	(%rsi), %rsi
	movq	(%rcx), %rcx
	movq	(%rdi), %rdi
	movq	(%rdx), %rdx
	movq	(%r9), %r9
	movq	(%r11), %r11
	movq	(%r10), %r10
	movq	(%r8), %r8
	movq	(%r15), %r15
	movq	(%r14), %r14
	movq	0(%r13), %r13
	movq	(%r12), %r12
	movq	(%rbx), %rbx
	movq	(%rax), %rax
	movq	(%rsi), %rsi
	movq	(%rcx), %rcx
	movq	(%rdi), %rdi
	movq	(%rdx), %rdx
	movq	(%r9), %r9
	movq	(%r11), %r11
	movq	(%r10), %r10
	movq	(%r8), %r8
	movq	(%r15), %r15
	movq	(%r14), %r14
	movq	0(%r13), %r13
	movq	(%r12), %r12
	movq	(%rbx), %rbx
	movq	(%rax), %rax
	movq	(%rsi), %rsi
	movq	(%rcx), %rcx
	movq	(%rdi), %rdi
	movq	(%rdx), %rdx
	movq	(%r9), %r9
	movq	(%r11), %r11
	movq	(%r10), %r10
	movq	(%r8), %r8
	movq	(%r15), %r15
	movq	(%r14), %r14
	movq	0(%r13), %r13
	movq	(%r12), %r12
	movq	(%rbx), %rbx
	movq	(%rax), %rax
	movq	(%rsi), %rsi
	movq	(%rcx), %rcx
	movq	(%rdi), %rdi
	movq	(%rdx), %rdx
	movq	(%r9), %r9
	movq	(%r11), %r11
	movq	(%r10), %r10
	movq	(%r8), %r8
	movq	(%r15), %r15
	movq	(%r14), %r14
	movq	0(%r13), %r13
	movq	(%r12), %r12
	movq	(%rbx), %rbx
	movq	(%rax), %rax
	movq	(%rsi), %rsi
	movq	(%rcx), %rcx
	movq	(%rdi), %rdi
	movq	(%rdx), %rdx
	movq	(%r9), %r9
	movq	(%r11), %r11
	movq	(%r10), %r10
	movq	(%r8), %r8
	movq	(%r15), %r15
	movq	(%r14), %r14
	movq	0(%r13), %r13
	movq	(%r12), %r12
	movq	(%rbx), %rbx
	movq	(%rax), %rax
	movq	(%rsi), %rsi
	movq	(%rcx), %rcx
	movq	(%rdi), %rdi
	movq	(%rdx), %rdx
	movq	(%r9), %r9
	movq	(%r11), %r11
	movq	(%r10), %r10
	movq	(%r8), %r8
	movq	(%r15), %r15
	movq	(%r14), %r14
	movq	0(%r13), %r13
	movq	(%r12), %r12
	movq	(%rbx), %rbx
	movq	(%rax), %rax
	movq	(%rsi), %rsi
	movq	(%rcx), %rcx
	movq	(%rdi), %rdi
	movq	(%rdx), %rdx
	movq	(%r9), %r9
	movq	(%r11), %r11
	movq	(%r10), %r10
	movq	(%r8), %r8
	movq	(%r15), %r15
	movq	(%r14), %r14
	movq	0(%r13), %r13
	movq	(%r12), %r12
	movq	(%rbx), %rbx
	movq	(%rax), %rax
	movq	(%rsi), %rsi
	movq	(%rcx), %rcx
	movq	(%rdi), %rdi
	movq	(%rdx), %rdx
	movq	(%r9), %r9
	movq	(%r11), %r11
	movq	(%r10), %r10
	movq	(%r8), %r8
	movq	(%r15), %r15
	movq	(%r14), %r14
	movq	0(%r13), %r13
	movq	(%r12), %r12
	movq	(%rbx), %rbx
	movq	(%rax), %rax
	movq	(%rsi), %rsi
	movq	(%rcx), %rcx
	movq	(%rdi), %rdi
	movq	(%rdx), %rdx
	movq	(%r9), %r9
	movq	(%r11), %r11
	movq	(%r10), %r10
	movq	(%r8), %r8
	movq	(%r15), %r15
	movq	(%r14), %r14
	movq	0(%r13), %r13
	movq	(%r12), %r12
	movq	(%rbx), %rbx
	movq	(%rax), %rax
	movq	(%rsi), %rsi
	movq	(%rcx), %rcx
	movq	(%rdi), %rdi
	movq	(%rdx), %rdx
	movq	(%r9), %r9
	movq	(%r11), %r11
	movq	(%r10), %r10
	movq	(%r8), %r8
	movq	(%r15), %r15
	movq	(%r14), %r14
	movq	0(%r13), %r13
	movq	(%r12), %r12
	movq	(%rbx), %rbx
	movq	(%rax), %rax
	movq	(%rsi), %rsi
	movq	(%rcx), %rcx
	movq	(%rdi), %rdi
	movq	(%rdx), %rdx
	movq	(%r9), %r9
	movq	(%r11), %r11
	movq	(%r10), %r10
	movq	(%r8), %r8
	movq	(%r15), %r15
	movq	(%r14), %r14
	movq	0(%r13), %r13
	movq	(%r12), %r12
	movq	(%rbx), %rbx
	movq	(%rax), %rax
	movq	(%rsi), %rsi
	movq	(%rcx), %rcx
	movq	(%rdi), %rdi
	movq	(%rdx), %rdx
	movq	(%r9), %r9
	movq	(%r11), %r11
	movq	(%r10), %r10
	movq	(%r8), %r8
	movq	(%r15), %r15
	movq	(%r14), %r14
	movq	0(%r13), %r13
	movq	(%r12), %r12
	movq	(%rbx), %rbx
	movq	(%rax), %rax
	movq	(%rsi), %rsi
	movq	(%rcx), %rcx
	movq	(%rdi), %rdi
	movq	(%rdx), %rdx
	movq	(%r9), %r9
	movq	(%r11), %r11
	movq	(%r10), %r10
	movq	(%r8), %r8
	movq	(%r15), %r15
	movq	(%r14), %r14
	movq	0(%r13), %r13
	movq	(%r12), %r12
	movq	(%rbx), %rbx
	movq	(%rax), %rax
	movq	(%rsi), %rsi
	movq	(%rcx), %rcx
	movq	(%rdi), %rdi
	movq	(%rdx), %rdx
	movq	(%r9), %r9
	movq	(%r11), %r11
	movq	(%r10), %r10
	movq	(%r8), %r8
	movq	(%r15), %r15
	movq	(%r14), %r14
	movq	0(%r13), %r13
	movq	(%r12), %r12
	movq	(%rbx), %rbx
	movq	(%rax), %rax
	movq	(%rsi), %rsi
	movq	(%rcx), %rcx
	movq	(%rdi), %rdi
	movq	(%rdx), %rdx
	movq	(%r9), %r9
	movq	(%r11), %r11
	movq	(%r10), %r10
	movq	(%r8), %r8
	movq	(%r15), %r15
	movq	(%r14), %r14
	movq	0(%r13), %r13
	movq	(%r12), %r12
	movq	(%rbx), %rbx
	movq	(%rax), %rax
	movq	(%rsi), %rsi
	movq	(%rcx), %rcx
	movq	(%rdi), %rdi
	movq	(%rdx), %rdx
	movq	(%r9), %r9
	movq	(%r11), %r11
	movq	(%r10), %r10
	movq	(%r8), %r8
	movq	(%r15), %r15
	movq	(%r14), %r14
	movq	0(%r13), %r13
	movq	(%r12), %r12
	movq	(%rbx), %rbx
	movq	(%rax), %rax
	movq	(%rsi), %rsi
	movq	(%rcx), %rcx
	movq	(%rdi), %rdi
	movq	(%rdx), %rdx
	movq	(%r9), %r9
	movq	(%r11), %r11
	movq	(%r10), %r10
	movq	(%r8), %r8
	movq	(%r15), %r15
	movq	(%r14), %r14
	movq	0(%r13), %r13
	movq	(%r12), %r12
	movq	(%rbx), %rbx
	movq	(%rax), %rax
	movq	(%rsi), %rsi
	movq	(%rcx), %rcx
	movq	(%rdi), %rdi
	movq	(%rdx), %rdx
	movq	(%r9), %r9
	movq	(%r11), %r11
	movq	(%r10), %r10
	movq	(%r8), %r8
	movq	(%r15), %r15
	movq	(%r14), %r14
	movq	0(%r13), %r13
	movq	(%r12), %r12
	movq	(%rbx), %rbx
	movq	(%rax), %rax
	movq	(%rsi), %rsi
	movq	(%rcx), %rcx
	movq	(%rdi), %rdi
	movq	(%rdx), %rdx
	movq	(%r9), %r9
	movq	(%r11), %r11
	movq	(%r10), %r10
	movq	(%r8), %r8
	movq	(%r15), %r15
	movq	(%r14), %r14
	movq	0(%r13), %r13
	movq	(%r12), %r12
	movq	(%rbx), %rbx
	movq	(%rax), %rax
	movq	(%rsi), %rsi
	movq	(%rcx), %rcx
	movq	(%rdi), %rdi
	movq	(%rdx), %rdx
	movq	(%r9), %r9
	movq	(%r11), %r11
	movq	(%r10), %r10
	movq	(%r8), %r8
	movq	(%r15), %r15
	movq	(%r14), %r14
	movq	0(%r13), %r13
	movq	(%r12), %r12
	movq	(%rbx), %rbx
	movq	(%rax), %rax
	movq	(%rsi), %rsi
	movq	(%rcx), %rcx
	movq	(%rdi), %rdi
	movq	(%rdx), %rdx
	movq	(%r9), %r9
	movq	(%r11), %r11
	movq	(%r10), %r10
	movq	(%r8), %r8
	movq	(%r15), %r15
	movq	(%r14), %r14
	movq	0(%r13), %r13
	movq	(%r12), %r12
	movq	(%rbx), %rbx
	movq	(%rax), %rax
	movq	(%rsi), %rsi
	movq	(%rcx), %rcx
	movq	(%rdi), %rdi
	movq	(%rdx), %rdx
	movq	(%r9), %r9
	movq	(%r11), %r11
	movq	(%r10), %r10
	movq	(%r8), %r8
	movq	(%r15), %r15
	movq	(%r14), %r14
	movq	0(%r13), %r13
	movq	(%r12), %r12
	movq	(%rbx), %rbx
	movq	(%rax), %rax
	movq	(%rsi), %rsi
	movq	(%rcx), %rcx
	movq	(%rdi), %rdi
	movq	(%rdx), %rdx
	movq	(%r9), %r9
	movq	(%r11), %r11
	movq	(%r10), %r10
	movq	(%r8), %r8
	movq	(%r15), %r15
	movq	(%r14), %r14
	movq	0(%r13), %r13
	movq	(%r12), %r12
	movq	(%rbx), %rbx
	movq	(%rax), %rax
	movq	(%rsi), %rsi
	movq	(%rcx), %rcx
	movq	(%rdi), %rdi
	movq	(%rdx), %rdx
	movq	(%r9), %r9
	movq	(%r11), %r11
	movq	(%r10), %r10
	movq	(%r8), %r8
	movq	(%r15), %r15
	movq	(%r14), %r14
	movq	0(%r13), %r13
	movq	(%r12), %r12
	movq	(%rbx), %rbx
	movq	(%rax), %rax
	movq	(%rsi), %rsi
	movq	(%rcx), %rcx
	movq	(%rdi), %rdi
	movq	(%rdx), %rdx
	movq	(%r9), %r9
	movq	(%r11), %r11
	movq	(%r10), %r10
	movq	(%r8), %r8
	movq	(%r15), %r15
	movq	(%r14), %r14
	movq	0(%r13), %r13
	movq	(%r12), %r12
	movq	(%rbx), %rbx
	movq	(%rax), %rax
	movq	(%rsi), %rsi
	movq	(%rcx), %rcx
	movq	(%rdi), %rdi
	movq	(%rdx), %rdx
	movq	(%r9), %r9
	movq	(%r11), %r11
	movq	(%r10), %r10
	movq	(%r8), %r8
	movq	(%r15), %r15
	movq	(%r14), %r14
	movq	0(%r13), %r13
	movq	(%r12), %r12
	movq	(%rbx), %rbx
	movq	(%rax), %rax
	movq	(%rsi), %rsi
	movq	(%rcx), %rcx
	movq	(%rdi), %rdi
	movq	(%rdx), %rdx
	movq	(%r9), %r9
	movq	(%r11), %r11
	movq	(%r10), %r10
	movq	(%r8), %r8
	movq	(%r15), %r15
	movq	(%r14), %r14
	movq	0(%r13), %r13
	movq	(%r12), %r12
	movq	(%rbx), %rbx
	movq	(%rax), %rax
	movq	(%rsi), %rsi
	movq	(%rcx), %rcx
	movq	(%rdi), %rdi
	movq	(%rdx), %rdx
	movq	(%r9), %r9
	movq	(%r11), %r11
	movq	(%r10), %r10
	movq	(%r8), %r8
	movq	(%r15), %r15
	movq	(%r14), %r14
	movq	0(%r13), %r13
	movq	(%r12), %r12
	movq	(%rbx), %rbx
	movq	(%rax), %rax
	movq	(%rsi), %rsi
	movq	(%rcx), %rcx
	movq	(%rdi), %rdi
	movq	(%rdx), %rdx
	movq	(%r9), %r9
	movq	(%r11), %r11
	movq	(%r10), %r10
	movq	(%r8), %r8
	movq	(%r15), %r15
	movq	(%r14), %r14
	movq	0(%r13), %r13
	movq	(%r12), %r12
	movq	(%rbx), %rbx
	movq	(%rax), %rax
	movq	(%rsi), %rsi
	movq	(%rcx), %rcx
	movq	(%rdi), %rdi
	movq	(%rdx), %rdx
	movq	(%r9), %r9
	movq	(%r11), %r11
	movq	(%r10), %r10
	movq	(%r8), %r8
	movq	(%r15), %r15
	movq	(%r14), %r14
	movq	0(%r13), %r13
	movq	(%r12), %r12
	movq	(%rbx), %rbx
	movq	(%rax), %rax
	movq	(%rsi), %rsi
	movq	(%rcx), %rcx
	movq	(%rdi), %rdi
	movq	(%rdx), %rdx
	movq	(%r9), %r9
	movq	(%r11), %r11
	movq	(%r10), %r10
	movq	(%r8), %r8
	movq	(%r15), %r15
	movq	(%r14), %r14
	movq	0(%r13), %r13
	movq	(%r12), %r12
	movq	(%rbx), %rbx
	movq	(%rax), %rax
	movq	(%rsi), %rsi
	movq	(%rcx), %rcx
	movq	(%rdi), %rdi
	movq	(%rdx), %rdx
	movq	(%r9), %r9
	movq	(%r11), %r11
	movq	(%r10), %r10
	movq	(%r8), %r8
	movq	(%r15), %r15
	movq	(%r14), %r14
	movq	0(%r13), %r13
	movq	(%r12), %r12
	movq	(%rbx), %rbx
	movq	(%rax), %rax
	movq	(%rsi), %rsi
	movq	(%rcx), %rcx
	movq	(%rdi), %rdi
	movq	(%rdx), %rdx
	movq	(%r9), %r9
	movq	(%r11), %r11
	movq	(%r10), %r10
	movq	(%r8), %r8
	movq	(%r15), %r15
	movq	(%r14), %r14
	movq	0(%r13), %r13
	movq	(%r12), %r12
	movq	(%rbx), %rbx
	movq	(%rax), %rax
	movq	(%rsi), %rsi
	movq	(%rcx), %rcx
	movq	(%rdi), %rdi
	movq	(%rdx), %rdx
	movq	(%r9), %r9
	movq	(%r11), %r11
	movq	(%r10), %r10
	movq	(%r8), %r8
	movq	(%r15), %r15
	movq	(%r14), %r14
	movq	0(%r13), %r13
	movq	(%r12), %r12
	movq	(%rbx), %rbx
	movq	(%rax), %rax
	movq	(%rsi), %rsi
	movq	(%rcx), %rcx
	movq	(%rdi), %rdi
	movq	(%rdx), %rdx
	movq	(%r9), %r9
	movq	(%r11), %r11
	movq	(%r10), %r10
	movq	(%r8), %r8
	movq	(%r15), %r15
	movq	(%r14), %r14
	movq	0(%r13), %r13
	movq	(%r12), %r12
	movq	(%rbx), %rbx
	movq	(%rax), %rax
	movq	(%rsi), %rsi
	movq	(%rcx), %rcx
	movq	(%rdi), %rdi
	movq	(%rdx), %rdx
	movq	(%r9), %r9
	movq	(%r11), %r11
	movq	(%r10), %r10
	movq	(%r8), %r8
	movq	(%r15), %r15
	movq	(%r14), %r14
	movq	0(%r13), %r13
	movq	(%r12), %r12
	movq	(%rbx), %rbx
	movq	(%rax), %rax
	movq	(%rsi), %rsi
	movq	(%rcx), %rcx
	movq	(%rdi), %rdi
	movq	(%rdx), %rdx
	movq	(%r9), %r9
	movq	(%r11), %r11
	movq	(%r10), %r10
	movq	(%r8), %r8
	movq	(%r15), %r15
	movq	(%r14), %r14
	movq	0(%r13), %r13
	movq	(%r12), %r12
	movq	(%rbx), %rbx
	movq	(%rax), %rax
	movq	(%rsi), %rsi
	movq	(%rcx), %rcx
	movq	(%rdi), %rdi
	movq	(%rdx), %rdx
	movq	(%r9), %r9
	movq	(%r11), %r11
	movq	(%r10), %r10
	movq	(%r8), %r8
	movq	(%r15), %r15
	movq	(%r14), %r14
	movq	0(%r13), %r13
	movq	(%r12), %r12
	movq	(%rbx), %rbx
	movq	(%rax), %rax
	movq	(%rsi), %rsi
	movq	(%rcx), %rcx
	movq	(%rdi), %rdi
	movq	(%rdx), %rdx
	movq	(%r9), %r9
	movq	(%r11), %r11
	movq	(%r10), %r10
	movq	(%r8), %r8
	movq	(%r15), %r15
	movq	(%r14), %r14
	movq	0(%r13), %r13
	movq	(%r12), %r12
	movq	(%rbx), %rbx
	movq	(%rax), %rax
	movq	(%rsi), %rsi
	movq	(%rcx), %rcx
	movq	(%rdi), %rdi
	movq	(%rdx), %rdx
	movq	(%r9), %r9
	movq	(%r11), %r11
	movq	(%r10), %r10
	movq	(%r8), %r8
	movq	(%r15), %r15
	movq	(%r14), %r14
	movq	0(%r13), %r13
	movq	(%r12), %r12
	movq	(%rbx), %rbx
	movq	(%rax), %rax
	movq	(%rsi), %rsi
	movq	(%rcx), %rcx
	movq	(%rdi), %rdi
	movq	(%rdx), %rdx
	movq	(%r9), %r9
	movq	(%r11), %r11
	movq	(%r10), %r10
	movq	(%r8), %r8
	movq	(%r15), %r15
	movq	(%r14), %r14
	movq	0(%r13), %r13
	movq	(%r12), %r12
	movq	(%rbx), %rbx
	movq	(%rax), %rax
	movq	(%rsi), %rsi
	movq	(%rcx), %rcx
	movq	(%rdi), %rdi
	movq	(%rdx), %rdx
	movq	(%r9), %r9
	movq	(%r11), %r11
	movq	(%r10), %r10
	movq	(%r8), %r8
	movq	(%r15), %r15
	movq	(%r14), %r14
	movq	0(%r13), %r13
	movq	(%r12), %r12
	movq	(%rbx), %rbx
	movq	(%rax), %rax
	movq	(%rsi), %rsi
	movq	(%rcx), %rcx
	movq	(%rdi), %rdi
	movq	(%rdx), %rdx
	movq	(%r9), %r9
	movq	(%r11), %r11
	movq	(%r10), %r10
	movq	(%r8), %r8
	movq	(%r15), %r15
	movq	(%r14), %r14
	movq	0(%r13), %r13
	movq	(%r12), %r12
	movq	(%rbx), %rbx
	movq	(%rax), %rax
	movq	(%rsi), %rsi
	movq	(%rcx), %rcx
	movq	(%rdi), %rdi
	movq	(%rdx), %rdx
	movq	(%r9), %r9
	movq	(%r11), %r11
	movq	(%r10), %r10
	movq	(%r8), %r8
	movq	(%r15), %r15
	movq	(%r14), %r14
	movq	0(%r13), %r13
	movq	(%r12), %r12
	movq	(%rbx), %rbx
	movq	(%rax), %rax
	movq	(%rsi), %rsi
	movq	(%rcx), %rcx
	movq	(%rdi), %rdi
	movq	(%rdx), %rdx
	movq	(%r9), %r9
	movq	(%r11), %r11
	movq	(%r10), %r10
	movq	(%r8), %r8
	movq	(%r15), %r15
	movq	(%r14), %r14
	movq	0(%r13), %r13
	movq	(%r12), %r12
	movq	(%rbx), %rbx
	movq	(%rax), %rax
	movq	(%rsi), %rsi
	movq	(%rcx), %rcx
	movq	(%rdi), %rdi
	movq	(%rdx), %rdx
	movq	(%r9), %r9
	movq	(%r11), %r11
	movq	(%r10), %r10
	movq	(%r8), %r8
	movq	(%r15), %r15
	movq	(%r14), %r14
	movq	0(%r13), %r13
	movq	(%r12), %r12
	movq	(%rbx), %rbx
	movq	(%rax), %rax
	movq	(%rsi), %rsi
	movq	(%rcx), %rcx
	movq	(%rdi), %rdi
	movq	(%rdx), %rdx
	movq	(%r9), %r9
	movq	(%r11), %r11
	movq	(%r10), %r10
	movq	(%r8), %r8
	movq	(%r15), %r15
	movq	(%r14), %r14
	movq	0(%r13), %r13
	movq	(%r12), %r12
	movq	(%rbx), %rbx
	movq	(%rax), %rax
	movq	(%rsi), %rsi
	movq	(%rcx), %rcx
	movq	(%rdi), %rdi
	movq	(%rdx), %rdx
	movq	(%r9), %r9
	movq	(%r11), %r11
	movq	(%r10), %r10
	movq	(%r8), %r8
	movq	(%r15), %r15
	movq	(%r14), %r14
	movq	0(%r13), %r13
	movq	(%r12), %r12
	movq	(%rbx), %rbx
	movq	(%rax), %rax
	movq	(%rsi), %rsi
	movq	(%rcx), %rcx
	movq	(%rdi), %rdi
	movq	(%rdx), %rdx
	movq	(%r9), %r9
	movq	(%r11), %r11
	movq	(%r10), %r10
	movq	(%r8), %r8
	movq	(%r15), %r15
	movq	(%r14), %r14
	movq	0(%r13), %r13
	movq	(%r12), %r12
	movq	(%rbx), %rbx
	movq	(%rax), %rax
	movq	(%rsi), %rsi
	movq	(%rcx), %rcx
	movq	(%rdi), %rdi
	movq	(%rdx), %rdx
	movq	(%r9), %r9
	movq	(%r11), %r11
	movq	(%r10), %r10
	movq	(%r8), %r8
	movq	(%r15), %r15
	movq	(%r14), %r14
	movq	0(%r13), %r13
	movq	(%r12), %r12
	movq	(%rbx), %rbx
	movq	(%rax), %rax
	movq	(%rsi), %rsi
	movq	(%rcx), %rcx
	movq	(%rdi), %rdi
	movq	(%rdx), %rdx
	movq	(%r9), %r9
	movq	(%r11), %r11
	movq	(%r10), %r10
	movq	(%r8), %r8
	movq	(%r15), %r15
	movq	(%r14), %r14
	movq	0(%r13), %r13
	movq	(%r12), %r12
	movq	(%rbx), %rbx
	movq	(%rax), %rax
	movq	(%rsi), %rsi
	movq	(%rcx), %rcx
	movq	(%rdi), %rdi
	movq	(%rdx), %rdx
	movq	(%r9), %r9
	movq	(%r11), %r11
	movq	(%r10), %r10
	movq	(%r8), %r8
	movq	(%r15), %r15
	movq	(%r14), %r14
	movq	0(%r13), %r13
	movq	(%r12), %r12
	movq	(%rbx), %rbx
	movq	(%rax), %rax
	movq	(%rsi), %rsi
	movq	(%rcx), %rcx
	movq	(%rdi), %rdi
	movq	(%rdx), %rdx
	movq	(%r9), %r9
	movq	(%r11), %r11
	movq	(%r10), %r10
	movq	(%r8), %r8
	movq	(%r15), %r15
	movq	(%r14), %r14
	movq	0(%r13), %r13
	movq	(%r12), %r12
	movq	(%rbx), %rbx
	movq	(%rax), %rax
	movq	(%rsi), %rsi
	movq	(%rcx), %rcx
	movq	(%rdi), %rdi
	movq	(%rdx), %rdx
	movq	(%r9), %r9
	movq	(%r11), %r11
	movq	(%r10), %r10
	movq	(%r8), %r8
	movq	(%r15), %r15
	movq	(%r14), %r14
	movq	0(%r13), %r13
	movq	(%r12), %r12
	movq	(%rbx), %rbx
	movq	(%rax), %rax
	movq	(%rsi), %rsi
	movq	(%rcx), %rcx
	movq	(%rdi), %rdi
	movq	(%rdx), %rdx
	movq	(%r9), %r9
	movq	(%r11), %r11
	movq	(%r10), %r10
	movq	(%r8), %r8
	movq	(%r15), %r15
	movq	(%r14), %r14
	movq	0(%r13), %r13
	movq	(%r12), %r12
	movq	(%rbx), %rbx
	movq	(%rax), %rax
	movq	(%rsi), %rsi
	movq	(%rcx), %rcx
	movq	(%rdi), %rdi
	movq	(%rdx), %rdx
	movq	(%r9), %r9
	movq	(%r11), %r11
	movq	(%r10), %r10
	movq	(%r8), %r8
	movq	(%r15), %r15
	movq	(%r14), %r14
	movq	0(%r13), %r13
	movq	(%r12), %r12
	movq	(%rbx), %rbx
	movq	(%rax), %rax
	movq	(%rsi), %rsi
	movq	(%rcx), %rcx
	movq	(%rdi), %rdi
	movq	(%rdx), %rdx
	movq	(%r9), %r9
	movq	(%r11), %r11
	movq	(%r10), %r10
	movq	(%r8), %r8
	movq	(%r15), %r15
	movq	(%r14), %r14
	movq	0(%r13), %r13
	movq	(%r12), %r12
	movq	(%rbx), %rbx
	movq	(%rax), %rax
	movq	(%rsi), %rsi
	movq	(%rcx), %rcx
	movq	(%rdi), %rdi
	movq	(%rdx), %rdx
	movq	(%r9), %r9
	movq	(%r11), %r11
	movq	(%r10), %r10
	movq	(%r8), %r8
	movq	(%r15), %r15
	movq	(%r14), %r14
	movq	0(%r13), %r13
	movq	(%r12), %r12
	movq	(%rbx), %rbx
	movq	(%rax), %rax
	movq	(%rsi), %rsi
	movq	(%rcx), %rcx
	movq	(%rdi), %rdi
	movq	(%rdx), %rdx
	movq	(%r9), %r9
	movq	(%r11), %r11
	movq	(%r10), %r10
	movq	(%r8), %r8
	movq	(%r15), %r15
	movq	(%r14), %r14
	movq	0(%r13), %r13
	movq	(%r12), %r12
	movq	(%rbx), %rbx
	movq	(%rax), %rax
	movq	(%rsi), %rsi
	movq	(%rcx), %rcx
	movq	(%rdi), %rdi
	movq	(%rdx), %rdx
	movq	(%r9), %r9
	movq	(%r11), %r11
	movq	(%r10), %r10
	movq	(%r8), %r8
	movq	(%r15), %r15
	movq	(%r14), %r14
	movq	0(%r13), %r13
	movq	(%r12), %r12
	movq	(%rbx), %rbx
	movq	(%rax), %rax
	movq	(%rsi), %rsi
	movq	(%rcx), %rcx
	movq	(%rdi), %rdi
	movq	(%rdx), %rdx
	movq	(%r9), %r9
	movq	(%r11), %r11
	movq	(%r10), %r10
	movq	(%r8), %r8
	movq	(%r15), %r15
	movq	(%r14), %r14
	movq	0(%r13), %r13
	movq	(%r12), %r12
	movq	(%rbx), %rbx
	movq	(%rax), %rax
	movq	(%rsi), %rsi
	movq	(%rcx), %rcx
	movq	(%rdi), %rdi
	movq	(%rdx), %rdx
	movq	(%r9), %r9
	movq	(%r11), %r11
	movq	(%r10), %r10
	movq	(%r8), %r8
	movq	(%r15), %r15
	movq	(%r14), %r14
	movq	0(%r13), %r13
	movq	(%r12), %r12
	movq	(%rbx), %rbx
	movq	(%rax), %rax
	movq	(%rsi), %rsi
	movq	(%rcx), %rcx
	movq	(%rdi), %rdi
	movq	(%rdx), %rdx
	movq	(%r9), %r9
	movq	(%r11), %r11
	movq	(%r10), %r10
	movq	(%r8), %r8
	movq	(%r15), %r15
	movq	(%r14), %r14
	movq	0(%r13), %r13
	movq	(%r12), %r12
	movq	(%rbx), %rbx
	movq	(%rax), %rax
	movq	(%rsi), %rsi
	movq	(%rcx), %rcx
	movq	(%rdi), %rdi
	movq	(%rdx), %rdx
	movq	(%r9), %r9
	movq	(%r11), %r11
	movq	(%r10), %r10
	movq	(%r8), %r8
	movq	(%r15), %r15
	movq	(%r14), %r14
	movq	0(%r13), %r13
	movq	(%r12), %r12
	movq	(%rbx), %rbx
	movq	(%rax), %rax
	movq	(%rsi), %rsi
	movq	(%rcx), %rcx
	movq	(%rdi), %rdi
	movq	(%rdx), %rdx
	movq	(%r9), %r9
	movq	(%r11), %r11
	movq	(%r10), %r10
	movq	(%r8), %r8
	movq	(%r15), %r15
	movq	(%r14), %r14
	movq	0(%r13), %r13
	movq	(%r12), %r12
	movq	(%rbx), %rbx
	movq	(%rax), %rax
	movq	(%rsi), %rsi
	movq	(%rcx), %rcx
	movq	(%rdi), %rdi
	movq	(%rdx), %rdx
	movq	(%r9), %r9
	movq	(%r11), %r11
	movq	(%r10), %r10
	movq	(%r8), %r8
	movq	(%r15), %r15
	movq	(%r14), %r14
	movq	0(%r13), %r13
	movq	(%r12), %r12
	movq	(%rbx), %rbx
	movq	(%rax), %rax
	movq	(%rsi), %rsi
	movq	(%rcx), %rcx
	movq	(%rdi), %rdi
	movq	(%rdx), %rdx
	movq	(%r9), %r9
	movq	(%r11), %r11
	movq	(%r10), %r10
	movq	(%r8), %r8
	movq	(%r15), %r15
	movq	(%r14), %r14
	movq	0(%r13), %r13
	movq	(%r12), %r12
	movq	(%rbx), %rbx
	movq	(%rax), %rax
	movq	(%rsi), %rsi
	movq	(%rcx), %rcx
	movq	(%rdi), %rdi
	movq	(%rdx), %rdx
	movq	(%r9), %r9
	movq	(%r11), %r11
	movq	(%r10), %r10
	movq	(%r8), %r8
	movq	(%r15), %r15
	movq	(%r14), %r14
	movq	0(%r13), %r13
	movq	(%r12), %r12
	movq	(%rbx), %rbx
	movq	(%rax), %rax
	movq	(%rsi), %rsi
	movq	(%rcx), %rcx
	movq	(%rdi), %rdi
	movq	(%rdx), %rdx
	movq	(%r9), %r9
	movq	(%r11), %r11
	movq	(%r10), %r10
	movq	(%r8), %r8
	movq	(%r15), %r15
	movq	(%r14), %r14
	movq	0(%r13), %r13
	movq	(%r12), %r12
	movq	(%rbx), %rbx
	movq	(%rax), %rax
	movq	(%rsi), %rsi
	movq	(%rcx), %rcx
	movq	(%rdi), %rdi
	movq	(%rdx), %rdx
	movq	(%r9), %r9
	movq	(%r11), %r11
	movq	(%r10), %r10
	movq	(%r8), %r8
	movq	(%r15), %r15
	movq	(%r14), %r14
	movq	0(%r13), %r13
	movq	(%r12), %r12
	movq	(%rbx), %rbx
	movq	(%rax), %rax
	movq	(%rsi), %rsi
	movq	(%rcx), %rcx
	movq	(%rdi), %rdi
	movq	(%rdx), %rdx
	movq	(%r9), %r9
	movq	(%r11), %r11
	movq	(%r10), %r10
	movq	(%r8), %r8
	movq	(%r15), %r15
	movq	(%r14), %r14
	movq	0(%r13), %r13
	movq	(%r12), %r12
	movq	(%rbx), %rbx
	movq	(%rax), %rax
	movq	(%rsi), %rsi
	movq	(%rcx), %rcx
	movq	(%rdi), %rdi
	movq	(%rdx), %rdx
	movq	(%r9), %r9
	movq	(%r11), %r11
	movq	(%r10), %r10
	movq	(%r8), %r8
	movq	(%r15), %r15
	movq	(%r14), %r14
	movq	0(%r13), %r13
	movq	(%r12), %r12
	movq	(%rbx), %rbx
	movq	(%rax), %rax
	movq	(%rsi), %rsi
	movq	(%rcx), %rcx
	movq	(%rdi), %rdi
	movq	(%rdx), %rdx
	movq	(%r9), %r9
	movq	(%r11), %r11
	movq	(%r10), %r10
	movq	(%r8), %r8
	movq	(%r15), %r15
	movq	(%r14), %r14
	movq	0(%r13), %r13
	movq	(%r12), %r12
	movq	(%rbx), %rbx
	movq	(%rax), %rax
	movq	(%rsi), %rsi
	movq	(%rcx), %rcx
	movq	(%rdi), %rdi
	movq	(%rdx), %rdx
	movq	(%r9), %r9
	movq	(%r11), %r11
	movq	(%r10), %r10
	movq	(%r8), %r8
	movq	(%r15), %r15
	movq	(%r14), %r14
	movq	0(%r13), %r13
	movq	(%r12), %r12
	movq	(%rbx), %rbx
	movq	(%rax), %rax
	movq	(%rsi), %rsi
	movq	(%rcx), %rcx
	movq	(%rdi), %rdi
	movq	(%rdx), %rdx
	movq	(%r9), %r9
	movq	(%r11), %r11
	movq	(%r10), %r10
	movq	(%r8), %r8
	movq	(%r15), %r15
	movq	(%r14), %r14
	movq	0(%r13), %r13
	movq	(%r12), %r12
	movq	(%rbx), %rbx
	movq	(%rax), %rax
	movq	(%rsi), %rsi
	movq	(%rcx), %rcx
	movq	(%rdi), %rdi
	movq	(%rdx), %rdx
	movq	(%r9), %r9
	movq	(%r11), %r11
	movq	(%r10), %r10
	movq	(%r8), %r8
	movq	(%r15), %r15
	movq	(%r14), %r14
	movq	0(%r13), %r13
	movq	(%r12), %r12
	movq	(%rbx), %rbx
	movq	(%rax), %rax
	movq	(%rsi), %rsi
	movq	(%rcx), %rcx
	movq	(%rdi), %rdi
	movq	(%rdx), %rdx
	movq	(%r9), %r9
	movq	(%r11), %r11
	movq	(%r10), %r10
	movq	(%r8), %r8
	movq	(%r15), %r15
	movq	(%r14), %r14
	movq	0(%r13), %r13
	movq	(%r12), %r12
	movq	(%rbx), %rbx
	movq	(%rax), %rax
	movq	(%rsi), %rsi
	movq	(%rcx), %rcx
	movq	(%rdi), %rdi
	movq	(%rdx), %rdx
	movq	(%r9), %r9
	movq	(%r11), %r11
	movq	(%r10), %r10
	movq	(%r8), %r8
	movq	(%r15), %r15
	movq	(%r14), %r14
	movq	0(%r13), %r13
	movq	(%r12), %r12
	movq	(%rbx), %rbx
	movq	(%rax), %rax
	movq	(%rsi), %rsi
	movq	(%rcx), %rcx
	movq	(%rdi), %rdi
	movq	(%rdx), %rdx
	movq	(%r9), %r9
	movq	(%r11), %r11
	movq	(%r10), %r10
	movq	(%r8), %r8
	movq	(%r15), %r15
	movq	(%r14), %r14
	movq	0(%r13), %r13
	movq	(%r12), %r12
	movq	(%rbx), %rbx
	movq	(%rax), %rax
	movq	(%rsi), %rsi
	movq	(%rcx), %rcx
	movq	(%rdi), %rdi
	movq	(%rdx), %rdx
	movq	(%r9), %r9
	movq	(%r11), %r11
	movq	(%r10), %r10
	movq	(%r8), %r8
	movq	(%r15), %r15
	movq	(%r14), %r14
	movq	0(%r13), %r13
	movq	(%r12), %r12
	movq	(%rbx), %rbx
	movq	(%rax), %rax
	movq	(%rsi), %rsi
	movq	(%rcx), %rcx
	movq	(%rdi), %rdi
	movq	(%rdx), %rdx
	movq	(%r9), %r9
	movq	(%r11), %r11
	movq	(%r10), %r10
	movq	(%r8), %r8
	movq	(%r15), %r15
	movq	(%r14), %r14
	movq	0(%r13), %r13
	movq	(%r12), %r12
	movq	(%rbx), %rbx
	movq	(%rax), %rax
	movq	(%rsi), %rsi
	movq	(%rcx), %rcx
	movq	(%rdi), %rdi
	movq	(%rdx), %rdx
	movq	(%r9), %r9
	movq	(%r11), %r11
	movq	(%r10), %r10
	movq	(%r8), %r8
	movq	(%r15), %r15
	movq	(%r14), %r14
	movq	0(%r13), %r13
	movq	(%r12), %r12
	movq	(%rbx), %rbx
	movq	(%rax), %rax
	movq	(%rsi), %rsi
	movq	(%rcx), %rcx
	movq	(%rdi), %rdi
	movq	(%rdx), %rdx
	movq	(%r9), %r9
	movq	(%r11), %r11
	movq	(%r10), %r10
	movq	(%r8), %r8
	movq	(%r15), %r15
	movq	(%r14), %r14
	movq	0(%r13), %r13
	movq	(%r12), %r12
	movq	(%rbx), %rbx
	movq	(%rax), %rax
	movq	(%rsi), %rsi
	movq	(%rcx), %rcx
	movq	(%rdi), %rdi
	movq	(%rdx), %rdx
	movq	(%r9), %r9
	movq	(%r11), %r11
	movq	(%r10), %r10
	movq	(%r8), %r8
	movq	(%r15), %r15
	movq	(%r14), %r14
	movq	0(%r13), %r13
	movq	(%r12), %r12
	movq	(%rbx), %rbx
	movq	(%rax), %rax
	movq	(%rsi), %rsi
	movq	(%rcx), %rcx
	movq	(%rdi), %rdi
	movq	(%rdx), %rdx
	movq	(%r9), %r9
	movq	(%r11), %r11
	movq	(%r10), %r10
	movq	(%r8), %r8
	movq	(%r15), %r15
	movq	(%r14), %r14
	movq	0(%r13), %r13
	movq	(%r12), %r12
	movq	(%rbx), %rbx
	movq	(%rax), %rax
	movq	(%rsi), %rsi
	movq	(%rcx), %rcx
	movq	(%rdi), %rdi
	movq	(%rdx), %rdx
	movq	(%r9), %r9
	movq	(%r11), %r11
	movq	(%r10), %r10
	movq	(%r8), %r8
	movq	(%r15), %r15
	movq	(%r14), %r14
	movq	0(%r13), %r13
	movq	(%r12), %r12
	movq	(%rbx), %rbx
	movq	(%rax), %rax
	movq	(%rsi), %rsi
	movq	(%rcx), %rcx
	movq	(%rdi), %rdi
	movq	(%rdx), %rdx
	movq	(%r9), %r9
	movq	(%r11), %r11
	movq	(%r10), %r10
	movq	(%r8), %r8
	movq	(%r15), %r15
	movq	(%r14), %r14
	movq	0(%r13), %r13
	movq	(%r12), %r12
	movq	(%rbx), %rbx
	movq	(%rax), %rax
	movq	(%rsi), %rsi
	movq	(%rcx), %rcx
	movq	(%rdi), %rdi
	movq	(%rdx), %rdx
	movq	(%r9), %r9
	movq	(%r11), %r11
	movq	(%r10), %r10
	movq	(%r8), %r8
	movq	(%r15), %r15
	movq	(%r14), %r14
	movq	0(%r13), %r13
	movq	(%r12), %r12
	movq	(%rbx), %rbx
	movq	(%rax), %rax
	movq	(%rsi), %rsi
	movq	(%rcx), %rcx
	movq	(%rdi), %rdi
	movq	(%rdx), %rdx
	movq	(%r9), %r9
	movq	(%r11), %r11
	movq	(%r10), %r10
	movq	(%r8), %r8
	movq	(%r15), %r15
	movq	(%r14), %r14
	movq	0(%r13), %r13
	movq	(%r12), %r12
	movq	(%rbx), %rbx
	movq	(%rax), %rax
	movq	(%rsi), %rsi
	movq	(%rcx), %rcx
	movq	(%rdi), %rdi
	movq	(%rdx), %rdx
	movq	(%r9), %r9
	movq	(%r11), %r11
	movq	(%r10), %r10
	movq	(%r8), %r8
	movq	(%r15), %r15
	movq	(%r14), %r14
	movq	0(%r13), %r13
	movq	(%r12), %r12
	movq	(%rbx), %rbx
	movq	(%rax), %rax
	movq	(%rsi), %rsi
	movq	(%rcx), %rcx
	movq	(%rdi), %rdi
	movq	(%rdx), %rdx
	movq	(%r9), %r9
	movq	(%r11), %r11
	movq	(%r10), %r10
	movq	(%r8), %r8
	movq	(%r15), %r15
	movq	(%r14), %r14
	movq	0(%r13), %r13
	movq	(%r12), %r12
	movq	(%rbx), %rbx
	movq	(%rax), %rax
	movq	(%rsi), %rsi
	movq	(%rcx), %rcx
	movq	(%rdi), %rdi
	movq	(%rdx), %rdx
	movq	(%r9), %r9
	movq	(%r11), %r11
	movq	(%r10), %r10
	movq	(%r8), %r8
	movq	(%r15), %r15
	movq	(%r14), %r14
	movq	0(%r13), %r13
	movq	(%r12), %r12
	movq	(%rbx), %rbx
	movq	(%rax), %rax
	movq	(%rsi), %rsi
	movq	(%rcx), %rcx
	movq	(%rdi), %rdi
	movq	(%rdx), %rdx
	movq	(%r9), %r9
	movq	(%r11), %r11
	movq	(%r10), %r10
	movq	(%r8), %r8
	movq	(%r15), %r15
	movq	(%r14), %r14
	movq	0(%r13), %r13
	movq	(%r12), %r12
	movq	(%rbx), %rbx
	movq	(%rax), %rax
	movq	(%rsi), %rsi
	movq	(%rcx), %rcx
	movq	(%rdi), %rdi
	movq	(%rdx), %rdx
	movq	(%r9), %r9
	movq	(%r11), %r11
	movq	(%r10), %r10
	movq	(%r8), %r8
	movq	(%r15), %r15
	movq	(%r14), %r14
	movq	0(%r13), %r13
	movq	(%r12), %r12
	movq	(%rbx), %rbx
	movq	(%rax), %rax
	movq	%rax, -80(%rbp)
	movq	(%rsi), %rax
	movq	%rax, %rsi
	movq	(%rcx), %rax
	movq	%rax, -88(%rbp)
	movq	(%rdi), %rax
	movq	%rax, -96(%rbp)
	movq	(%rdx), %rax
	movq	%rax, -104(%rbp)
	movq	(%r9), %rax
	movq	%rax, %r9
	movq	(%r11), %rax
	movq	%rax, %r11
	movq	(%r10), %rax
	movq	%rax, -112(%rbp)
	movq	(%r8), %rax
	movq	%rax, -120(%rbp)
	movq	(%r15), %r15
	movq	(%r14), %r14
	movq	0(%r13), %r13
	movq	(%r12), %r12
	movq	(%rbx), %rbx
.L356:
	movq	-64(%rbp), %rdx
	leaq	-1(%rdx), %rax
	movq	%rax, -64(%rbp)
	testq	%rdx, %rdx
	jne	.L357
	movq	-80(%rbp), %rax
	movq	%rax, sp0.48(%rip)
	movq	%rsi, %rax
	movq	%rax, sp1.47(%rip)
	movq	-88(%rbp), %rax
	movq	%rax, sp2.46(%rip)
	movq	-96(%rbp), %rax
	movq	%rax, sp3.45(%rip)
	movq	-104(%rbp), %rax
	movq	%rax, sp4.44(%rip)
	movq	%r9, %rax
	movq	%rax, sp5.43(%rip)
	movq	%r11, %rax
	movq	%rax, sp6.42(%rip)
	movq	-112(%rbp), %rax
	movq	%rax, sp7.41(%rip)
	movq	-120(%rbp), %rax
	movq	%rax, sp8.40(%rip)
	movq	%r15, sp9.39(%rip)
	movq	%r14, sp10.38(%rip)
	movq	%r13, sp11.37(%rip)
	movq	%r12, sp12.36(%rip)
	movq	%rbx, sp13.35(%rip)
	movq	-48(%rbp), %rax
	movq	(%rax), %rax
	movq	%rax, addr_save.49(%rip)
	movl	$1, mem_benchmark_rerun(%rip)
	popq	%rbx
	popq	%r12
	popq	%r13
	popq	%r14
	popq	%r15
	popq	%rbp
	.cfi_def_cfa 7, 8
	ret
	.cfi_endproc
.LFE21:
	.size	mem_benchmark_13, .-mem_benchmark_13
	.globl	mem_benchmark_14
	.type	mem_benchmark_14, @function
mem_benchmark_14:
.LFB22:
	.cfi_startproc
	endbr64
	pushq	%rbp
	.cfi_def_cfa_offset 16
	.cfi_offset 6, -16
	movq	%rsp, %rbp
	.cfi_def_cfa_register 6
	pushq	%r15
	pushq	%r14
	pushq	%r13
	pushq	%r12
	pushq	%rbx
	.cfi_offset 15, -24
	.cfi_offset 14, -32
	.cfi_offset 13, -40
	.cfi_offset 12, -48
	.cfi_offset 3, -56
	movq	%rdi, -64(%rbp)
	movq	%rsi, -72(%rbp)
	movq	-72(%rbp), %rax
	movq	%rax, -48(%rbp)
	movl	mem_benchmark_rerun(%rip), %eax
	testl	%eax, %eax
	je	.L359
	movq	-48(%rbp), %rax
	movq	(%rax), %rdx
	movq	addr_save.34(%rip), %rax
	cmpq	%rax, %rdx
	je	.L360
.L359:
	movq	-48(%rbp), %rax
	movq	16(%rax), %rax
	jmp	.L361
.L360:
	movq	sp0.33(%rip), %rax
.L361:
	movq	%rax, -80(%rbp)
	movl	mem_benchmark_rerun(%rip), %eax
	testl	%eax, %eax
	je	.L362
	movq	-48(%rbp), %rax
	movq	(%rax), %rdx
	movq	addr_save.34(%rip), %rax
	cmpq	%rax, %rdx
	je	.L363
.L362:
	movq	-48(%rbp), %rax
	movq	24(%rax), %rax
	jmp	.L364
.L363:
	movq	sp1.32(%rip), %rax
.L364:
	movq	%rax, -96(%rbp)
	movl	mem_benchmark_rerun(%rip), %eax
	testl	%eax, %eax
	je	.L365
	movq	-48(%rbp), %rax
	movq	(%rax), %rdx
	movq	addr_save.34(%rip), %rax
	cmpq	%rax, %rdx
	je	.L366
.L365:
	movq	-48(%rbp), %rax
	movq	32(%rax), %rax
	jmp	.L367
.L366:
	movq	sp2.31(%rip), %rax
.L367:
	movq	%rax, -104(%rbp)
	movl	mem_benchmark_rerun(%rip), %eax
	testl	%eax, %eax
	je	.L368
	movq	-48(%rbp), %rax
	movq	(%rax), %rdx
	movq	addr_save.34(%rip), %rax
	cmpq	%rax, %rdx
	je	.L369
.L368:
	movq	-48(%rbp), %rax
	movq	40(%rax), %rax
	jmp	.L370
.L369:
	movq	sp3.30(%rip), %rax
.L370:
	movq	%rax, -112(%rbp)
	movl	mem_benchmark_rerun(%rip), %eax
	testl	%eax, %eax
	je	.L371
	movq	-48(%rbp), %rax
	movq	(%rax), %rdx
	movq	addr_save.34(%rip), %rax
	cmpq	%rax, %rdx
	je	.L372
.L371:
	movq	-48(%rbp), %rax
	movq	48(%rax), %rax
	jmp	.L373
.L372:
	movq	sp4.29(%rip), %rax
.L373:
	movq	%rax, -120(%rbp)
	movl	mem_benchmark_rerun(%rip), %eax
	testl	%eax, %eax
	je	.L374
	movq	-48(%rbp), %rax
	movq	(%rax), %rdx
	movq	addr_save.34(%rip), %rax
	cmpq	%rax, %rdx
	je	.L375
.L374:
	movq	-48(%rbp), %rax
	movq	56(%rax), %rax
	jmp	.L376
.L375:
	movq	sp5.28(%rip), %rax
.L376:
	movq	%rax, %r9
	movl	mem_benchmark_rerun(%rip), %eax
	testl	%eax, %eax
	je	.L377
	movq	-48(%rbp), %rax
	movq	(%rax), %rdx
	movq	addr_save.34(%rip), %rax
	cmpq	%rax, %rdx
	je	.L378
.L377:
	movq	-48(%rbp), %rax
	movq	64(%rax), %rax
	jmp	.L379
.L378:
	movq	sp6.27(%rip), %rax
.L379:
	movq	%rax, %r11
	movl	mem_benchmark_rerun(%rip), %eax
	testl	%eax, %eax
	je	.L380
	movq	-48(%rbp), %rax
	movq	(%rax), %rdx
	movq	addr_save.34(%rip), %rax
	cmpq	%rax, %rdx
	je	.L381
.L380:
	movq	-48(%rbp), %rax
	movq	72(%rax), %rax
	jmp	.L382
.L381:
	movq	sp7.26(%rip), %rax
.L382:
	movq	%rax, -128(%rbp)
	movl	mem_benchmark_rerun(%rip), %eax
	testl	%eax, %eax
	je	.L383
	movq	-48(%rbp), %rax
	movq	(%rax), %rdx
	movq	addr_save.34(%rip), %rax
	cmpq	%rax, %rdx
	je	.L384
.L383:
	movq	-48(%rbp), %rax
	movq	80(%rax), %rax
	jmp	.L385
.L384:
	movq	sp8.25(%rip), %rax
.L385:
	movq	%rax, -136(%rbp)
	movl	mem_benchmark_rerun(%rip), %eax
	testl	%eax, %eax
	je	.L386
	movq	-48(%rbp), %rax
	movq	(%rax), %rdx
	movq	addr_save.34(%rip), %rax
	cmpq	%rax, %rdx
	je	.L387
.L386:
	movq	-48(%rbp), %rax
	movq	88(%rax), %rax
	jmp	.L388
.L387:
	movq	sp9.24(%rip), %rax
.L388:
	movq	%rax, -88(%rbp)
	movl	mem_benchmark_rerun(%rip), %eax
	testl	%eax, %eax
	je	.L389
	movq	-48(%rbp), %rax
	movq	(%rax), %rdx
	movq	addr_save.34(%rip), %rax
	cmpq	%rax, %rdx
	je	.L390
.L389:
	movq	-48(%rbp), %rax
	movq	96(%rax), %rax
	jmp	.L391
.L390:
	movq	sp10.23(%rip), %rax
.L391:
	movq	%rax, %r15
	movl	mem_benchmark_rerun(%rip), %eax
