	.file	"par_ops.c"
	.text
	.globl	id
	.section	.rodata
.LC0:
	.string	"$Id$\n"
	.section	.data.rel.local,"aw"
	.align 8
	.type	id, @object
	.size	id, 8
id:
	.quad	.LC0
	.text
	.globl	max_parallelism
	.type	max_parallelism, @function
max_parallelism:
.LFB8:
	.cfi_startproc
	endbr64
	pushq	%rbp
	.cfi_def_cfa_offset 16
	.cfi_offset 6, -16
	movq	%rsp, %rbp
	.cfi_def_cfa_register 6
	pushq	%rbx
	subq	$72, %rsp
	.cfi_offset 3, -24
	movq	%rdi, -56(%rbp)
	movl	%esi, -60(%rbp)
	movl	%edx, -64(%rbp)
	movq	%rcx, -72(%rbp)
	movsd	.LC1(%rip), %xmm0
	movsd	%xmm0, -32(%rbp)
	movl	$0, -44(%rbp)
	jmp	.L2
.L16:
	movl	-44(%rbp), %eax
	cltq
	leaq	0(,%rax,8), %rdx
	movq	-56(%rbp), %rax
	addq	%rdx, %rax
	movq	(%rax), %rax
	movl	-60(%rbp), %ecx
	pushq	-72(%rbp)
	movl	-64(%rbp), %edx
	pushq	%rdx
	movl	%ecx, %r9d
	movl	$1, %r8d
	movl	$0, %ecx
	movl	$0, %edx
	movq	%rax, %rsi
	leaq	initialize(%rip), %rax
	movq	%rax, %rdi
	call	benchmp@PLT
	addq	$16, %rsp
	movl	$0, %eax
	call	save_minimum@PLT
	call	usecs_spent@PLT
	testq	%rax, %rax
	jne	.L3
	movsd	.LC2(%rip), %xmm0
	jmp	.L4
.L3:
	cmpl	$0, -44(%rbp)
	jne	.L5
	call	usecs_spent@PLT
	testq	%rax, %rax
	js	.L6
	pxor	%xmm2, %xmm2
	cvtsi2sdq	%rax, %xmm2
	movsd	%xmm2, -80(%rbp)
	jmp	.L7
.L6:
	movq	%rax, %rdx
	shrq	%rdx
	andl	$1, %eax
	orq	%rax, %rdx
	pxor	%xmm0, %xmm0
	cvtsi2sdq	%rdx, %xmm0
	addsd	%xmm0, %xmm0
	movsd	%xmm0, -80(%rbp)
.L7:
	call	get_n@PLT
	testq	%rax, %rax
	js	.L8
	pxor	%xmm0, %xmm0
	cvtsi2sdq	%rax, %xmm0
	jmp	.L9
.L8:
	movq	%rax, %rdx
	shrq	%rdx
	andl	$1, %eax
	orq	%rax, %rdx
	pxor	%xmm0, %xmm0
	cvtsi2sdq	%rdx, %xmm0
	addsd	%xmm0, %xmm0
.L9:
	movsd	-80(%rbp), %xmm1
	divsd	%xmm0, %xmm1
	movsd	%xmm1, -40(%rbp)
	jmp	.L10
.L5:
	movsd	-40(%rbp), %xmm0
	movsd	%xmm0, -24(%rbp)
	call	usecs_spent@PLT
	testq	%rax, %rax
	js	.L11
	pxor	%xmm0, %xmm0
	cvtsi2sdq	%rax, %xmm0
	jmp	.L12
.L11:
	movq	%rax, %rdx
	shrq	%rdx
	andl	$1, %eax
	orq	%rax, %rdx
	pxor	%xmm0, %xmm0
	cvtsi2sdq	%rdx, %xmm0
	addsd	%xmm0, %xmm0
.L12:
	movsd	-24(%rbp), %xmm1
	divsd	%xmm0, %xmm1
	movsd	%xmm1, -24(%rbp)
	movl	-44(%rbp), %eax
	addl	$1, %eax
	movslq	%eax, %rbx
	call	get_n@PLT
	imulq	%rbx, %rax
	testq	%rax, %rax
	js	.L13
	pxor	%xmm0, %xmm0
	cvtsi2sdq	%rax, %xmm0
	jmp	.L14
.L13:
	movq	%rax, %rdx
	shrq	%rdx
	andl	$1, %eax
	orq	%rax, %rdx
	pxor	%xmm0, %xmm0
	cvtsi2sdq	%rdx, %xmm0
	addsd	%xmm0, %xmm0
.L14:
	movsd	-24(%rbp), %xmm1
	mulsd	%xmm1, %xmm0
	movsd	%xmm0, -24(%rbp)
	movsd	-24(%rbp), %xmm0
	comisd	-32(%rbp), %xmm0
	jbe	.L10
	movsd	-24(%rbp), %xmm0
	movsd	%xmm0, -32(%rbp)
.L10:
	addl	$1, -44(%rbp)
.L2:
	cmpl	$15, -44(%rbp)
	jle	.L16
	movsd	-32(%rbp), %xmm0
.L4:
	movq	%xmm0, %rax
	movq	%rax, %xmm0
	movq	-8(%rbp), %rbx
	leave
	.cfi_def_cfa 7, 8
	ret
	.cfi_endproc
.LFE8:
	.size	max_parallelism, .-max_parallelism
	.globl	integer_bit_0
	.type	integer_bit_0, @function
integer_bit_0:
.LFB9:
	.cfi_startproc
	endbr64
	pushq	%rbp
	.cfi_def_cfa_offset 16
	.cfi_offset 6, -16
	movq	%rsp, %rbp
	.cfi_def_cfa_register 6
	pushq	%r13
	pushq	%r12
	pushq	%rbx
	subq	$40, %rsp
	.cfi_offset 13, -24
	.cfi_offset 12, -32
	.cfi_offset 3, -40
	movq	%rdi, -56(%rbp)
	movq	%rsi, -64(%rbp)
	movq	-56(%rbp), %r13
	movq	-64(%rbp), %rax
	movq	%rax, -40(%rbp)
	movq	-40(%rbp), %rax
	movl	12(%rax), %eax
	leal	1(%rax), %ebx
	leal	1(%rbx), %r12d
	jmp	.L19
.L20:
	xorl	%r12d, %ebx
	xorl	%ebx, %r12d
	orl	%r12d, %ebx
	xorl	%r12d, %ebx
	xorl	%ebx, %r12d
	orl	%r12d, %ebx
	xorl	%r12d, %ebx
	xorl	%ebx, %r12d
	orl	%r12d, %ebx
	xorl	%r12d, %ebx
	xorl	%ebx, %r12d
	orl	%r12d, %ebx
	xorl	%r12d, %ebx
	xorl	%ebx, %r12d
	orl	%r12d, %ebx
	xorl	%r12d, %ebx
	xorl	%ebx, %r12d
	orl	%r12d, %ebx
	xorl	%r12d, %ebx
	xorl	%ebx, %r12d
	orl	%r12d, %ebx
	xorl	%r12d, %ebx
	xorl	%ebx, %r12d
	orl	%r12d, %ebx
	xorl	%r12d, %ebx
	xorl	%ebx, %r12d
	orl	%r12d, %ebx
	xorl	%r12d, %ebx
	xorl	%ebx, %r12d
	orl	%r12d, %ebx
.L19:
	movq	%r13, %rax
	leaq	-1(%rax), %r13
	testq	%rax, %rax
	jne	.L20
	movl	%ebx, %edi
	call	use_int@PLT
	addq	$40, %rsp
	popq	%rbx
	popq	%r12
	popq	%r13
	popq	%rbp
	.cfi_def_cfa 7, 8
	ret
	.cfi_endproc
.LFE9:
	.size	integer_bit_0, .-integer_bit_0
	.globl	integer_bit_1
	.type	integer_bit_1, @function
integer_bit_1:
.LFB10:
	.cfi_startproc
	endbr64
	pushq	%rbp
	.cfi_def_cfa_offset 16
	.cfi_offset 6, -16
	movq	%rsp, %rbp
	.cfi_def_cfa_register 6
	pushq	%r15
	pushq	%r14
	pushq	%r13
	pushq	%r12
	pushq	%rbx
	subq	$40, %rsp
	.cfi_offset 15, -24
	.cfi_offset 14, -32
	.cfi_offset 13, -40
	.cfi_offset 12, -48
	.cfi_offset 3, -56
	movq	%rdi, -72(%rbp)
	movq	%rsi, -80(%rbp)
	movq	-72(%rbp), %r15
	movq	-80(%rbp), %rax
	movq	%rax, -56(%rbp)
	movq	-56(%rbp), %rax
	movl	12(%rax), %eax
	leal	1(%rax), %r12d
	leal	1(%r12), %r13d
	movq	-56(%rbp), %rax
	movl	16(%rax), %eax
	leal	1(%rax), %ebx
	leal	2(%rbx), %r14d
	jmp	.L22
.L23:
	xorl	%r13d, %r12d
	xorl	%r12d, %r13d
	orl	%r13d, %r12d
	xorl	%r14d, %ebx
	xorl	%ebx, %r14d
	orl	%r14d, %ebx
	xorl	%r13d, %r12d
	xorl	%r12d, %r13d
	orl	%r13d, %r12d
	xorl	%r14d, %ebx
	xorl	%ebx, %r14d
	orl	%r14d, %ebx
	xorl	%r13d, %r12d
	xorl	%r12d, %r13d
	orl	%r13d, %r12d
	xorl	%r14d, %ebx
	xorl	%ebx, %r14d
	orl	%r14d, %ebx
	xorl	%r13d, %r12d
	xorl	%r12d, %r13d
	orl	%r13d, %r12d
	xorl	%r14d, %ebx
	xorl	%ebx, %r14d
	orl	%r14d, %ebx
	xorl	%r13d, %r12d
	xorl	%r12d, %r13d
	orl	%r13d, %r12d
	xorl	%r14d, %ebx
	xorl	%ebx, %r14d
	orl	%r14d, %ebx
	xorl	%r13d, %r12d
	xorl	%r12d, %r13d
	orl	%r13d, %r12d
	xorl	%r14d, %ebx
	xorl	%ebx, %r14d
	orl	%r14d, %ebx
	xorl	%r13d, %r12d
	xorl	%r12d, %r13d
	orl	%r13d, %r12d
	xorl	%r14d, %ebx
	xorl	%ebx, %r14d
	orl	%r14d, %ebx
	xorl	%r13d, %r12d
	xorl	%r12d, %r13d
	orl	%r13d, %r12d
	xorl	%r14d, %ebx
	xorl	%ebx, %r14d
	orl	%r14d, %ebx
	xorl	%r13d, %r12d
	xorl	%r12d, %r13d
	orl	%r13d, %r12d
	xorl	%r14d, %ebx
	xorl	%ebx, %r14d
	orl	%r14d, %ebx
	xorl	%r13d, %r12d
	xorl	%r12d, %r13d
	orl	%r13d, %r12d
	xorl	%r14d, %ebx
	xorl	%ebx, %r14d
	orl	%r14d, %ebx
.L22:
	movq	%r15, %rax
	leaq	-1(%rax), %r15
	testq	%rax, %rax
	jne	.L23
	movl	%r12d, %edi
	call	use_int@PLT
	movl	%ebx, %edi
	call	use_int@PLT
	addq	$40, %rsp
	popq	%rbx
	popq	%r12
	popq	%r13
	popq	%r14
	popq	%r15
	popq	%rbp
	.cfi_def_cfa 7, 8
	ret
	.cfi_endproc
.LFE10:
	.size	integer_bit_1, .-integer_bit_1
	.globl	integer_bit_2
	.type	integer_bit_2, @function
integer_bit_2:
.LFB11:
	.cfi_startproc
	endbr64
	pushq	%rbp
	.cfi_def_cfa_offset 16
	.cfi_offset 6, -16
	movq	%rsp, %rbp
	.cfi_def_cfa_register 6
	pushq	%r15
	pushq	%r14
	pushq	%r13
	pushq	%r12
	pushq	%rbx
	subq	$40, %rsp
	.cfi_offset 15, -24
	.cfi_offset 14, -32
	.cfi_offset 13, -40
	.cfi_offset 12, -48
	.cfi_offset 3, -56
	movq	%rdi, -72(%rbp)
	movq	%rsi, -80(%rbp)
	movq	-72(%rbp), %rax
	movq	%rax, %rcx
	movq	-80(%rbp), %rax
	movq	%rax, -56(%rbp)
	movq	-56(%rbp), %rax
	movl	12(%rax), %eax
	leal	1(%rax), %r13d
	leal	1(%r13), %r14d
	movq	-56(%rbp), %rax
	movl	16(%rax), %eax
	leal	1(%rax), %r12d
	leal	2(%r12), %r15d
	movq	-56(%rbp), %rax
	movl	20(%rax), %eax
	leal	1(%rax), %ebx
	leal	3(%rbx), %eax
	movl	%eax, %esi
	jmp	.L25
.L26:
	xorl	%r14d, %r13d
	xorl	%r13d, %r14d
	orl	%r14d, %r13d
	xorl	%r15d, %r12d
	xorl	%r12d, %r15d
	orl	%r15d, %r12d
	movl	%esi, %eax
	xorl	%eax, %ebx
	xorl	%ebx, %eax
	orl	%eax, %ebx
	xorl	%r14d, %r13d
	xorl	%r13d, %r14d
	orl	%r14d, %r13d
	xorl	%r15d, %r12d
	xorl	%r12d, %r15d
	orl	%r15d, %r12d
	xorl	%eax, %ebx
	xorl	%ebx, %eax
	orl	%eax, %ebx
	xorl	%r14d, %r13d
	xorl	%r13d, %r14d
	orl	%r14d, %r13d
	xorl	%r15d, %r12d
	xorl	%r12d, %r15d
	orl	%r15d, %r12d
	xorl	%eax, %ebx
	xorl	%ebx, %eax
	orl	%eax, %ebx
	xorl	%r14d, %r13d
	xorl	%r13d, %r14d
	orl	%r14d, %r13d
	xorl	%r15d, %r12d
	xorl	%r12d, %r15d
	orl	%r15d, %r12d
	xorl	%eax, %ebx
	xorl	%ebx, %eax
	orl	%eax, %ebx
	xorl	%r14d, %r13d
	xorl	%r13d, %r14d
	orl	%r14d, %r13d
	xorl	%r15d, %r12d
	xorl	%r12d, %r15d
	orl	%r15d, %r12d
	xorl	%eax, %ebx
	xorl	%ebx, %eax
	orl	%eax, %ebx
	xorl	%r14d, %r13d
	xorl	%r13d, %r14d
	orl	%r14d, %r13d
	xorl	%r15d, %r12d
	xorl	%r12d, %r15d
	orl	%r15d, %r12d
	xorl	%eax, %ebx
	xorl	%ebx, %eax
	orl	%eax, %ebx
	xorl	%r14d, %r13d
	xorl	%r13d, %r14d
	orl	%r14d, %r13d
	xorl	%r15d, %r12d
	xorl	%r12d, %r15d
	orl	%r15d, %r12d
	xorl	%eax, %ebx
	xorl	%ebx, %eax
	orl	%eax, %ebx
	xorl	%r14d, %r13d
	xorl	%r13d, %r14d
	orl	%r14d, %r13d
	xorl	%r15d, %r12d
	xorl	%r12d, %r15d
	orl	%r15d, %r12d
	xorl	%eax, %ebx
	xorl	%ebx, %eax
	orl	%eax, %ebx
	xorl	%r14d, %r13d
	xorl	%r13d, %r14d
	orl	%r14d, %r13d
	xorl	%r15d, %r12d
	xorl	%r12d, %r15d
	orl	%r15d, %r12d
	xorl	%eax, %ebx
	xorl	%ebx, %eax
	orl	%eax, %ebx
	xorl	%r14d, %r13d
	xorl	%r13d, %r14d
	orl	%r14d, %r13d
	xorl	%r15d, %r12d
	xorl	%r12d, %r15d
	orl	%r15d, %r12d
	xorl	%eax, %ebx
	xorl	%ebx, %eax
	movl	%eax, %esi
	orl	%eax, %ebx
.L25:
	movq	%rcx, %rax
	leaq	-1(%rax), %rdx
	movq	%rdx, %rcx
	testq	%rax, %rax
	jne	.L26
	movl	%r13d, %edi
	call	use_int@PLT
	movl	%r12d, %edi
	call	use_int@PLT
	movl	%ebx, %edi
	call	use_int@PLT
	addq	$40, %rsp
	popq	%rbx
	popq	%r12
	popq	%r13
	popq	%r14
	popq	%r15
	popq	%rbp
	.cfi_def_cfa 7, 8
	ret
	.cfi_endproc
.LFE11:
	.size	integer_bit_2, .-integer_bit_2
	.globl	integer_bit_3
	.type	integer_bit_3, @function
integer_bit_3:
.LFB12:
	.cfi_startproc
	endbr64
	pushq	%rbp
	.cfi_def_cfa_offset 16
	.cfi_offset 6, -16
	movq	%rsp, %rbp
	.cfi_def_cfa_register 6
	pushq	%r15
	pushq	%r14
	pushq	%r13
	pushq	%r12
	pushq	%rbx
	subq	$40, %rsp
	.cfi_offset 15, -24
	.cfi_offset 14, -32
	.cfi_offset 13, -40
	.cfi_offset 12, -48
	.cfi_offset 3, -56
	movq	%rdi, -72(%rbp)
	movq	%rsi, -80(%rbp)
	movq	-72(%rbp), %rax
	movq	%rax, %rsi
	movq	-80(%rbp), %rax
	movq	%rax, -56(%rbp)
	movq	-56(%rbp), %rax
	movl	12(%rax), %eax
	leal	1(%rax), %r14d
	leal	1(%r14), %r15d
	movq	-56(%rbp), %rax
	movl	16(%rax), %eax
	leal	1(%rax), %r13d
	leal	2(%r13), %eax
	movl	%eax, %edi
	movq	-56(%rbp), %rax
	movl	20(%rax), %eax
	leal	1(%rax), %r12d
	leal	3(%r12), %eax
	movl	%eax, %edx
	movq	-56(%rbp), %rax
	movl	24(%rax), %eax
	leal	1(%rax), %ebx
	leal	4(%rbx), %eax
	movl	%eax, %ecx
	jmp	.L28
.L29:
	xorl	%r15d, %r14d
	xorl	%r14d, %r15d
	orl	%r15d, %r14d
	movl	%edi, %eax
	xorl	%eax, %r13d
	xorl	%r13d, %eax
	orl	%eax, %r13d
	xorl	%edx, %r12d
	xorl	%r12d, %edx
	orl	%edx, %r12d
	xorl	%ecx, %ebx
	xorl	%ebx, %ecx
	orl	%ecx, %ebx
	xorl	%r15d, %r14d
	xorl	%r14d, %r15d
	orl	%r15d, %r14d
	xorl	%eax, %r13d
	xorl	%r13d, %eax
	orl	%eax, %r13d
	xorl	%edx, %r12d
	xorl	%r12d, %edx
	orl	%edx, %r12d
	xorl	%ecx, %ebx
	xorl	%ebx, %ecx
	orl	%ecx, %ebx
	xorl	%r15d, %r14d
	xorl	%r14d, %r15d
	orl	%r15d, %r14d
	xorl	%eax, %r13d
	xorl	%r13d, %eax
	orl	%eax, %r13d
	xorl	%edx, %r12d
	xorl	%r12d, %edx
	orl	%edx, %r12d
	xorl	%ecx, %ebx
	xorl	%ebx, %ecx
	orl	%ecx, %ebx
	xorl	%r15d, %r14d
	xorl	%r14d, %r15d
	orl	%r15d, %r14d
	xorl	%eax, %r13d
	xorl	%r13d, %eax
	orl	%eax, %r13d
	xorl	%edx, %r12d
	xorl	%r12d, %edx
	orl	%edx, %r12d
	xorl	%ecx, %ebx
	xorl	%ebx, %ecx
	orl	%ecx, %ebx
	xorl	%r15d, %r14d
	xorl	%r14d, %r15d
	orl	%r15d, %r14d
	xorl	%eax, %r13d
	xorl	%r13d, %eax
	orl	%eax, %r13d
	xorl	%edx, %r12d
	xorl	%r12d, %edx
	orl	%edx, %r12d
	xorl	%ecx, %ebx
	xorl	%ebx, %ecx
	orl	%ecx, %ebx
	xorl	%r15d, %r14d
	xorl	%r14d, %r15d
	orl	%r15d, %r14d
	xorl	%eax, %r13d
	xorl	%r13d, %eax
	orl	%eax, %r13d
	xorl	%edx, %r12d
	xorl	%r12d, %edx
	orl	%edx, %r12d
	xorl	%ecx, %ebx
	xorl	%ebx, %ecx
	orl	%ecx, %ebx
	xorl	%r15d, %r14d
	xorl	%r14d, %r15d
	orl	%r15d, %r14d
	xorl	%eax, %r13d
	xorl	%r13d, %eax
	orl	%eax, %r13d
	xorl	%edx, %r12d
	xorl	%r12d, %edx
	orl	%edx, %r12d
	xorl	%ecx, %ebx
	xorl	%ebx, %ecx
	orl	%ecx, %ebx
	xorl	%r15d, %r14d
	xorl	%r14d, %r15d
	orl	%r15d, %r14d
	xorl	%eax, %r13d
	xorl	%r13d, %eax
	orl	%eax, %r13d
	xorl	%edx, %r12d
	xorl	%r12d, %edx
	orl	%edx, %r12d
	xorl	%ecx, %ebx
	xorl	%ebx, %ecx
	orl	%ecx, %ebx
	xorl	%r15d, %r14d
	xorl	%r14d, %r15d
	orl	%r15d, %r14d
	xorl	%eax, %r13d
	xorl	%r13d, %eax
	orl	%eax, %r13d
	xorl	%edx, %r12d
	xorl	%r12d, %edx
	orl	%edx, %r12d
	xorl	%ecx, %ebx
	xorl	%ebx, %ecx
	orl	%ecx, %ebx
	xorl	%r15d, %r14d
	xorl	%r14d, %r15d
	orl	%r15d, %r14d
	xorl	%eax, %r13d
	xorl	%r13d, %eax
	movl	%eax, %edi
	orl	%eax, %r13d
	xorl	%edx, %r12d
	xorl	%r12d, %edx
	orl	%edx, %r12d
	xorl	%ecx, %ebx
	xorl	%ebx, %ecx
	orl	%ecx, %ebx
.L28:
	movq	%rsi, %rax
	leaq	-1(%rax), %rsi
	testq	%rax, %rax
	jne	.L29
	movl	%r14d, %edi
	call	use_int@PLT
	movl	%r13d, %edi
	call	use_int@PLT
	movl	%r12d, %edi
	call	use_int@PLT
	movl	%ebx, %edi
	call	use_int@PLT
	addq	$40, %rsp
	popq	%rbx
	popq	%r12
	popq	%r13
	popq	%r14
	popq	%r15
	popq	%rbp
	.cfi_def_cfa 7, 8
	ret
	.cfi_endproc
.LFE12:
	.size	integer_bit_3, .-integer_bit_3
	.globl	integer_bit_4
	.type	integer_bit_4, @function
integer_bit_4:
.LFB13:
	.cfi_startproc
	endbr64
	pushq	%rbp
	.cfi_def_cfa_offset 16
	.cfi_offset 6, -16
	movq	%rsp, %rbp
	.cfi_def_cfa_register 6
	pushq	%r15
	pushq	%r14
	pushq	%r13
	pushq	%r12
	pushq	%rbx
	subq	$40, %rsp
	.cfi_offset 15, -24
	.cfi_offset 14, -32
	.cfi_offset 13, -40
	.cfi_offset 12, -48
	.cfi_offset 3, -56
	movq	%rdi, -72(%rbp)
	movq	%rsi, -80(%rbp)
	movq	-72(%rbp), %rax
	movq	%rax, %r8
	movq	-80(%rbp), %rax
	movq	%rax, -56(%rbp)
	movq	-56(%rbp), %rax
	movl	12(%rax), %eax
	leal	1(%rax), %r15d
	leal	1(%r15), %eax
	movl	%eax, %r9d
	movq	-56(%rbp), %rax
	movl	16(%rax), %eax
	leal	1(%rax), %r14d
	leal	2(%r14), %eax
	movl	%eax, %r10d
	movq	-56(%rbp), %rax
	movl	20(%rax), %eax
	leal	1(%rax), %r13d
	leal	3(%r13), %eax
	movl	%eax, %ecx
	movq	-56(%rbp), %rax
	movl	24(%rax), %eax
	leal	1(%rax), %r12d
	leal	4(%r12), %eax
	movl	%eax, %esi
	movq	-56(%rbp), %rax
	movl	28(%rax), %eax
	leal	1(%rax), %ebx
	leal	5(%rbx), %eax
	movl	%eax, %edi
	jmp	.L31
.L32:
	movl	%r9d, %eax
	xorl	%eax, %r15d
	xorl	%r15d, %eax
	orl	%eax, %r15d
	movl	%r10d, %edx
	xorl	%edx, %r14d
	xorl	%r14d, %edx
	orl	%edx, %r14d
	xorl	%ecx, %r13d
	xorl	%r13d, %ecx
	orl	%ecx, %r13d
	xorl	%esi, %r12d
	xorl	%r12d, %esi
	orl	%esi, %r12d
	xorl	%edi, %ebx
	xorl	%ebx, %edi
	orl	%edi, %ebx
	xorl	%eax, %r15d
	xorl	%r15d, %eax
	orl	%eax, %r15d
	xorl	%edx, %r14d
	xorl	%r14d, %edx
	orl	%edx, %r14d
	xorl	%ecx, %r13d
	xorl	%r13d, %ecx
	orl	%ecx, %r13d
	xorl	%esi, %r12d
	xorl	%r12d, %esi
	orl	%esi, %r12d
	xorl	%edi, %ebx
	xorl	%ebx, %edi
	orl	%edi, %ebx
	xorl	%eax, %r15d
	xorl	%r15d, %eax
	orl	%eax, %r15d
	xorl	%edx, %r14d
	xorl	%r14d, %edx
	orl	%edx, %r14d
	xorl	%ecx, %r13d
	xorl	%r13d, %ecx
	orl	%ecx, %r13d
	xorl	%esi, %r12d
	xorl	%r12d, %esi
	orl	%esi, %r12d
	xorl	%edi, %ebx
	xorl	%ebx, %edi
	orl	%edi, %ebx
	xorl	%eax, %r15d
	xorl	%r15d, %eax
	orl	%eax, %r15d
	xorl	%edx, %r14d
	xorl	%r14d, %edx
	orl	%edx, %r14d
	xorl	%ecx, %r13d
	xorl	%r13d, %ecx
	orl	%ecx, %r13d
	xorl	%esi, %r12d
	xorl	%r12d, %esi
	orl	%esi, %r12d
	xorl	%edi, %ebx
	xorl	%ebx, %edi
	orl	%edi, %ebx
	xorl	%eax, %r15d
	xorl	%r15d, %eax
	orl	%eax, %r15d
	xorl	%edx, %r14d
	xorl	%r14d, %edx
	orl	%edx, %r14d
	xorl	%ecx, %r13d
	xorl	%r13d, %ecx
	orl	%ecx, %r13d
	xorl	%esi, %r12d
	xorl	%r12d, %esi
	orl	%esi, %r12d
	xorl	%edi, %ebx
	xorl	%ebx, %edi
	orl	%edi, %ebx
	xorl	%eax, %r15d
	xorl	%r15d, %eax
	orl	%eax, %r15d
	xorl	%edx, %r14d
	xorl	%r14d, %edx
	orl	%edx, %r14d
	xorl	%ecx, %r13d
	xorl	%r13d, %ecx
	orl	%ecx, %r13d
	xorl	%esi, %r12d
	xorl	%r12d, %esi
	orl	%esi, %r12d
	xorl	%edi, %ebx
	xorl	%ebx, %edi
	orl	%edi, %ebx
	xorl	%eax, %r15d
	xorl	%r15d, %eax
	orl	%eax, %r15d
	xorl	%edx, %r14d
	xorl	%r14d, %edx
	orl	%edx, %r14d
	xorl	%ecx, %r13d
	xorl	%r13d, %ecx
	orl	%ecx, %r13d
	xorl	%esi, %r12d
	xorl	%r12d, %esi
	orl	%esi, %r12d
	xorl	%edi, %ebx
	xorl	%ebx, %edi
	orl	%edi, %ebx
	xorl	%eax, %r15d
	xorl	%r15d, %eax
	orl	%eax, %r15d
	xorl	%edx, %r14d
	xorl	%r14d, %edx
	orl	%edx, %r14d
	xorl	%ecx, %r13d
	xorl	%r13d, %ecx
	orl	%ecx, %r13d
	xorl	%esi, %r12d
	xorl	%r12d, %esi
	orl	%esi, %r12d
	xorl	%edi, %ebx
	xorl	%ebx, %edi
	orl	%edi, %ebx
	xorl	%eax, %r15d
	xorl	%r15d, %eax
	orl	%eax, %r15d
	xorl	%edx, %r14d
	xorl	%r14d, %edx
	orl	%edx, %r14d
	xorl	%ecx, %r13d
	xorl	%r13d, %ecx
	orl	%ecx, %r13d
	xorl	%esi, %r12d
	xorl	%r12d, %esi
	orl	%esi, %r12d
	xorl	%edi, %ebx
	xorl	%ebx, %edi
	orl	%edi, %ebx
	xorl	%eax, %r15d
	xorl	%r15d, %eax
	movl	%eax, %r9d
	orl	%eax, %r15d
	xorl	%edx, %r14d
	xorl	%r14d, %edx
	movl	%edx, %r10d
	orl	%edx, %r14d
	xorl	%ecx, %r13d
	xorl	%r13d, %ecx
	orl	%ecx, %r13d
	xorl	%esi, %r12d
	xorl	%r12d, %esi
	orl	%esi, %r12d
	xorl	%edi, %ebx
	xorl	%ebx, %edi
	orl	%edi, %ebx
.L31:
	movq	%r8, %rax
	leaq	-1(%rax), %rdx
	movq	%rdx, %r8
	testq	%rax, %rax
	jne	.L32
	movl	%r15d, %edi
	call	use_int@PLT
	movl	%r14d, %edi
	call	use_int@PLT
	movl	%r13d, %edi
	call	use_int@PLT
	movl	%r12d, %edi
	call	use_int@PLT
	movl	%ebx, %edi
	call	use_int@PLT
	addq	$40, %rsp
	popq	%rbx
	popq	%r12
	popq	%r13
	popq	%r14
	popq	%r15
	popq	%rbp
	.cfi_def_cfa 7, 8
	ret
	.cfi_endproc
.LFE13:
	.size	integer_bit_4, .-integer_bit_4
	.globl	integer_bit_5
	.type	integer_bit_5, @function
integer_bit_5:
.LFB14:
	.cfi_startproc
	endbr64
	pushq	%rbp
	.cfi_def_cfa_offset 16
	.cfi_offset 6, -16
	movq	%rsp, %rbp
	.cfi_def_cfa_register 6
	pushq	%r15
	pushq	%r14
	pushq	%r13
	pushq	%r12
	pushq	%rbx
	subq	$56, %rsp
	.cfi_offset 15, -24
	.cfi_offset 14, -32
	.cfi_offset 13, -40
	.cfi_offset 12, -48
	.cfi_offset 3, -56
	movq	%rdi, -72(%rbp)
	movq	%rsi, -80(%rbp)
	movq	-72(%rbp), %rax
	movq	%rax, %r10
	movq	-80(%rbp), %rax
	movq	%rax, -56(%rbp)
	movq	-56(%rbp), %rax
	movl	12(%rax), %eax
	addl	$1, %eax
	movl	%eax, %edx
	addl	$1, %eax
	movl	%eax, %r11d
	movq	-56(%rbp), %rax
	movl	16(%rax), %eax
	leal	1(%rax), %r15d
	leal	2(%r15), %eax
	movl	%eax, -84(%rbp)
	movq	-56(%rbp), %rax
	movl	20(%rax), %eax
	leal	1(%rax), %r14d
	leal	3(%r14), %eax
	movl	%eax, %esi
	movq	-56(%rbp), %rax
	movl	24(%rax), %eax
	leal	1(%rax), %r13d
	leal	4(%r13), %eax
	movl	%eax, %edi
	movq	-56(%rbp), %rax
	movl	28(%rax), %eax
	leal	1(%rax), %r12d
	leal	5(%r12), %eax
	movl	%eax, %r8d
	movq	-56(%rbp), %rax
	movl	32(%rax), %eax
	leal	1(%rax), %ebx
	leal	6(%rbx), %eax
	movl	%eax, %r9d
	jmp	.L34
.L35:
	movl	%edx, %eax
	movl	%r11d, %edx
	xorl	%edx, %eax
	xorl	%eax, %edx
	orl	%edx, %eax
	movl	-84(%rbp), %ecx
	xorl	%ecx, %r15d
	xorl	%r15d, %ecx
	orl	%ecx, %r15d
	xorl	%esi, %r14d
	xorl	%r14d, %esi
	orl	%esi, %r14d
	xorl	%edi, %r13d
	xorl	%r13d, %edi
	orl	%edi, %r13d
	xorl	%r8d, %r12d
	xorl	%r12d, %r8d
	orl	%r8d, %r12d
	xorl	%r9d, %ebx
	xorl	%ebx, %r9d
	orl	%r9d, %ebx
	xorl	%edx, %eax
	xorl	%eax, %edx
	orl	%edx, %eax
	xorl	%ecx, %r15d
	xorl	%r15d, %ecx
	orl	%ecx, %r15d
	xorl	%esi, %r14d
	xorl	%r14d, %esi
	orl	%esi, %r14d
	xorl	%edi, %r13d
	xorl	%r13d, %edi
	orl	%edi, %r13d
	xorl	%r8d, %r12d
	xorl	%r12d, %r8d
	orl	%r8d, %r12d
	xorl	%r9d, %ebx
	xorl	%ebx, %r9d
	orl	%r9d, %ebx
	xorl	%edx, %eax
	xorl	%eax, %edx
	orl	%edx, %eax
	xorl	%ecx, %r15d
	xorl	%r15d, %ecx
	orl	%ecx, %r15d
	xorl	%esi, %r14d
	xorl	%r14d, %esi
	orl	%esi, %r14d
	xorl	%edi, %r13d
	xorl	%r13d, %edi
	orl	%edi, %r13d
	xorl	%r8d, %r12d
	xorl	%r12d, %r8d
	orl	%r8d, %r12d
	xorl	%r9d, %ebx
	xorl	%ebx, %r9d
	orl	%r9d, %ebx
	xorl	%edx, %eax
	xorl	%eax, %edx
	orl	%edx, %eax
	xorl	%ecx, %r15d
	xorl	%r15d, %ecx
	orl	%ecx, %r15d
	xorl	%esi, %r14d
	xorl	%r14d, %esi
	orl	%esi, %r14d
	xorl	%edi, %r13d
	xorl	%r13d, %edi
	orl	%edi, %r13d
	xorl	%r8d, %r12d
	xorl	%r12d, %r8d
	orl	%r8d, %r12d
	xorl	%r9d, %ebx
	xorl	%ebx, %r9d
	orl	%r9d, %ebx
	xorl	%edx, %eax
	xorl	%eax, %edx
	orl	%edx, %eax
	xorl	%ecx, %r15d
	xorl	%r15d, %ecx
	orl	%ecx, %r15d
	xorl	%esi, %r14d
	xorl	%r14d, %esi
	orl	%esi, %r14d
	xorl	%edi, %r13d
	xorl	%r13d, %edi
	orl	%edi, %r13d
	xorl	%r8d, %r12d
	xorl	%r12d, %r8d
	orl	%r8d, %r12d
	xorl	%r9d, %ebx
	xorl	%ebx, %r9d
	orl	%r9d, %ebx
	xorl	%edx, %eax
	xorl	%eax, %edx
	orl	%edx, %eax
	xorl	%ecx, %r15d
	xorl	%r15d, %ecx
	orl	%ecx, %r15d
	xorl	%esi, %r14d
	xorl	%r14d, %esi
	orl	%esi, %r14d
	xorl	%edi, %r13d
	xorl	%r13d, %edi
	orl	%edi, %r13d
	xorl	%r8d, %r12d
	xorl	%r12d, %r8d
	orl	%r8d, %r12d
	xorl	%r9d, %ebx
	xorl	%ebx, %r9d
	orl	%r9d, %ebx
	xorl	%edx, %eax
	xorl	%eax, %edx
	orl	%edx, %eax
	xorl	%ecx, %r15d
	xorl	%r15d, %ecx
	orl	%ecx, %r15d
	xorl	%esi, %r14d
	xorl	%r14d, %esi
	orl	%esi, %r14d
	xorl	%edi, %r13d
	xorl	%r13d, %edi
	orl	%edi, %r13d
	xorl	%r8d, %r12d
	xorl	%r12d, %r8d
	orl	%r8d, %r12d
	xorl	%r9d, %ebx
	xorl	%ebx, %r9d
	orl	%r9d, %ebx
	xorl	%edx, %eax
	xorl	%eax, %edx
	orl	%edx, %eax
	xorl	%ecx, %r15d
	xorl	%r15d, %ecx
	orl	%ecx, %r15d
	xorl	%esi, %r14d
	xorl	%r14d, %esi
	orl	%esi, %r14d
	xorl	%edi, %r13d
	xorl	%r13d, %edi
	orl	%edi, %r13d
	xorl	%r8d, %r12d
	xorl	%r12d, %r8d
	orl	%r8d, %r12d
	xorl	%r9d, %ebx
	xorl	%ebx, %r9d
	orl	%r9d, %ebx
	xorl	%edx, %eax
	xorl	%eax, %edx
	orl	%edx, %eax
	xorl	%ecx, %r15d
	xorl	%r15d, %ecx
	orl	%ecx, %r15d
	xorl	%esi, %r14d
	xorl	%r14d, %esi
	orl	%esi, %r14d
	xorl	%edi, %r13d
	xorl	%r13d, %edi
	orl	%edi, %r13d
	xorl	%r8d, %r12d
	xorl	%r12d, %r8d
	orl	%r8d, %r12d
	xorl	%r9d, %ebx
	xorl	%ebx, %r9d
	orl	%r9d, %ebx
	xorl	%edx, %eax
	xorl	%eax, %edx
	movl	%edx, %r11d
	orl	%edx, %eax
	movl	%eax, %edx
	xorl	%ecx, %r15d
	xorl	%r15d, %ecx
	movl	%ecx, -84(%rbp)
	orl	%ecx, %r15d
	xorl	%esi, %r14d
	xorl	%r14d, %esi
	orl	%esi, %r14d
	xorl	%edi, %r13d
	xorl	%r13d, %edi
	orl	%edi, %r13d
	xorl	%r8d, %r12d
	xorl	%r12d, %r8d
	orl	%r8d, %r12d
	xorl	%r9d, %ebx
	xorl	%ebx, %r9d
	orl	%r9d, %ebx
.L34:
	movq	%r10, %rax
	leaq	-1(%rax), %rcx
	movq	%rcx, %r10
	testq	%rax, %rax
	jne	.L35
	movl	%edx, %edi
	call	use_int@PLT
	movl	%r15d, %edi
	call	use_int@PLT
	movl	%r14d, %edi
	call	use_int@PLT
	movl	%r13d, %edi
	call	use_int@PLT
	movl	%r12d, %edi
	call	use_int@PLT
	movl	%ebx, %edi
	call	use_int@PLT
	addq	$56, %rsp
	popq	%rbx
	popq	%r12
	popq	%r13
	popq	%r14
	popq	%r15
	popq	%rbp
	.cfi_def_cfa 7, 8
	ret
	.cfi_endproc
.LFE14:
	.size	integer_bit_5, .-integer_bit_5
	.globl	integer_bit_6
	.type	integer_bit_6, @function
integer_bit_6:
.LFB15:
	.cfi_startproc
	endbr64
	pushq	%rbp
	.cfi_def_cfa_offset 16
	.cfi_offset 6, -16
	movq	%rsp, %rbp
	.cfi_def_cfa_register 6
	pushq	%r15
	pushq	%r14
	pushq	%r13
	pushq	%r12
	pushq	%rbx
	subq	$72, %rsp
	.cfi_offset 15, -24
	.cfi_offset 14, -32
	.cfi_offset 13, -40
	.cfi_offset 12, -48
	.cfi_offset 3, -56
	movq	%rdi, -72(%rbp)
	movq	%rsi, -80(%rbp)
	movq	-72(%rbp), %rax
	movq	%rax, -96(%rbp)
	movq	-80(%rbp), %rax
	movq	%rax, -56(%rbp)
	movq	-56(%rbp), %rax
	movl	12(%rax), %eax
	addl	$1, %eax
	movl	%eax, %edx
	addl	$1, %eax
	movl	%eax, -88(%rbp)
	movq	-56(%rbp), %rax
	movl	16(%rax), %eax
	addl	$1, %eax
	movl	%eax, -84(%rbp)
	addl	$2, %eax
	movl	%eax, %esi
	movq	-56(%rbp), %rax
	movl	20(%rax), %eax
	leal	1(%rax), %r15d
	leal	3(%r15), %eax
	movl	%eax, -100(%rbp)
	movq	-56(%rbp), %rax
	movl	24(%rax), %eax
	leal	1(%rax), %r14d
	leal	4(%r14), %eax
	movl	%eax, %r8d
	movq	-56(%rbp), %rax
	movl	28(%rax), %eax
	leal	1(%rax), %r13d
	leal	5(%r13), %eax
	movl	%eax, %r9d
	movq	-56(%rbp), %rax
	movl	32(%rax), %eax
	leal	1(%rax), %r12d
	leal	6(%r12), %eax
	movl	%eax, %r10d
	movq	-56(%rbp), %rax
	movl	36(%rax), %eax
	leal	1(%rax), %ebx
	leal	7(%rbx), %eax
	movl	%eax, %r11d
	jmp	.L37
.L38:
	movl	%edx, %eax
	movl	-88(%rbp), %edx
	xorl	%edx, %eax
	xorl	%eax, %edx
	orl	%edx, %eax
	xorl	%esi, -84(%rbp)
	movl	-84(%rbp), %ecx
	xorl	%ecx, %esi
	orl	%esi, %ecx
	movl	-100(%rbp), %edi
	xorl	%edi, %r15d
	xorl	%r15d, %edi
	orl	%edi, %r15d
	xorl	%r8d, %r14d
	xorl	%r14d, %r8d
	orl	%r8d, %r14d
	xorl	%r9d, %r13d
	xorl	%r13d, %r9d
	orl	%r9d, %r13d
	xorl	%r10d, %r12d
	xorl	%r12d, %r10d
	orl	%r10d, %r12d
	xorl	%r11d, %ebx
	xorl	%ebx, %r11d
	orl	%r11d, %ebx
	xorl	%edx, %eax
	xorl	%eax, %edx
	orl	%edx, %eax
	xorl	%esi, %ecx
	xorl	%ecx, %esi
	orl	%esi, %ecx
	xorl	%edi, %r15d
	xorl	%r15d, %edi
	orl	%edi, %r15d
	xorl	%r8d, %r14d
	xorl	%r14d, %r8d
	orl	%r8d, %r14d
	xorl	%r9d, %r13d
	xorl	%r13d, %r9d
	orl	%r9d, %r13d
	xorl	%r10d, %r12d
	xorl	%r12d, %r10d
	orl	%r10d, %r12d
	xorl	%r11d, %ebx
	xorl	%ebx, %r11d
	orl	%r11d, %ebx
	xorl	%edx, %eax
	xorl	%eax, %edx
	orl	%edx, %eax
	xorl	%esi, %ecx
	xorl	%ecx, %esi
	orl	%esi, %ecx
	xorl	%edi, %r15d
	xorl	%r15d, %edi
	orl	%edi, %r15d
	xorl	%r8d, %r14d
	xorl	%r14d, %r8d
	orl	%r8d, %r14d
	xorl	%r9d, %r13d
	xorl	%r13d, %r9d
	orl	%r9d, %r13d
	xorl	%r10d, %r12d
	xorl	%r12d, %r10d
	orl	%r10d, %r12d
	xorl	%r11d, %ebx
	xorl	%ebx, %r11d
	orl	%r11d, %ebx
	xorl	%edx, %eax
	xorl	%eax, %edx
	orl	%edx, %eax
	xorl	%esi, %ecx
	xorl	%ecx, %esi
	orl	%esi, %ecx
	xorl	%edi, %r15d
	xorl	%r15d, %edi
	orl	%edi, %r15d
	xorl	%r8d, %r14d
	xorl	%r14d, %r8d
	orl	%r8d, %r14d
	xorl	%r9d, %r13d
	xorl	%r13d, %r9d
	orl	%r9d, %r13d
	xorl	%r10d, %r12d
	xorl	%r12d, %r10d
	orl	%r10d, %r12d
	xorl	%r11d, %ebx
	xorl	%ebx, %r11d
	orl	%r11d, %ebx
	xorl	%edx, %eax
	xorl	%eax, %edx
	orl	%edx, %eax
	xorl	%esi, %ecx
	xorl	%ecx, %esi
	orl	%esi, %ecx
	xorl	%edi, %r15d
	xorl	%r15d, %edi
	orl	%edi, %r15d
	xorl	%r8d, %r14d
	xorl	%r14d, %r8d
	orl	%r8d, %r14d
	xorl	%r9d, %r13d
	xorl	%r13d, %r9d
	orl	%r9d, %r13d
	xorl	%r10d, %r12d
	xorl	%r12d, %r10d
	orl	%r10d, %r12d
	xorl	%r11d, %ebx
	xorl	%ebx, %r11d
	orl	%r11d, %ebx
	xorl	%edx, %eax
	xorl	%eax, %edx
	orl	%edx, %eax
	xorl	%esi, %ecx
	xorl	%ecx, %esi
	orl	%esi, %ecx
	xorl	%edi, %r15d
	xorl	%r15d, %edi
	orl	%edi, %r15d
	xorl	%r8d, %r14d
	xorl	%r14d, %r8d
	orl	%r8d, %r14d
	xorl	%r9d, %r13d
	xorl	%r13d, %r9d
	orl	%r9d, %r13d
	xorl	%r10d, %r12d
	xorl	%r12d, %r10d
	orl	%r10d, %r12d
	xorl	%r11d, %ebx
	xorl	%ebx, %r11d
	orl	%r11d, %ebx
	xorl	%edx, %eax
	xorl	%eax, %edx
	orl	%edx, %eax
	xorl	%esi, %ecx
	xorl	%ecx, %esi
	orl	%esi, %ecx
	xorl	%edi, %r15d
	xorl	%r15d, %edi
	orl	%edi, %r15d
	xorl	%r8d, %r14d
	xorl	%r14d, %r8d
	orl	%r8d, %r14d
	xorl	%r9d, %r13d
	xorl	%r13d, %r9d
	orl	%r9d, %r13d
	xorl	%r10d, %r12d
	xorl	%r12d, %r10d
	orl	%r10d, %r12d
	xorl	%r11d, %ebx
	xorl	%ebx, %r11d
	orl	%r11d, %ebx
	xorl	%edx, %eax
	xorl	%eax, %edx
	orl	%edx, %eax
	xorl	%esi, %ecx
	xorl	%ecx, %esi
	orl	%esi, %ecx
	xorl	%edi, %r15d
	xorl	%r15d, %edi
	orl	%edi, %r15d
	xorl	%r8d, %r14d
	xorl	%r14d, %r8d
	orl	%r8d, %r14d
	xorl	%r9d, %r13d
	xorl	%r13d, %r9d
	orl	%r9d, %r13d
	xorl	%r10d, %r12d
	xorl	%r12d, %r10d
	orl	%r10d, %r12d
	xorl	%r11d, %ebx
	xorl	%ebx, %r11d
	orl	%r11d, %ebx
	xorl	%edx, %eax
	xorl	%eax, %edx
	orl	%edx, %eax
	xorl	%esi, %ecx
	xorl	%ecx, %esi
	orl	%esi, %ecx
	xorl	%edi, %r15d
	xorl	%r15d, %edi
	orl	%edi, %r15d
	xorl	%r8d, %r14d
	xorl	%r14d, %r8d
	orl	%r8d, %r14d
	xorl	%r9d, %r13d
	xorl	%r13d, %r9d
	orl	%r9d, %r13d
	xorl	%r10d, %r12d
	xorl	%r12d, %r10d
	orl	%r10d, %r12d
	xorl	%r11d, %ebx
	xorl	%ebx, %r11d
	orl	%r11d, %ebx
	xorl	%edx, %eax
	xorl	%eax, %edx
	movl	%edx, -88(%rbp)
	orl	%edx, %eax
	movl	%eax, %edx
	xorl	%esi, %ecx
	xorl	%ecx, %esi
	orl	%esi, %ecx
	movl	%ecx, -84(%rbp)
	xorl	%edi, %r15d
	xorl	%r15d, %edi
	movl	%edi, -100(%rbp)
	orl	%edi, %r15d
	xorl	%r8d, %r14d
	xorl	%r14d, %r8d
	orl	%r8d, %r14d
	xorl	%r9d, %r13d
	xorl	%r13d, %r9d
	orl	%r9d, %r13d
	xorl	%r10d, %r12d
	xorl	%r12d, %r10d
	orl	%r10d, %r12d
	xorl	%r11d, %ebx
	xorl	%ebx, %r11d
	orl	%r11d, %ebx
.L37:
	movq	-96(%rbp), %rax
	leaq	-1(%rax), %rdi
	movq	%rdi, -96(%rbp)
	testq	%rax, %rax
	jne	.L38
	movl	%edx, %edi
	call	use_int@PLT
	movl	-84(%rbp), %edi
	call	use_int@PLT
	movl	%r15d, %edi
	call	use_int@PLT
	movl	%r14d, %edi
	call	use_int@PLT
	movl	%r13d, %edi
	call	use_int@PLT
	movl	%r12d, %edi
	call	use_int@PLT
	movl	%ebx, %edi
	call	use_int@PLT
	addq	$72, %rsp
	popq	%rbx
	popq	%r12
	popq	%r13
	popq	%r14
	popq	%r15
	popq	%rbp
	.cfi_def_cfa 7, 8
	ret
	.cfi_endproc
.LFE15:
	.size	integer_bit_6, .-integer_bit_6
	.globl	integer_bit_7
	.type	integer_bit_7, @function
integer_bit_7:
.LFB16:
	.cfi_startproc
	endbr64
	pushq	%rbp
	.cfi_def_cfa_offset 16
	.cfi_offset 6, -16
	movq	%rsp, %rbp
	.cfi_def_cfa_register 6
	pushq	%r15
	pushq	%r14
	pushq	%r13
	pushq	%r12
	pushq	%rbx
	subq	$88, %rsp
	.cfi_offset 15, -24
	.cfi_offset 14, -32
	.cfi_offset 13, -40
	.cfi_offset 12, -48
	.cfi_offset 3, -56
	movq	%rdi, -72(%rbp)
	movq	%rsi, -80(%rbp)
	movq	-72(%rbp), %rax
	movq	%rax, -120(%rbp)
	movq	-80(%rbp), %rax
	movq	%rax, -56(%rbp)
	movq	-56(%rbp), %rax
	movl	12(%rax), %eax
	addl	$1, %eax
	movl	%eax, -88(%rbp)
	addl	$1, %eax
	movl	%eax, -112(%rbp)
	movq	-56(%rbp), %rax
	movl	16(%rax), %eax
	addl	$1, %eax
	movl	%eax, -96(%rbp)
	addl	$2, %eax
	movl	%eax, %esi
	movq	-56(%rbp), %rax
	movl	20(%rax), %eax
	addl	$1, %eax
	movl	%eax, -100(%rbp)
	addl	$3, %eax
	movl	%eax, %r8d
	movq	-56(%rbp), %rax
	movl	24(%rax), %eax
	addl	$1, %eax
	movl	%eax, -104(%rbp)
	addl	$4, %eax
	movl	%eax, %r10d
	movq	-56(%rbp), %rax
	movl	28(%rax), %eax
	addl	$1, %eax
	movl	%eax, -108(%rbp)
	addl	$5, %eax
	movl	%eax, -92(%rbp)
	movq	-56(%rbp), %rax
	movl	32(%rax), %eax
	addl	$1, %eax
	movl	%eax, -84(%rbp)
	leal	6(%rax), %r14d
	movq	-56(%rbp), %rax
	movl	36(%rax), %eax
	leal	1(%rax), %r15d
	leal	7(%r15), %r12d
	movq	-56(%rbp), %rax
	movl	40(%rax), %eax
	leal	1(%rax), %r13d
	leal	8(%r13), %ebx
	jmp	.L40
.L41:
	movl	-112(%rbp), %edx
	xorl	%edx, -88(%rbp)
	movl	-88(%rbp), %eax
	xorl	%eax, %edx
	orl	%edx, %eax
	movl	%eax, -88(%rbp)
	xorl	%esi, -96(%rbp)
	movl	-96(%rbp), %ecx
	xorl	%ecx, %esi
	orl	%esi, %ecx
	xorl	%r8d, -100(%rbp)
	movl	-100(%rbp), %edi
	xorl	%edi, %r8d
	orl	%r8d, %edi
	xorl	%r10d, -104(%rbp)
	movl	-104(%rbp), %r9d
	xorl	%r9d, %r10d
	orl	%r10d, %r9d
	movl	-92(%rbp), %eax
	xorl	%eax, -108(%rbp)
	movl	-108(%rbp), %r11d
	xorl	%r11d, %eax
	movl	%eax, -92(%rbp)
	orl	%eax, %r11d
	xorl	%r14d, -84(%rbp)
	movl	-84(%rbp), %eax
	xorl	%eax, %r14d
	orl	%r14d, %eax
	movl	%eax, -84(%rbp)
	xorl	%r12d, %r15d
	xorl	%r15d, %r12d
	orl	%r12d, %r15d
	xorl	%ebx, %r13d
	xorl	%r13d, %ebx
	orl	%ebx, %r13d
	xorl	%edx, -88(%rbp)
	movl	-88(%rbp), %eax
	xorl	%eax, %edx
	orl	%edx, %eax
	movl	%eax, -88(%rbp)
	xorl	%esi, %ecx
	xorl	%ecx, %esi
	orl	%esi, %ecx
	xorl	%r8d, %edi
	xorl	%edi, %r8d
	orl	%r8d, %edi
	xorl	%r10d, %r9d
	xorl	%r9d, %r10d
	orl	%r10d, %r9d
	movl	-92(%rbp), %eax
	xorl	%eax, %r11d
	xorl	%r11d, %eax
	movl	%eax, -92(%rbp)
	orl	%eax, %r11d
	xorl	%r14d, -84(%rbp)
	movl	-84(%rbp), %eax
	xorl	%eax, %r14d
	orl	%r14d, %eax
	movl	%eax, -84(%rbp)
	xorl	%r12d, %r15d
	xorl	%r15d, %r12d
	orl	%r12d, %r15d
	xorl	%ebx, %r13d
	xorl	%r13d, %ebx
	orl	%ebx, %r13d
	xorl	%edx, -88(%rbp)
	movl	-88(%rbp), %eax
	xorl	%eax, %edx
	orl	%edx, %eax
	movl	%eax, -88(%rbp)
	xorl	%esi, %ecx
	xorl	%ecx, %esi
	orl	%esi, %ecx
	xorl	%r8d, %edi
	xorl	%edi, %r8d
	orl	%r8d, %edi
	xorl	%r10d, %r9d
	xorl	%r9d, %r10d
	orl	%r10d, %r9d
	movl	-92(%rbp), %eax
	xorl	%eax, %r11d
	xorl	%r11d, %eax
	movl	%eax, -92(%rbp)
	orl	%eax, %r11d
	xorl	%r14d, -84(%rbp)
	movl	-84(%rbp), %eax
	xorl	%eax, %r14d
	orl	%r14d, %eax
	movl	%eax, -84(%rbp)
	xorl	%r12d, %r15d
	xorl	%r15d, %r12d
	orl	%r12d, %r15d
	xorl	%ebx, %r13d
	xorl	%r13d, %ebx
	orl	%ebx, %r13d
	xorl	%edx, -88(%rbp)
	movl	-88(%rbp), %eax
	xorl	%eax, %edx
	orl	%edx, %eax
	movl	%eax, -88(%rbp)
	xorl	%esi, %ecx
	xorl	%ecx, %esi
	orl	%esi, %ecx
	xorl	%r8d, %edi
	xorl	%edi, %r8d
	orl	%r8d, %edi
	xorl	%r10d, %r9d
	xorl	%r9d, %r10d
	orl	%r10d, %r9d
	movl	-92(%rbp), %eax
	xorl	%eax, %r11d
	xorl	%r11d, %eax
	movl	%eax, -92(%rbp)
	orl	%eax, %r11d
	xorl	%r14d, -84(%rbp)
	movl	-84(%rbp), %eax
	xorl	%eax, %r14d
	orl	%r14d, %eax
	movl	%eax, -84(%rbp)
	xorl	%r12d, %r15d
	xorl	%r15d, %r12d
	orl	%r12d, %r15d
	xorl	%ebx, %r13d
	xorl	%r13d, %ebx
	orl	%ebx, %r13d
	xorl	%edx, -88(%rbp)
	movl	-88(%rbp), %eax
	xorl	%eax, %edx
	orl	%edx, %eax
	movl	%eax, -88(%rbp)
	xorl	%esi, %ecx
	xorl	%ecx, %esi
	orl	%esi, %ecx
	xorl	%r8d, %edi
	xorl	%edi, %r8d
	orl	%r8d, %edi
	xorl	%r10d, %r9d
	xorl	%r9d, %r10d
	orl	%r10d, %r9d
	movl	-92(%rbp), %eax
	xorl	%eax, %r11d
	xorl	%r11d, %eax
	movl	%eax, -92(%rbp)
	orl	%eax, %r11d
	xorl	%r14d, -84(%rbp)
	movl	-84(%rbp), %eax
	xorl	%eax, %r14d
	orl	%r14d, %eax
	movl	%eax, -84(%rbp)
	xorl	%r12d, %r15d
	xorl	%r15d, %r12d
	orl	%r12d, %r15d
	xorl	%ebx, %r13d
	xorl	%r13d, %ebx
	orl	%ebx, %r13d
	xorl	%edx, -88(%rbp)
	movl	-88(%rbp), %eax
	xorl	%eax, %edx
	orl	%edx, %eax
	movl	%eax, -88(%rbp)
	xorl	%esi, %ecx
	xorl	%ecx, %esi
	orl	%esi, %ecx
	xorl	%r8d, %edi
	xorl	%edi, %r8d
	orl	%r8d, %edi
	xorl	%r10d, %r9d
	xorl	%r9d, %r10d
	orl	%r10d, %r9d
	movl	-92(%rbp), %eax
	xorl	%eax, %r11d
	xorl	%r11d, %eax
	movl	%eax, -92(%rbp)
	orl	%eax, %r11d
	xorl	%r14d, -84(%rbp)
	movl	-84(%rbp), %eax
	xorl	%eax, %r14d
	orl	%r14d, %eax
	movl	%eax, -84(%rbp)
	xorl	%r12d, %r15d
	xorl	%r15d, %r12d
	orl	%r12d, %r15d
	xorl	%ebx, %r13d
	xorl	%r13d, %ebx
	orl	%ebx, %r13d
	xorl	%edx, -88(%rbp)
	movl	-88(%rbp), %eax
	xorl	%eax, %edx
	orl	%edx, %eax
	movl	%eax, -88(%rbp)
	xorl	%esi, %ecx
	xorl	%ecx, %esi
	orl	%esi, %ecx
	xorl	%r8d, %edi
	xorl	%edi, %r8d
	orl	%r8d, %edi
	xorl	%r10d, %r9d
	xorl	%r9d, %r10d
	orl	%r10d, %r9d
	movl	-92(%rbp), %eax
	xorl	%eax, %r11d
	xorl	%r11d, %eax
	movl	%eax, -92(%rbp)
	orl	%eax, %r11d
	xorl	%r14d, -84(%rbp)
	movl	-84(%rbp), %eax
	xorl	%eax, %r14d
	orl	%r14d, %eax
	movl	%eax, -84(%rbp)
	xorl	%r12d, %r15d
	xorl	%r15d, %r12d
	orl	%r12d, %r15d
	xorl	%ebx, %r13d
	xorl	%r13d, %ebx
	orl	%ebx, %r13d
	xorl	%edx, -88(%rbp)
	movl	-88(%rbp), %eax
	xorl	%eax, %edx
	orl	%edx, %eax
	movl	%eax, -88(%rbp)
	xorl	%esi, %ecx
	xorl	%ecx, %esi
	orl	%esi, %ecx
	xorl	%r8d, %edi
	xorl	%edi, %r8d
	orl	%r8d, %edi
	xorl	%r10d, %r9d
	xorl	%r9d, %r10d
	orl	%r10d, %r9d
	movl	-92(%rbp), %eax
	xorl	%eax, %r11d
	xorl	%r11d, %eax
	movl	%eax, -92(%rbp)
	orl	%eax, %r11d
	xorl	%r14d, -84(%rbp)
	movl	-84(%rbp), %eax
	xorl	%eax, %r14d
	orl	%r14d, %eax
	movl	%eax, -84(%rbp)
	xorl	%r12d, %r15d
	xorl	%r15d, %r12d
	orl	%r12d, %r15d
	xorl	%ebx, %r13d
	xorl	%r13d, %ebx
	orl	%ebx, %r13d
	xorl	%edx, -88(%rbp)
	movl	-88(%rbp), %eax
	xorl	%eax, %edx
	orl	%edx, %eax
	xorl	%esi, %ecx
	xorl	%ecx, %esi
	orl	%esi, %ecx
	movl	%ecx, -96(%rbp)
	xorl	%r8d, %edi
	xorl	%edi, %r8d
	orl	%r8d, %edi
	xorl	%r10d, %r9d
	xorl	%r9d, %r10d
	orl	%r10d, %r9d
	movl	-92(%rbp), %ecx
	xorl	%ecx, %r11d
	xorl	%r11d, %ecx
	movl	%ecx, -92(%rbp)
	orl	%ecx, %r11d
	xorl	%r14d, -84(%rbp)
	movl	-84(%rbp), %ecx
	xorl	%ecx, %r14d
	orl	%r14d, %ecx
	movl	%ecx, -84(%rbp)
	xorl	%r12d, %r15d
	xorl	%r15d, %r12d
	orl	%r12d, %r15d
	xorl	%ebx, %r13d
	xorl	%r13d, %ebx
	orl	%ebx, %r13d
	xorl	%edx, %eax
	xorl	%eax, %edx
	movl	%edx, -112(%rbp)
	orl	%edx, %eax
	movl	%eax, -88(%rbp)
	xorl	%esi, -96(%rbp)
	movl	-96(%rbp), %ecx
	xorl	%ecx, %esi
	orl	%esi, %ecx
	movl	%ecx, -96(%rbp)
	xorl	%r8d, %edi
	xorl	%edi, %r8d
	orl	%r8d, %edi
	movl	%edi, -100(%rbp)
	xorl	%r10d, %r9d
	xorl	%r9d, %r10d
	orl	%r10d, %r9d
	movl	%r9d, -104(%rbp)
	movl	-92(%rbp), %eax
	xorl	%eax, %r11d
	xorl	%r11d, %eax
	movl	%eax, -92(%rbp)
	orl	%eax, %r11d
	movl	%r11d, -108(%rbp)
	xorl	%r14d, -84(%rbp)
	movl	-84(%rbp), %ecx
	xorl	%ecx, %r14d
	orl	%r14d, %ecx
	movl	%ecx, -84(%rbp)
	xorl	%r12d, %r15d
	xorl	%r15d, %r12d
	orl	%r12d, %r15d
	xorl	%ebx, %r13d
	xorl	%r13d, %ebx
	orl	%ebx, %r13d
.L40:
	movq	-120(%rbp), %rax
	leaq	-1(%rax), %rdx
	movq	%rdx, -120(%rbp)
	testq	%rax, %rax
	jne	.L41
	movl	-88(%rbp), %edi
	call	use_int@PLT
	movl	-96(%rbp), %edi
	call	use_int@PLT
	movl	-100(%rbp), %edi
	call	use_int@PLT
	movl	-104(%rbp), %edi
	call	use_int@PLT
	movl	-108(%rbp), %edi
	call	use_int@PLT
	movl	-84(%rbp), %edi
	call	use_int@PLT
	movl	%r15d, %edi
	call	use_int@PLT
	movl	%r13d, %edi
	call	use_int@PLT
	addq	$88, %rsp
	popq	%rbx
	popq	%r12
	popq	%r13
	popq	%r14
	popq	%r15
	popq	%rbp
	.cfi_def_cfa 7, 8
	ret
	.cfi_endproc
.LFE16:
	.size	integer_bit_7, .-integer_bit_7
	.globl	integer_bit_8
	.type	integer_bit_8, @function
integer_bit_8:
.LFB17:
	.cfi_startproc
	endbr64
	pushq	%rbp
	.cfi_def_cfa_offset 16
	.cfi_offset 6, -16
	movq	%rsp, %rbp
	.cfi_def_cfa_register 6
	pushq	%r15
	pushq	%r14
	pushq	%r13
	pushq	%r12
	pushq	%rbx
	subq	$88, %rsp
	.cfi_offset 15, -24
	.cfi_offset 14, -32
	.cfi_offset 13, -40
	.cfi_offset 12, -48
	.cfi_offset 3, -56
	movq	%rdi, -72(%rbp)
	movq	%rsi, -80(%rbp)
	movq	-72(%rbp), %rax
	movq	%rax, -128(%rbp)
	movq	-80(%rbp), %rax
	movq	%rax, -56(%rbp)
	movq	-56(%rbp), %rax
	movl	12(%rax), %eax
	addl	$1, %eax
	movl	%eax, -96(%rbp)
	addl	$1, %eax
	movl	%eax, -120(%rbp)
	movq	-56(%rbp), %rax
	movl	16(%rax), %eax
	addl	$1, %eax
	movl	%eax, -92(%rbp)
	addl	$2, %eax
	movl	%eax, %esi
	movq	-56(%rbp), %rax
	movl	20(%rax), %eax
	addl	$1, %eax
	movl	%eax, -108(%rbp)
	addl	$3, %eax
	movl	%eax, %r8d
	movq	-56(%rbp), %rax
	movl	24(%rax), %eax
	addl	$1, %eax
	movl	%eax, -112(%rbp)
	addl	$4, %eax
	movl	%eax, %r10d
	movq	-56(%rbp), %rax
	movl	28(%rax), %eax
	addl	$1, %eax
	movl	%eax, -116(%rbp)
	addl	$5, %eax
	movl	%eax, -100(%rbp)
	movq	-56(%rbp), %rax
	movl	32(%rax), %eax
	addl	$1, %eax
	movl	%eax, -84(%rbp)
	addl	$6, %eax
	movl	%eax, -104(%rbp)
	movq	-56(%rbp), %rax
	movl	36(%rax), %eax
	addl	$1, %eax
	movl	%eax, -88(%rbp)
	leal	7(%rax), %r14d
	movq	-56(%rbp), %rax
	movl	40(%rax), %eax
	leal	1(%rax), %r15d
	leal	8(%r15), %r12d
	movq	-56(%rbp), %rax
	movl	44(%rax), %eax
	leal	1(%rax), %r13d
	leal	9(%r13), %ebx
	jmp	.L43
.L44:
	movl	-120(%rbp), %edx
	xorl	%edx, -96(%rbp)
	movl	-96(%rbp), %eax
	xorl	%eax, %edx
	orl	%edx, %eax
	movl	%eax, -96(%rbp)
	xorl	%esi, -92(%rbp)
	movl	-92(%rbp), %ecx
	xorl	%ecx, %esi
	orl	%esi, %ecx
	movl	%ecx, -92(%rbp)
	xorl	%r8d, -108(%rbp)
	movl	-108(%rbp), %edi
	xorl	%edi, %r8d
	orl	%r8d, %edi
	xorl	%r10d, -112(%rbp)
	movl	-112(%rbp), %r9d
	xorl	%r9d, %r10d
	orl	%r10d, %r9d
	movl	-100(%rbp), %eax
	xorl	%eax, -116(%rbp)
	movl	-116(%rbp), %r11d
	xorl	%r11d, %eax
	movl	%eax, -100(%rbp)
	orl	%eax, %r11d
	movl	-104(%rbp), %ecx
	xorl	%ecx, -84(%rbp)
	movl	-84(%rbp), %eax
	xorl	%eax, %ecx
	movl	%ecx, -104(%rbp)
	orl	%ecx, %eax
	movl	%eax, -84(%rbp)
	xorl	%r14d, -88(%rbp)
	movl	-88(%rbp), %ecx
	xorl	%ecx, %r14d
	orl	%r14d, %ecx
	movl	%ecx, -88(%rbp)
	xorl	%r12d, %r15d
	xorl	%r15d, %r12d
	orl	%r12d, %r15d
	xorl	%ebx, %r13d
	xorl	%r13d, %ebx
	orl	%ebx, %r13d
	xorl	%edx, -96(%rbp)
	movl	-96(%rbp), %eax
	xorl	%eax, %edx
	orl	%edx, %eax
	movl	%eax, -96(%rbp)
	xorl	%esi, -92(%rbp)
	movl	-92(%rbp), %ecx
	xorl	%ecx, %esi
	orl	%esi, %ecx
	movl	%ecx, -92(%rbp)
	xorl	%r8d, %edi
	xorl	%edi, %r8d
	orl	%r8d, %edi
	xorl	%r10d, %r9d
	xorl	%r9d, %r10d
	orl	%r10d, %r9d
	movl	-100(%rbp), %eax
	xorl	%eax, %r11d
	xorl	%r11d, %eax
	movl	%eax, -100(%rbp)
	orl	%eax, %r11d
	movl	-104(%rbp), %ecx
	xorl	%ecx, -84(%rbp)
	movl	-84(%rbp), %eax
	xorl	%eax, %ecx
	movl	%ecx, -104(%rbp)
	orl	%ecx, %eax
	movl	%eax, -84(%rbp)
	xorl	%r14d, -88(%rbp)
	movl	-88(%rbp), %ecx
	xorl	%ecx, %r14d
	orl	%r14d, %ecx
	movl	%ecx, -88(%rbp)
	xorl	%r12d, %r15d
	xorl	%r15d, %r12d
	orl	%r12d, %r15d
	xorl	%ebx, %r13d
	xorl	%r13d, %ebx
	orl	%ebx, %r13d
	xorl	%edx, -96(%rbp)
	movl	-96(%rbp), %eax
	xorl	%eax, %edx
	orl	%edx, %eax
	movl	%eax, -96(%rbp)
	xorl	%esi, -92(%rbp)
	movl	-92(%rbp), %ecx
	xorl	%ecx, %esi
	orl	%esi, %ecx
	movl	%ecx, -92(%rbp)
	xorl	%r8d, %edi
	xorl	%edi, %r8d
	orl	%r8d, %edi
	xorl	%r10d, %r9d
	xorl	%r9d, %r10d
	orl	%r10d, %r9d
	movl	-100(%rbp), %eax
	xorl	%eax, %r11d
	xorl	%r11d, %eax
	movl	%eax, -100(%rbp)
	orl	%eax, %r11d
	movl	-104(%rbp), %ecx
	xorl	%ecx, -84(%rbp)
	movl	-84(%rbp), %eax
	xorl	%eax, %ecx
	movl	%ecx, -104(%rbp)
	orl	%ecx, %eax
	movl	%eax, -84(%rbp)
	xorl	%r14d, -88(%rbp)
	movl	-88(%rbp), %ecx
	xorl	%ecx, %r14d
	orl	%r14d, %ecx
	movl	%ecx, -88(%rbp)
	xorl	%r12d, %r15d
	xorl	%r15d, %r12d
	orl	%r12d, %r15d
	xorl	%ebx, %r13d
	xorl	%r13d, %ebx
	orl	%ebx, %r13d
	xorl	%edx, -96(%rbp)
	movl	-96(%rbp), %eax
	xorl	%eax, %edx
	orl	%edx, %eax
	movl	%eax, -96(%rbp)
	xorl	%esi, -92(%rbp)
	movl	-92(%rbp), %ecx
	xorl	%ecx, %esi
	orl	%esi, %ecx
	movl	%ecx, -92(%rbp)
	xorl	%r8d, %edi
	xorl	%edi, %r8d
	orl	%r8d, %edi
	xorl	%r10d, %r9d
	xorl	%r9d, %r10d
	orl	%r10d, %r9d
	movl	-100(%rbp), %eax
	xorl	%eax, %r11d
	xorl	%r11d, %eax
	movl	%eax, -100(%rbp)
	orl	%eax, %r11d
	movl	-104(%rbp), %ecx
	xorl	%ecx, -84(%rbp)
	movl	-84(%rbp), %eax
	xorl	%eax, %ecx
	movl	%ecx, -104(%rbp)
	orl	%ecx, %eax
	movl	%eax, -84(%rbp)
	xorl	%r14d, -88(%rbp)
	movl	-88(%rbp), %ecx
	xorl	%ecx, %r14d
	orl	%r14d, %ecx
	movl	%ecx, -88(%rbp)
	xorl	%r12d, %r15d
	xorl	%r15d, %r12d
	orl	%r12d, %r15d
	xorl	%ebx, %r13d
	xorl	%r13d, %ebx
	orl	%ebx, %r13d
	xorl	%edx, -96(%rbp)
	movl	-96(%rbp), %eax
	xorl	%eax, %edx
	orl	%edx, %eax
	movl	%eax, -96(%rbp)
	xorl	%esi, -92(%rbp)
	movl	-92(%rbp), %ecx
	xorl	%ecx, %esi
	orl	%esi, %ecx
	movl	%ecx, -92(%rbp)
	xorl	%r8d, %edi
	xorl	%edi, %r8d
	orl	%r8d, %edi
	xorl	%r10d, %r9d
	xorl	%r9d, %r10d
	orl	%r10d, %r9d
	movl	-100(%rbp), %eax
	xorl	%eax, %r11d
	xorl	%r11d, %eax
	movl	%eax, -100(%rbp)
	orl	%eax, %r11d
	movl	-104(%rbp), %ecx
	xorl	%ecx, -84(%rbp)
	movl	-84(%rbp), %eax
	xorl	%eax, %ecx
	movl	%ecx, -104(%rbp)
	orl	%ecx, %eax
	movl	%eax, -84(%rbp)
	xorl	%r14d, -88(%rbp)
	movl	-88(%rbp), %ecx
	xorl	%ecx, %r14d
	orl	%r14d, %ecx
	movl	%ecx, -88(%rbp)
	xorl	%r12d, %r15d
	xorl	%r15d, %r12d
	orl	%r12d, %r15d
	xorl	%ebx, %r13d
	xorl	%r13d, %ebx
	orl	%ebx, %r13d
	xorl	%edx, -96(%rbp)
	movl	-96(%rbp), %eax
	xorl	%eax, %edx
	orl	%edx, %eax
	movl	%eax, -96(%rbp)
	xorl	%esi, -92(%rbp)
	movl	-92(%rbp), %ecx
	xorl	%ecx, %esi
	orl	%esi, %ecx
	movl	%ecx, -92(%rbp)
	xorl	%r8d, %edi
	xorl	%edi, %r8d
	orl	%r8d, %edi
	xorl	%r10d, %r9d
	xorl	%r9d, %r10d
	orl	%r10d, %r9d
	movl	-100(%rbp), %eax
	xorl	%eax, %r11d
	xorl	%r11d, %eax
	movl	%eax, -100(%rbp)
	orl	%eax, %r11d
	movl	-104(%rbp), %ecx
	xorl	%ecx, -84(%rbp)
	movl	-84(%rbp), %eax
	xorl	%eax, %ecx
	movl	%ecx, -104(%rbp)
	orl	%ecx, %eax
	movl	%eax, -84(%rbp)
	xorl	%r14d, -88(%rbp)
	movl	-88(%rbp), %ecx
	xorl	%ecx, %r14d
	orl	%r14d, %ecx
	movl	%ecx, -88(%rbp)
	xorl	%r12d, %r15d
	xorl	%r15d, %r12d
	orl	%r12d, %r15d
	xorl	%ebx, %r13d
	xorl	%r13d, %ebx
	orl	%ebx, %r13d
	xorl	%edx, -96(%rbp)
	movl	-96(%rbp), %eax
	xorl	%eax, %edx
	orl	%edx, %eax
	movl	%eax, -96(%rbp)
	xorl	%esi, -92(%rbp)
	movl	-92(%rbp), %ecx
	xorl	%ecx, %esi
	orl	%esi, %ecx
	xorl	%r8d, %edi
	xorl	%edi, %r8d
	orl	%r8d, %edi
	movl	%edi, -108(%rbp)
	xorl	%r10d, %r9d
	xorl	%r9d, %r10d
	orl	%r10d, %r9d
	movl	-100(%rbp), %eax
	xorl	%eax, %r11d
	xorl	%r11d, %eax
	movl	%eax, -100(%rbp)
	orl	%eax, %r11d
	movl	-104(%rbp), %edi
	xorl	%edi, -84(%rbp)
	movl	-84(%rbp), %eax
	xorl	%eax, %edi
	movl	%edi, -104(%rbp)
	orl	%edi, %eax
	movl	%eax, -84(%rbp)
	xorl	%r14d, -88(%rbp)
	movl	-88(%rbp), %edi
	xorl	%edi, %r14d
	orl	%r14d, %edi
	movl	%edi, -88(%rbp)
	xorl	%r12d, %r15d
	xorl	%r15d, %r12d
	orl	%r12d, %r15d
	xorl	%ebx, %r13d
	xorl	%r13d, %ebx
	orl	%ebx, %r13d
	xorl	%edx, -96(%rbp)
	movl	-96(%rbp), %eax
	xorl	%eax, %edx
	orl	%edx, %eax
	xorl	%esi, %ecx
	xorl	%ecx, %esi
	orl	%esi, %ecx
	movl	%ecx, -92(%rbp)
	xorl	%r8d, -108(%rbp)
	movl	-108(%rbp), %edi
	xorl	%edi, %r8d
	orl	%r8d, %edi
	movl	%edi, -108(%rbp)
	xorl	%r10d, %r9d
	xorl	%r9d, %r10d
	orl	%r10d, %r9d
	movl	-100(%rbp), %ecx
	xorl	%ecx, %r11d
	xorl	%r11d, %ecx
	movl	%ecx, -100(%rbp)
	orl	%ecx, %r11d
	movl	-104(%rbp), %edi
	xorl	%edi, -84(%rbp)
	movl	-84(%rbp), %ecx
	xorl	%ecx, %edi
	movl	%edi, -104(%rbp)
	orl	%edi, %ecx
	movl	%ecx, -84(%rbp)
	xorl	%r14d, -88(%rbp)
	movl	-88(%rbp), %edi
	xorl	%edi, %r14d
	orl	%r14d, %edi
	movl	%edi, -88(%rbp)
	xorl	%r12d, %r15d
	xorl	%r15d, %r12d
	orl	%r12d, %r15d
	xorl	%ebx, %r13d
	xorl	%r13d, %ebx
	orl	%ebx, %r13d
	xorl	%edx, %eax
	xorl	%eax, %edx
	orl	%edx, %eax
	xorl	%esi, -92(%rbp)
	movl	-92(%rbp), %ecx
	xorl	%ecx, %esi
	orl	%esi, %ecx
	movl	%ecx, -92(%rbp)
	xorl	%r8d, -108(%rbp)
	movl	-108(%rbp), %edi
	xorl	%edi, %r8d
	orl	%r8d, %edi
	movl	%edi, -108(%rbp)
	xorl	%r10d, %r9d
	xorl	%r9d, %r10d
	orl	%r10d, %r9d
	movl	-100(%rbp), %ecx
	xorl	%ecx, %r11d
	xorl	%r11d, %ecx
	movl	%ecx, -100(%rbp)
	orl	%ecx, %r11d
	movl	-104(%rbp), %edi
	xorl	%edi, -84(%rbp)
	movl	-84(%rbp), %ecx
	xorl	%ecx, %edi
	movl	%edi, -104(%rbp)
	orl	%edi, %ecx
	movl	%ecx, -84(%rbp)
	xorl	%r14d, -88(%rbp)
	movl	-88(%rbp), %edi
	xorl	%edi, %r14d
	orl	%r14d, %edi
	movl	%edi, -88(%rbp)
	xorl	%r12d, %r15d
	xorl	%r15d, %r12d
	orl	%r12d, %r15d
	xorl	%ebx, %r13d
	xorl	%r13d, %ebx
	orl	%ebx, %r13d
	xorl	%edx, %eax
	xorl	%eax, %edx
	movl	%edx, -120(%rbp)
	orl	%edx, %eax
	movl	%eax, -96(%rbp)
	xorl	%esi, -92(%rbp)
	movl	-92(%rbp), %ecx
	xorl	%ecx, %esi
	orl	%esi, %ecx
	movl	%ecx, -92(%rbp)
	xorl	%r8d, -108(%rbp)
	movl	-108(%rbp), %edi
	xorl	%edi, %r8d
	orl	%r8d, %edi
	movl	%edi, -108(%rbp)
	xorl	%r10d, %r9d
	xorl	%r9d, %r10d
	orl	%r10d, %r9d
	movl	%r9d, -112(%rbp)
	movl	-100(%rbp), %eax
	xorl	%eax, %r11d
	xorl	%r11d, %eax
	movl	%eax, -100(%rbp)
	orl	%eax, %r11d
	movl	%r11d, -116(%rbp)
	movl	-104(%rbp), %eax
	xorl	%eax, -84(%rbp)
	movl	-84(%rbp), %ecx
	xorl	%ecx, %eax
	movl	%eax, -104(%rbp)
	orl	%eax, %ecx
	movl	%ecx, -84(%rbp)
	xorl	%r14d, -88(%rbp)
	movl	-88(%rbp), %edi
	xorl	%edi, %r14d
	orl	%r14d, %edi
	movl	%edi, -88(%rbp)
	xorl	%r12d, %r15d
	xorl	%r15d, %r12d
	orl	%r12d, %r15d
	xorl	%ebx, %r13d
	xorl	%r13d, %ebx
	orl	%ebx, %r13d
.L43:
	movq	-128(%rbp), %rax
	leaq	-1(%rax), %rdx
	movq	%rdx, -128(%rbp)
	testq	%rax, %rax
	jne	.L44
	movl	-96(%rbp), %edi
	call	use_int@PLT
	movl	-92(%rbp), %edi
	call	use_int@PLT
	movl	-108(%rbp), %edi
	call	use_int@PLT
	movl	-112(%rbp), %edi
	call	use_int@PLT
	movl	-116(%rbp), %edi
	call	use_int@PLT
	movl	-84(%rbp), %edi
	call	use_int@PLT
	movl	-88(%rbp), %edi
	call	use_int@PLT
	movl	%r15d, %edi
	call	use_int@PLT
	movl	%r13d, %edi
	call	use_int@PLT
	addq	$88, %rsp
	popq	%rbx
	popq	%r12
	popq	%r13
	popq	%r14
	popq	%r15
	popq	%rbp
	.cfi_def_cfa 7, 8
	ret
	.cfi_endproc
.LFE17:
	.size	integer_bit_8, .-integer_bit_8
	.globl	integer_bit_9
	.type	integer_bit_9, @function
integer_bit_9:
.LFB18:
	.cfi_startproc
	endbr64
	pushq	%rbp
	.cfi_def_cfa_offset 16
	.cfi_offset 6, -16
	movq	%rsp, %rbp
	.cfi_def_cfa_register 6
	pushq	%r15
	pushq	%r14
	pushq	%r13
	pushq	%r12
	pushq	%rbx
	subq	$104, %rsp
	.cfi_offset 15, -24
	.cfi_offset 14, -32
	.cfi_offset 13, -40
	.cfi_offset 12, -48
	.cfi_offset 3, -56
	movq	%rdi, -72(%rbp)
	movq	%rsi, -80(%rbp)
	movq	-72(%rbp), %rax
	movq	%rax, -136(%rbp)
	movq	-80(%rbp), %rax
	movq	%rax, -56(%rbp)
	movq	-56(%rbp), %rax
	movl	12(%rax), %eax
	addl	$1, %eax
	movl	%eax, -100(%rbp)
	addl	$1, %eax
	movl	%eax, -128(%rbp)
	movq	-56(%rbp), %rax
	movl	16(%rax), %eax
	addl	$1, %eax
	movl	%eax, -96(%rbp)
	addl	$2, %eax
	movl	%eax, %esi
	movq	-56(%rbp), %rax
	movl	20(%rax), %eax
	addl	$1, %eax
	movl	%eax, -116(%rbp)
	addl	$3, %eax
	movl	%eax, %r8d
	movq	-56(%rbp), %rax
	movl	24(%rax), %eax
	addl	$1, %eax
	movl	%eax, -120(%rbp)
	addl	$4, %eax
	movl	%eax, %r10d
	movq	-56(%rbp), %rax
	movl	28(%rax), %eax
	addl	$1, %eax
	movl	%eax, -124(%rbp)
	addl	$5, %eax
	movl	%eax, -104(%rbp)
	movq	-56(%rbp), %rax
	movl	32(%rax), %eax
	addl	$1, %eax
	movl	%eax, -84(%rbp)
	addl	$6, %eax
	movl	%eax, -108(%rbp)
	movq	-56(%rbp), %rax
	movl	36(%rax), %eax
	addl	$1, %eax
	movl	%eax, -88(%rbp)
	addl	$7, %eax
	movl	%eax, -112(%rbp)
	movq	-56(%rbp), %rax
	movl	40(%rax), %eax
	addl	$1, %eax
	movl	%eax, -92(%rbp)
	leal	8(%rax), %r14d
	movq	-56(%rbp), %rax
	movl	44(%rax), %eax
	leal	1(%rax), %r15d
	leal	9(%r15), %r12d
	movq	-56(%rbp), %rax
	movl	48(%rax), %eax
	leal	1(%rax), %r13d
	leal	10(%r13), %ebx
	jmp	.L46
.L47:
	movl	-128(%rbp), %edx
	xorl	%edx, -100(%rbp)
	movl	-100(%rbp), %eax
	xorl	%eax, %edx
	orl	%edx, %eax
	movl	%eax, -100(%rbp)
	xorl	%esi, -96(%rbp)
	movl	-96(%rbp), %ecx
	xorl	%ecx, %esi
	orl	%esi, %ecx
	movl	%ecx, -96(%rbp)
	xorl	%r8d, -116(%rbp)
	movl	-116(%rbp), %edi
	xorl	%edi, %r8d
	orl	%r8d, %edi
	xorl	%r10d, -120(%rbp)
	movl	-120(%rbp), %r9d
	xorl	%r9d, %r10d
	orl	%r10d, %r9d
	movl	-104(%rbp), %eax
	xorl	%eax, -124(%rbp)
	movl	-124(%rbp), %r11d
	xorl	%r11d, %eax
	movl	%eax, -104(%rbp)
	orl	%eax, %r11d
	movl	-108(%rbp), %ecx
	xorl	%ecx, -84(%rbp)
	movl	-84(%rbp), %eax
	xorl	%eax, %ecx
	movl	%ecx, -108(%rbp)
	orl	%ecx, %eax
	movl	%eax, -84(%rbp)
	movl	-112(%rbp), %eax
	xorl	%eax, -88(%rbp)
	movl	-88(%rbp), %ecx
	xorl	%ecx, %eax
	movl	%eax, -112(%rbp)
	orl	%eax, %ecx
	movl	%ecx, -88(%rbp)
	xorl	%r14d, -92(%rbp)
	movl	-92(%rbp), %ecx
	xorl	%ecx, %r14d
	orl	%r14d, %ecx
	movl	%ecx, -92(%rbp)
	xorl	%r12d, %r15d
	xorl	%r15d, %r12d
	orl	%r12d, %r15d
	xorl	%ebx, %r13d
	xorl	%r13d, %ebx
	orl	%ebx, %r13d
	xorl	%edx, -100(%rbp)
	movl	-100(%rbp), %eax
	xorl	%eax, %edx
	orl	%edx, %eax
	movl	%eax, -100(%rbp)
	xorl	%esi, -96(%rbp)
	movl	-96(%rbp), %ecx
	xorl	%ecx, %esi
	orl	%esi, %ecx
	movl	%ecx, -96(%rbp)
	xorl	%r8d, %edi
	xorl	%edi, %r8d
	orl	%r8d, %edi
	xorl	%r10d, %r9d
	xorl	%r9d, %r10d
	orl	%r10d, %r9d
	movl	-104(%rbp), %eax
	xorl	%eax, %r11d
	xorl	%r11d, %eax
	movl	%eax, -104(%rbp)
	orl	%eax, %r11d
	movl	-108(%rbp), %ecx
	xorl	%ecx, -84(%rbp)
	movl	-84(%rbp), %eax
	xorl	%eax, %ecx
	movl	%ecx, -108(%rbp)
	orl	%ecx, %eax
	movl	%eax, -84(%rbp)
	movl	-112(%rbp), %eax
	xorl	%eax, -88(%rbp)
	movl	-88(%rbp), %ecx
	xorl	%ecx, %eax
	movl	%eax, -112(%rbp)
	orl	%eax, %ecx
	movl	%ecx, -88(%rbp)
	xorl	%r14d, -92(%rbp)
	movl	-92(%rbp), %ecx
	xorl	%ecx, %r14d
	orl	%r14d, %ecx
	movl	%ecx, -92(%rbp)
	xorl	%r12d, %r15d
	xorl	%r15d, %r12d
	orl	%r12d, %r15d
	xorl	%ebx, %r13d
	xorl	%r13d, %ebx
	orl	%ebx, %r13d
	xorl	%edx, -100(%rbp)
	movl	-100(%rbp), %eax
	xorl	%eax, %edx
	orl	%edx, %eax
	movl	%eax, -100(%rbp)
	xorl	%esi, -96(%rbp)
	movl	-96(%rbp), %ecx
	xorl	%ecx, %esi
	orl	%esi, %ecx
	movl	%ecx, -96(%rbp)
	xorl	%r8d, %edi
	xorl	%edi, %r8d
	orl	%r8d, %edi
	xorl	%r10d, %r9d
	xorl	%r9d, %r10d
	orl	%r10d, %r9d
	movl	-104(%rbp), %eax
	xorl	%eax, %r11d
	xorl	%r11d, %eax
	movl	%eax, -104(%rbp)
	orl	%eax, %r11d
	movl	-108(%rbp), %ecx
	xorl	%ecx, -84(%rbp)
	movl	-84(%rbp), %eax
	xorl	%eax, %ecx
	movl	%ecx, -108(%rbp)
	orl	%ecx, %eax
	movl	%eax, -84(%rbp)
	movl	-112(%rbp), %eax
	xorl	%eax, -88(%rbp)
	movl	-88(%rbp), %ecx
	xorl	%ecx, %eax
	movl	%eax, -112(%rbp)
	orl	%eax, %ecx
	movl	%ecx, -88(%rbp)
	xorl	%r14d, -92(%rbp)
	movl	-92(%rbp), %ecx
	xorl	%ecx, %r14d
	orl	%r14d, %ecx
	movl	%ecx, -92(%rbp)
	xorl	%r12d, %r15d
	xorl	%r15d, %r12d
	orl	%r12d, %r15d
	xorl	%ebx, %r13d
	xorl	%r13d, %ebx
	orl	%ebx, %r13d
	xorl	%edx, -100(%rbp)
	movl	-100(%rbp), %eax
	xorl	%eax, %edx
	orl	%edx, %eax
	movl	%eax, -100(%rbp)
	xorl	%esi, -96(%rbp)
	movl	-96(%rbp), %ecx
	xorl	%ecx, %esi
	orl	%esi, %ecx
	movl	%ecx, -96(%rbp)
	xorl	%r8d, %edi
	xorl	%edi, %r8d
	orl	%r8d, %edi
	xorl	%r10d, %r9d
	xorl	%r9d, %r10d
	orl	%r10d, %r9d
	movl	-104(%rbp), %eax
	xorl	%eax, %r11d
	xorl	%r11d, %eax
	movl	%eax, -104(%rbp)
	orl	%eax, %r11d
	movl	-108(%rbp), %ecx
	xorl	%ecx, -84(%rbp)
	movl	-84(%rbp), %eax
	xorl	%eax, %ecx
	movl	%ecx, -108(%rbp)
	orl	%ecx, %eax
	movl	%eax, -84(%rbp)
	movl	-112(%rbp), %eax
	xorl	%eax, -88(%rbp)
	movl	-88(%rbp), %ecx
	xorl	%ecx, %eax
	movl	%eax, -112(%rbp)
	orl	%eax, %ecx
	movl	%ecx, -88(%rbp)
	xorl	%r14d, -92(%rbp)
	movl	-92(%rbp), %ecx
	xorl	%ecx, %r14d
	orl	%r14d, %ecx
	movl	%ecx, -92(%rbp)
	xorl	%r12d, %r15d
	xorl	%r15d, %r12d
	orl	%r12d, %r15d
	xorl	%ebx, %r13d
	xorl	%r13d, %ebx
	orl	%ebx, %r13d
	xorl	%edx, -100(%rbp)
	movl	-100(%rbp), %eax
	xorl	%eax, %edx
	orl	%edx, %eax
	movl	%eax, -100(%rbp)
	xorl	%esi, -96(%rbp)
	movl	-96(%rbp), %ecx
	xorl	%ecx, %esi
	orl	%esi, %ecx
	movl	%ecx, -96(%rbp)
	xorl	%r8d, %edi
	xorl	%edi, %r8d
	orl	%r8d, %edi
	xorl	%r10d, %r9d
	xorl	%r9d, %r10d
	orl	%r10d, %r9d
	movl	-104(%rbp), %eax
	xorl	%eax, %r11d
	xorl	%r11d, %eax
	movl	%eax, -104(%rbp)
	orl	%eax, %r11d
	movl	-108(%rbp), %ecx
	xorl	%ecx, -84(%rbp)
	movl	-84(%rbp), %eax
	xorl	%eax, %ecx
	movl	%ecx, -108(%rbp)
	orl	%ecx, %eax
	movl	%eax, -84(%rbp)
	movl	-112(%rbp), %eax
	xorl	%eax, -88(%rbp)
	movl	-88(%rbp), %ecx
	xorl	%ecx, %eax
	movl	%eax, -112(%rbp)
	orl	%eax, %ecx
	movl	%ecx, -88(%rbp)
	xorl	%r14d, -92(%rbp)
	movl	-92(%rbp), %ecx
	xorl	%ecx, %r14d
	orl	%r14d, %ecx
	movl	%ecx, -92(%rbp)
	xorl	%r12d, %r15d
	xorl	%r15d, %r12d
	orl	%r12d, %r15d
	xorl	%ebx, %r13d
	xorl	%r13d, %ebx
	orl	%ebx, %r13d
	xorl	%edx, -100(%rbp)
	movl	-100(%rbp), %eax
	xorl	%eax, %edx
	orl	%edx, %eax
	movl	%eax, -100(%rbp)
	xorl	%esi, -96(%rbp)
	movl	-96(%rbp), %ecx
	xorl	%ecx, %esi
	orl	%esi, %ecx
	movl	%ecx, -96(%rbp)
	xorl	%r8d, %edi
	xorl	%edi, %r8d
	orl	%r8d, %edi
	xorl	%r10d, %r9d
	xorl	%r9d, %r10d
	orl	%r10d, %r9d
	movl	-104(%rbp), %eax
	xorl	%eax, %r11d
	xorl	%r11d, %eax
	movl	%eax, -104(%rbp)
	orl	%eax, %r11d
	movl	-108(%rbp), %ecx
	xorl	%ecx, -84(%rbp)
	movl	-84(%rbp), %eax
	xorl	%eax, %ecx
	movl	%ecx, -108(%rbp)
	orl	%ecx, %eax
	movl	%eax, -84(%rbp)
	movl	-112(%rbp), %eax
	xorl	%eax, -88(%rbp)
	movl	-88(%rbp), %ecx
	xorl	%ecx, %eax
	movl	%eax, -112(%rbp)
	orl	%eax, %ecx
	movl	%ecx, -88(%rbp)
	xorl	%r14d, -92(%rbp)
	movl	-92(%rbp), %ecx
	xorl	%ecx, %r14d
	orl	%r14d, %ecx
	movl	%ecx, -92(%rbp)
	xorl	%r12d, %r15d
	xorl	%r15d, %r12d
	orl	%r12d, %r15d
	xorl	%ebx, %r13d
	xorl	%r13d, %ebx
	orl	%ebx, %r13d
	xorl	%edx, -100(%rbp)
	movl	-100(%rbp), %eax
	xorl	%eax, %edx
	orl	%edx, %eax
	movl	%eax, -100(%rbp)
	xorl	%esi, -96(%rbp)
	movl	-96(%rbp), %ecx
	xorl	%ecx, %esi
	orl	%esi, %ecx
	xorl	%r8d, %edi
	xorl	%edi, %r8d
	orl	%r8d, %edi
	movl	%edi, -116(%rbp)
	xorl	%r10d, %r9d
	xorl	%r9d, %r10d
	orl	%r10d, %r9d
	movl	-104(%rbp), %edi
	movl	%edi, %eax
	xorl	%eax, %r11d
	xorl	%r11d, %edi
	movl	%edi, -104(%rbp)
	movl	%edi, %eax
	orl	%eax, %r11d
	movl	-108(%rbp), %edi
	xorl	%edi, -84(%rbp)
	movl	-84(%rbp), %eax
	xorl	%eax, %edi
	movl	%edi, -108(%rbp)
	orl	%edi, %eax
	movl	%eax, -84(%rbp)
	movl	-112(%rbp), %eax
	xorl	%eax, -88(%rbp)
	movl	-88(%rbp), %edi
	xorl	%edi, %eax
	movl	%eax, -112(%rbp)
	orl	%eax, %edi
	movl	%edi, -88(%rbp)
	xorl	%r14d, -92(%rbp)
	movl	-92(%rbp), %edi
	xorl	%edi, %r14d
	orl	%r14d, %edi
	movl	%edi, -92(%rbp)
	xorl	%r12d, %r15d
	xorl	%r15d, %r12d
	orl	%r12d, %r15d
	xorl	%ebx, %r13d
	xorl	%r13d, %ebx
	orl	%ebx, %r13d
	xorl	%edx, -100(%rbp)
	movl	-100(%rbp), %eax
	xorl	%eax, %edx
	orl	%edx, %eax
	xorl	%esi, %ecx
	xorl	%ecx, %esi
	orl	%esi, %ecx
	movl	%ecx, -96(%rbp)
	xorl	%r8d, -116(%rbp)
	movl	-116(%rbp), %edi
	xorl	%edi, %r8d
	orl	%r8d, %edi
	movl	%edi, -116(%rbp)
	xorl	%r10d, %r9d
	xorl	%r9d, %r10d
	orl	%r10d, %r9d
	movl	-104(%rbp), %ecx
	xorl	%ecx, %r11d
	xorl	%r11d, %ecx
	movl	%ecx, -104(%rbp)
	orl	%ecx, %r11d
	movl	-108(%rbp), %edi
	xorl	%edi, -84(%rbp)
	movl	-84(%rbp), %ecx
	xorl	%ecx, %edi
	movl	%edi, -108(%rbp)
	orl	%edi, %ecx
	movl	%ecx, -84(%rbp)
	movl	-112(%rbp), %ecx
	xorl	%ecx, -88(%rbp)
	movl	-88(%rbp), %edi
	xorl	%edi, %ecx
	movl	%ecx, -112(%rbp)
	orl	%ecx, %edi
	movl	%edi, -88(%rbp)
	xorl	%r14d, -92(%rbp)
	movl	-92(%rbp), %edi
	xorl	%edi, %r14d
	orl	%r14d, %edi
	movl	%edi, -92(%rbp)
	xorl	%r12d, %r15d
	xorl	%r15d, %r12d
	orl	%r12d, %r15d
	xorl	%ebx, %r13d
	xorl	%r13d, %ebx
	orl	%ebx, %r13d
	xorl	%edx, %eax
	xorl	%eax, %edx
	orl	%edx, %eax
	xorl	%esi, -96(%rbp)
	movl	-96(%rbp), %ecx
	xorl	%ecx, %esi
	orl	%esi, %ecx
	movl	%ecx, -96(%rbp)
	xorl	%r8d, -116(%rbp)
	movl	-116(%rbp), %edi
	xorl	%edi, %r8d
	orl	%r8d, %edi
	movl	%edi, -116(%rbp)
	xorl	%r10d, %r9d
	xorl	%r9d, %r10d
	orl	%r10d, %r9d
	movl	-104(%rbp), %ecx
	xorl	%ecx, %r11d
	xorl	%r11d, %ecx
	movl	%ecx, -104(%rbp)
	orl	%ecx, %r11d
	movl	-108(%rbp), %edi
	xorl	%edi, -84(%rbp)
	movl	-84(%rbp), %ecx
	xorl	%ecx, %edi
	movl	%edi, -108(%rbp)
	orl	%edi, %ecx
	movl	%ecx, -84(%rbp)
	movl	-112(%rbp), %ecx
	xorl	%ecx, -88(%rbp)
	movl	-88(%rbp), %edi
	xorl	%edi, %ecx
	movl	%ecx, -112(%rbp)
	orl	%ecx, %edi
	movl	%edi, -88(%rbp)
	xorl	%r14d, -92(%rbp)
	movl	-92(%rbp), %edi
	xorl	%edi, %r14d
	orl	%r14d, %edi
	movl	%edi, -92(%rbp)
	xorl	%r12d, %r15d
	xorl	%r15d, %r12d
	orl	%r12d, %r15d
	xorl	%ebx, %r13d
	xorl	%r13d, %ebx
	orl	%ebx, %r13d
	xorl	%edx, %eax
	xorl	%eax, %edx
	movl	%edx, -128(%rbp)
	orl	%edx, %eax
	movl	%eax, -100(%rbp)
	xorl	%esi, -96(%rbp)
	movl	-96(%rbp), %ecx
	xorl	%ecx, %esi
	orl	%esi, %ecx
	movl	%ecx, -96(%rbp)
	xorl	%r8d, -116(%rbp)
	movl	-116(%rbp), %edi
	xorl	%edi, %r8d
	orl	%r8d, %edi
	movl	%edi, -116(%rbp)
	xorl	%r10d, %r9d
	xorl	%r9d, %r10d
	orl	%r10d, %r9d
	movl	%r9d, -120(%rbp)
	movl	-104(%rbp), %eax
	xorl	%eax, %r11d
	xorl	%r11d, %eax
	movl	%eax, -104(%rbp)
	orl	%eax, %r11d
	movl	%r11d, -124(%rbp)
	movl	-108(%rbp), %eax
	xorl	%eax, -84(%rbp)
	movl	-84(%rbp), %ecx
	xorl	%ecx, %eax
	movl	%eax, -108(%rbp)
	orl	%eax, %ecx
	movl	%ecx, -84(%rbp)
	movl	-112(%rbp), %ecx
	xorl	%ecx, -88(%rbp)
	movl	-88(%rbp), %edi
	xorl	%edi, %ecx
	movl	%ecx, -112(%rbp)
	orl	%ecx, %edi
	movl	%edi, -88(%rbp)
	xorl	%r14d, -92(%rbp)
	movl	-92(%rbp), %edi
	xorl	%edi, %r14d
	orl	%r14d, %edi
	movl	%edi, -92(%rbp)
	xorl	%r12d, %r15d
	xorl	%r15d, %r12d
	orl	%r12d, %r15d
	xorl	%ebx, %r13d
	xorl	%r13d, %ebx
	orl	%ebx, %r13d
.L46:
	movq	-136(%rbp), %rax
	leaq	-1(%rax), %rdx
	movq	%rdx, -136(%rbp)
	testq	%rax, %rax
	jne	.L47
	movl	-100(%rbp), %edi
	call	use_int@PLT
	movl	-96(%rbp), %edi
	call	use_int@PLT
	movl	-116(%rbp), %edi
	call	use_int@PLT
	movl	-120(%rbp), %edi
	call	use_int@PLT
	movl	-124(%rbp), %edi
	call	use_int@PLT
	movl	-84(%rbp), %edi
	call	use_int@PLT
	movl	-88(%rbp), %edi
	call	use_int@PLT
	movl	-92(%rbp), %edi
	call	use_int@PLT
	movl	%r15d, %edi
	call	use_int@PLT
	movl	%r13d, %edi
	call	use_int@PLT
	addq	$104, %rsp
	popq	%rbx
	popq	%r12
	popq	%r13
	popq	%r14
	popq	%r15
	popq	%rbp
	.cfi_def_cfa 7, 8
	ret
	.cfi_endproc
.LFE18:
	.size	integer_bit_9, .-integer_bit_9
	.globl	integer_bit_10
	.type	integer_bit_10, @function
integer_bit_10:
.LFB19:
	.cfi_startproc
	endbr64
	pushq	%rbp
	.cfi_def_cfa_offset 16
	.cfi_offset 6, -16
	movq	%rsp, %rbp
	.cfi_def_cfa_register 6
	pushq	%r15
	pushq	%r14
	pushq	%r13
	pushq	%r12
	pushq	%rbx
	subq	$104, %rsp
	.cfi_offset 15, -24
	.cfi_offset 14, -32
	.cfi_offset 13, -40
	.cfi_offset 12, -48
	.cfi_offset 3, -56
	movq	%rdi, -72(%rbp)
	movq	%rsi, -80(%rbp)
	movq	-72(%rbp), %rax
	movq	%rax, -144(%rbp)
	movq	-80(%rbp), %rax
	movq	%rax, -56(%rbp)
	movq	-56(%rbp), %rax
	movl	12(%rax), %eax
	addl	$1, %eax
	movl	%eax, -104(%rbp)
	addl	$1, %eax
	movl	%eax, -136(%rbp)
	movq	-56(%rbp), %rax
	movl	16(%rax), %eax
	addl	$1, %eax
	movl	%eax, -100(%rbp)
	addl	$2, %eax
	movl	%eax, %esi
	movq	-56(%rbp), %rax
	movl	20(%rax), %eax
	addl	$1, %eax
	movl	%eax, -124(%rbp)
	addl	$3, %eax
	movl	%eax, %r8d
	movq	-56(%rbp), %rax
	movl	24(%rax), %eax
	addl	$1, %eax
	movl	%eax, -128(%rbp)
	addl	$4, %eax
	movl	%eax, %r10d
	movq	-56(%rbp), %rax
	movl	28(%rax), %eax
	addl	$1, %eax
	movl	%eax, -132(%rbp)
	addl	$5, %eax
	movl	%eax, -108(%rbp)
	movq	-56(%rbp), %rax
	movl	32(%rax), %eax
	addl	$1, %eax
	movl	%eax, -84(%rbp)
	addl	$6, %eax
	movl	%eax, -112(%rbp)
	movq	-56(%rbp), %rax
	movl	36(%rax), %eax
	addl	$1, %eax
	movl	%eax, -88(%rbp)
	addl	$7, %eax
	movl	%eax, -116(%rbp)
	movq	-56(%rbp), %rax
	movl	40(%rax), %eax
	addl	$1, %eax
	movl	%eax, -92(%rbp)
	addl	$8, %eax
	movl	%eax, -120(%rbp)
	movq	-56(%rbp), %rax
	movl	44(%rax), %eax
	addl	$1, %eax
	movl	%eax, -96(%rbp)
	leal	9(%rax), %r14d
	movq	-56(%rbp), %rax
	movl	48(%rax), %eax
	leal	1(%rax), %r15d
	leal	10(%r15), %r12d
	movq	-56(%rbp), %rax
	movl	52(%rax), %eax
	leal	1(%rax), %r13d
	leal	11(%r13), %ebx
	jmp	.L49
.L50:
	movl	-136(%rbp), %edx
	xorl	%edx, -104(%rbp)
	movl	-104(%rbp), %eax
	xorl	%eax, %edx
	orl	%edx, %eax
	movl	%eax, -104(%rbp)
	xorl	%esi, -100(%rbp)
	movl	-100(%rbp), %ecx
	xorl	%ecx, %esi
	orl	%esi, %ecx
	movl	%ecx, -100(%rbp)
	xorl	%r8d, -124(%rbp)
	movl	-124(%rbp), %edi
	xorl	%edi, %r8d
	orl	%r8d, %edi
	xorl	%r10d, -128(%rbp)
	movl	-128(%rbp), %r9d
	xorl	%r9d, %r10d
	orl	%r10d, %r9d
	movl	-108(%rbp), %eax
	xorl	%eax, -132(%rbp)
	movl	-132(%rbp), %r11d
	xorl	%r11d, %eax
	movl	%eax, -108(%rbp)
	orl	%eax, %r11d
	movl	-112(%rbp), %ecx
	xorl	%ecx, -84(%rbp)
	movl	-84(%rbp), %eax
	xorl	%eax, %ecx
	movl	%ecx, -112(%rbp)
	orl	%ecx, %eax
	movl	%eax, -84(%rbp)
	movl	-116(%rbp), %eax
	xorl	%eax, -88(%rbp)
	movl	-88(%rbp), %ecx
	xorl	%ecx, %eax
	movl	%eax, -116(%rbp)
	orl	%eax, %ecx
	movl	%ecx, -88(%rbp)
	movl	-120(%rbp), %eax
	xorl	%eax, -92(%rbp)
	movl	-92(%rbp), %ecx
	xorl	%ecx, %eax
	movl	%eax, -120(%rbp)
	orl	%eax, %ecx
	movl	%ecx, -92(%rbp)
	xorl	%r14d, -96(%rbp)
	movl	-96(%rbp), %ecx
	xorl	%ecx, %r14d
	orl	%r14d, %ecx
	movl	%ecx, -96(%rbp)
	xorl	%r12d, %r15d
	xorl	%r15d, %r12d
	orl	%r12d, %r15d
	xorl	%ebx, %r13d
	xorl	%r13d, %ebx
	orl	%ebx, %r13d
	xorl	%edx, -104(%rbp)
	movl	-104(%rbp), %eax
	xorl	%eax, %edx
	orl	%edx, %eax
	movl	%eax, -104(%rbp)
	xorl	%esi, -100(%rbp)
	movl	-100(%rbp), %ecx
	xorl	%ecx, %esi
	orl	%esi, %ecx
	movl	%ecx, -100(%rbp)
	xorl	%r8d, %edi
	xorl	%edi, %r8d
	orl	%r8d, %edi
	xorl	%r10d, %r9d
	xorl	%r9d, %r10d
	orl	%r10d, %r9d
	movl	-108(%rbp), %eax
	xorl	%eax, %r11d
	movl	%eax, %ecx
	xorl	%r11d, %ecx
	movl	%ecx, %eax
	movl	%eax, -108(%rbp)
	orl	%eax, %r11d
	movl	-112(%rbp), %ecx
	xorl	%ecx, -84(%rbp)
	movl	-84(%rbp), %eax
	xorl	%eax, %ecx
	movl	%ecx, -112(%rbp)
	orl	%ecx, %eax
	movl	%eax, -84(%rbp)
	movl	-116(%rbp), %eax
	xorl	%eax, -88(%rbp)
	movl	-88(%rbp), %ecx
	xorl	%ecx, %eax
	movl	%eax, -116(%rbp)
	orl	%eax, %ecx
	movl	%ecx, -88(%rbp)
	movl	-120(%rbp), %eax
	xorl	%eax, -92(%rbp)
	movl	-92(%rbp), %ecx
	xorl	%ecx, %eax
	movl	%eax, -120(%rbp)
	orl	%eax, %ecx
	movl	%ecx, -92(%rbp)
	xorl	%r14d, -96(%rbp)
	movl	-96(%rbp), %ecx
	xorl	%ecx, %r14d
	orl	%r14d, %ecx
	movl	%ecx, -96(%rbp)
	xorl	%r12d, %r15d
	xorl	%r15d, %r12d
	orl	%r12d, %r15d
	xorl	%ebx, %r13d
	xorl	%r13d, %ebx
	orl	%ebx, %r13d
	xorl	%edx, -104(%rbp)
	movl	-104(%rbp), %eax
	xorl	%eax, %edx
	orl	%edx, %eax
	movl	%eax, -104(%rbp)
	xorl	%esi, -100(%rbp)
	movl	-100(%rbp), %ecx
	xorl	%ecx, %esi
	orl	%esi, %ecx
	movl	%ecx, -100(%rbp)
	xorl	%r8d, %edi
	xorl	%edi, %r8d
	orl	%r8d, %edi
	xorl	%r10d, %r9d
	xorl	%r9d, %r10d
	orl	%r10d, %r9d
	movl	-108(%rbp), %eax
	xorl	%eax, %r11d
	movl	%eax, %ecx
	xorl	%r11d, %ecx
	movl	%ecx, %eax
	movl	%eax, -108(%rbp)
	orl	%eax, %r11d
	movl	-112(%rbp), %ecx
	xorl	%ecx, -84(%rbp)
	movl	-84(%rbp), %eax
	xorl	%eax, %ecx
	movl	%ecx, -112(%rbp)
	orl	%ecx, %eax
	movl	%eax, -84(%rbp)
	movl	-116(%rbp), %eax
	xorl	%eax, -88(%rbp)
	movl	-88(%rbp), %ecx
	xorl	%ecx, %eax
	movl	%eax, -116(%rbp)
	orl	%eax, %ecx
	movl	%ecx, -88(%rbp)
	movl	-120(%rbp), %eax
	xorl	%eax, -92(%rbp)
	movl	-92(%rbp), %ecx
	xorl	%ecx, %eax
	movl	%eax, -120(%rbp)
	orl	%eax, %ecx
	movl	%ecx, -92(%rbp)
	xorl	%r14d, -96(%rbp)
	movl	-96(%rbp), %ecx
	xorl	%ecx, %r14d
	orl	%r14d, %ecx
	movl	%ecx, -96(%rbp)
	xorl	%r12d, %r15d
	xorl	%r15d, %r12d
	orl	%r12d, %r15d
	xorl	%ebx, %r13d
	xorl	%r13d, %ebx
	orl	%ebx, %r13d
	xorl	%edx, -104(%rbp)
	movl	-104(%rbp), %eax
	xorl	%eax, %edx
	orl	%edx, %eax
	movl	%eax, -104(%rbp)
	xorl	%esi, -100(%rbp)
	movl	-100(%rbp), %ecx
	xorl	%ecx, %esi
	orl	%esi, %ecx
	movl	%ecx, -100(%rbp)
	xorl	%r8d, %edi
	xorl	%edi, %r8d
	orl	%r8d, %edi
	xorl	%r10d, %r9d
	xorl	%r9d, %r10d
	orl	%r10d, %r9d
	movl	-108(%rbp), %eax
	xorl	%eax, %r11d
	movl	%eax, %ecx
	xorl	%r11d, %ecx
	movl	%ecx, %eax
	movl	%eax, -108(%rbp)
	orl	%eax, %r11d
	movl	-112(%rbp), %ecx
	xorl	%ecx, -84(%rbp)
	movl	-84(%rbp), %eax
	xorl	%eax, %ecx
	movl	%ecx, -112(%rbp)
	orl	%ecx, %eax
	movl	%eax, -84(%rbp)
	movl	-116(%rbp), %eax
	xorl	%eax, -88(%rbp)
	movl	-88(%rbp), %ecx
	xorl	%ecx, %eax
	movl	%eax, -116(%rbp)
	orl	%eax, %ecx
	movl	%ecx, -88(%rbp)
	movl	-120(%rbp), %eax
	xorl	%eax, -92(%rbp)
	movl	-92(%rbp), %ecx
	xorl	%ecx, %eax
	movl	%eax, -120(%rbp)
	orl	%eax, %ecx
	movl	%ecx, -92(%rbp)
	xorl	%r14d, -96(%rbp)
	movl	-96(%rbp), %ecx
	xorl	%ecx, %r14d
	orl	%r14d, %ecx
	movl	%ecx, -96(%rbp)
	xorl	%r12d, %r15d
	xorl	%r15d, %r12d
	orl	%r12d, %r15d
	xorl	%ebx, %r13d
	xorl	%r13d, %ebx
	orl	%ebx, %r13d
	xorl	%edx, -104(%rbp)
	movl	-104(%rbp), %eax
	xorl	%eax, %edx
	orl	%edx, %eax
	movl	%eax, -104(%rbp)
	xorl	%esi, -100(%rbp)
	movl	-100(%rbp), %ecx
	xorl	%ecx, %esi
	orl	%esi, %ecx
	movl	%ecx, -100(%rbp)
	xorl	%r8d, %edi
	xorl	%edi, %r8d
	orl	%r8d, %edi
	xorl	%r10d, %r9d
	xorl	%r9d, %r10d
	orl	%r10d, %r9d
	movl	-108(%rbp), %eax
	xorl	%eax, %r11d
	movl	%eax, %ecx
	xorl	%r11d, %ecx
	movl	%ecx, %eax
	movl	%eax, -108(%rbp)
	orl	%eax, %r11d
	movl	-112(%rbp), %ecx
	xorl	%ecx, -84(%rbp)
	movl	-84(%rbp), %eax
	xorl	%eax, %ecx
	movl	%ecx, -112(%rbp)
	orl	%ecx, %eax
	movl	%eax, -84(%rbp)
	movl	-116(%rbp), %eax
	xorl	%eax, -88(%rbp)
	movl	-88(%rbp), %ecx
	xorl	%ecx, %eax
	movl	%eax, -116(%rbp)
	orl	%eax, %ecx
	movl	%ecx, -88(%rbp)
	movl	-120(%rbp), %eax
	xorl	%eax, -92(%rbp)
	movl	-92(%rbp), %ecx
	xorl	%ecx, %eax
	movl	%eax, -120(%rbp)
	orl	%eax, %ecx
	movl	%ecx, -92(%rbp)
	xorl	%r14d, -96(%rbp)
	movl	-96(%rbp), %ecx
	xorl	%ecx, %r14d
	orl	%r14d, %ecx
	movl	%ecx, -96(%rbp)
	xorl	%r12d, %r15d
	xorl	%r15d, %r12d
	orl	%r12d, %r15d
	xorl	%ebx, %r13d
	xorl	%r13d, %ebx
	orl	%ebx, %r13d
	xorl	%edx, -104(%rbp)
	movl	-104(%rbp), %eax
	xorl	%eax, %edx
	orl	%edx, %eax
	movl	%eax, -104(%rbp)
	xorl	%esi, -100(%rbp)
	movl	-100(%rbp), %ecx
	xorl	%ecx, %esi
	orl	%esi, %ecx
	movl	%ecx, -100(%rbp)
	xorl	%r8d, %edi
	xorl	%edi, %r8d
	orl	%r8d, %edi
	xorl	%r10d, %r9d
	xorl	%r9d, %r10d
	orl	%r10d, %r9d
	movl	-108(%rbp), %eax
	xorl	%eax, %r11d
	movl	%eax, %ecx
	xorl	%r11d, %ecx
	movl	%ecx, %eax
	movl	%eax, -108(%rbp)
	orl	%eax, %r11d
	movl	-112(%rbp), %ecx
	xorl	%ecx, -84(%rbp)
	movl	-84(%rbp), %eax
	xorl	%eax, %ecx
	movl	%ecx, -112(%rbp)
	orl	%ecx, %eax
	movl	%eax, -84(%rbp)
	movl	-116(%rbp), %eax
	xorl	%eax, -88(%rbp)
	movl	-88(%rbp), %ecx
	xorl	%ecx, %eax
	movl	%eax, -116(%rbp)
	orl	%eax, %ecx
	movl	%ecx, -88(%rbp)
	movl	-120(%rbp), %eax
	xorl	%eax, -92(%rbp)
	movl	-92(%rbp), %ecx
	xorl	%ecx, %eax
	movl	%eax, -120(%rbp)
	orl	%eax, %ecx
	movl	%ecx, -92(%rbp)
	xorl	%r14d, -96(%rbp)
	movl	-96(%rbp), %ecx
	xorl	%ecx, %r14d
	orl	%r14d, %ecx
	movl	%ecx, -96(%rbp)
	xorl	%r12d, %r15d
	xorl	%r15d, %r12d
	orl	%r12d, %r15d
	xorl	%ebx, %r13d
	xorl	%r13d, %ebx
	orl	%ebx, %r13d
	xorl	%edx, -104(%rbp)
	movl	-104(%rbp), %eax
	xorl	%eax, %edx
	orl	%edx, %eax
	movl	%eax, -104(%rbp)
	xorl	%esi, -100(%rbp)
	movl	-100(%rbp), %ecx
	xorl	%ecx, %esi
	orl	%esi, %ecx
	xorl	%r8d, %edi
	xorl	%edi, %r8d
	orl	%r8d, %edi
	movl	%edi, -124(%rbp)
	xorl	%r10d, %r9d
	xorl	%r9d, %r10d
	orl	%r10d, %r9d
	movl	-108(%rbp), %edi
	movl	%edi, %eax
	xorl	%eax, %r11d
	xorl	%r11d, %edi
	movl	%edi, -108(%rbp)
	movl	%edi, %eax
	orl	%eax, %r11d
	movl	-112(%rbp), %edi
	xorl	%edi, -84(%rbp)
	movl	-84(%rbp), %eax
	xorl	%eax, %edi
	movl	%edi, -112(%rbp)
	orl	%edi, %eax
	movl	%eax, -84(%rbp)
	movl	-116(%rbp), %eax
	xorl	%eax, -88(%rbp)
	movl	-88(%rbp), %edi
	xorl	%edi, %eax
	movl	%eax, -116(%rbp)
	orl	%eax, %edi
	movl	%edi, -88(%rbp)
	movl	-120(%rbp), %eax
	xorl	%eax, -92(%rbp)
	movl	-92(%rbp), %edi
	xorl	%edi, %eax
	movl	%eax, -120(%rbp)
	orl	%eax, %edi
	movl	%edi, -92(%rbp)
	xorl	%r14d, -96(%rbp)
	movl	-96(%rbp), %edi
	xorl	%edi, %r14d
	orl	%r14d, %edi
	movl	%edi, -96(%rbp)
	xorl	%r12d, %r15d
	xorl	%r15d, %r12d
	orl	%r12d, %r15d
	xorl	%ebx, %r13d
	xorl	%r13d, %ebx
	orl	%ebx, %r13d
	xorl	%edx, -104(%rbp)
	movl	-104(%rbp), %eax
	xorl	%eax, %edx
	orl	%edx, %eax
	xorl	%esi, %ecx
	xorl	%ecx, %esi
	orl	%esi, %ecx
	movl	%ecx, -100(%rbp)
	xorl	%r8d, -124(%rbp)
	movl	-124(%rbp), %edi
	xorl	%edi, %r8d
	orl	%r8d, %edi
	movl	%edi, -124(%rbp)
	xorl	%r10d, %r9d
	xorl	%r9d, %r10d
	orl	%r10d, %r9d
	movl	-108(%rbp), %ecx
	xorl	%ecx, %r11d
	xorl	%r11d, %ecx
	movl	%ecx, -108(%rbp)
	orl	%ecx, %r11d
	movl	-112(%rbp), %edi
	xorl	%edi, -84(%rbp)
	movl	-84(%rbp), %ecx
	xorl	%ecx, %edi
	movl	%edi, -112(%rbp)
	orl	%edi, %ecx
	movl	%ecx, -84(%rbp)
	movl	-116(%rbp), %ecx
	xorl	%ecx, -88(%rbp)
	movl	-88(%rbp), %edi
	xorl	%edi, %ecx
	movl	%ecx, -116(%rbp)
	orl	%ecx, %edi
	movl	%edi, -88(%rbp)
	movl	-120(%rbp), %ecx
	xorl	%ecx, -92(%rbp)
	movl	-92(%rbp), %edi
	xorl	%edi, %ecx
	movl	%ecx, -120(%rbp)
	orl	%ecx, %edi
	movl	%edi, -92(%rbp)
	xorl	%r14d, -96(%rbp)
	movl	-96(%rbp), %edi
	xorl	%edi, %r14d
	orl	%r14d, %edi
	movl	%edi, -96(%rbp)
	xorl	%r12d, %r15d
	xorl	%r15d, %r12d
	orl	%r12d, %r15d
	xorl	%ebx, %r13d
	xorl	%r13d, %ebx
	orl	%ebx, %r13d
	xorl	%edx, %eax
	xorl	%eax, %edx
	orl	%edx, %eax
	xorl	%esi, -100(%rbp)
	movl	-100(%rbp), %ecx
	xorl	%ecx, %esi
	orl	%esi, %ecx
	movl	%ecx, -100(%rbp)
	xorl	%r8d, -124(%rbp)
	movl	-124(%rbp), %edi
	xorl	%edi, %r8d
	orl	%r8d, %edi
	movl	%edi, -124(%rbp)
	xorl	%r10d, %r9d
	xorl	%r9d, %r10d
	orl	%r10d, %r9d
	movl	-108(%rbp), %ecx
	xorl	%ecx, %r11d
	movl	%ecx, %edi
	xorl	%r11d, %edi
	movl	%edi, %ecx
	movl	%ecx, -108(%rbp)
	orl	%ecx, %r11d
	movl	-112(%rbp), %edi
	xorl	%edi, -84(%rbp)
	movl	-84(%rbp), %ecx
	xorl	%ecx, %edi
	movl	%edi, -112(%rbp)
	orl	%edi, %ecx
	movl	%ecx, -84(%rbp)
	movl	-116(%rbp), %ecx
	xorl	%ecx, -88(%rbp)
	movl	-88(%rbp), %edi
	xorl	%edi, %ecx
	movl	%ecx, -116(%rbp)
	orl	%ecx, %edi
	movl	%edi, -88(%rbp)
	movl	-120(%rbp), %ecx
	xorl	%ecx, -92(%rbp)
	movl	-92(%rbp), %edi
	xorl	%edi, %ecx
	movl	%ecx, -120(%rbp)
	orl	%ecx, %edi
	movl	%edi, -92(%rbp)
	xorl	%r14d, -96(%rbp)
	movl	-96(%rbp), %edi
	xorl	%edi, %r14d
	orl	%r14d, %edi
	movl	%edi, -96(%rbp)
	xorl	%r12d, %r15d
	xorl	%r15d, %r12d
	orl	%r12d, %r15d
	xorl	%ebx, %r13d
	xorl	%r13d, %ebx
	orl	%ebx, %r13d
	xorl	%edx, %eax
	xorl	%eax, %edx
	movl	%edx, -136(%rbp)
	orl	%edx, %eax
	movl	%eax, -104(%rbp)
	xorl	%esi, -100(%rbp)
	movl	-100(%rbp), %ecx
	xorl	%ecx, %esi
	orl	%esi, %ecx
	movl	%ecx, -100(%rbp)
	xorl	%r8d, -124(%rbp)
	movl	-124(%rbp), %edi
	xorl	%edi, %r8d
	orl	%r8d, %edi
	movl	%edi, -124(%rbp)
	xorl	%r10d, %r9d
	xorl	%r9d, %r10d
	orl	%r10d, %r9d
	movl	%r9d, -128(%rbp)
	movl	-108(%rbp), %eax
	xorl	%eax, %r11d
	xorl	%r11d, %eax
	movl	%eax, -108(%rbp)
	orl	%eax, %r11d
	movl	%r11d, -132(%rbp)
	movl	-112(%rbp), %eax
	xorl	%eax, -84(%rbp)
	movl	-84(%rbp), %ecx
	xorl	%ecx, %eax
	movl	%eax, -112(%rbp)
	orl	%eax, %ecx
	movl	%ecx, -84(%rbp)
	movl	-116(%rbp), %ecx
	xorl	%ecx, -88(%rbp)
	movl	-88(%rbp), %edi
	xorl	%edi, %ecx
	movl	%ecx, -116(%rbp)
	orl	%ecx, %edi
	movl	%edi, -88(%rbp)
	movl	-120(%rbp), %ecx
	xorl	%ecx, -92(%rbp)
	movl	-92(%rbp), %edi
	xorl	%edi, %ecx
	movl	%ecx, -120(%rbp)
	orl	%ecx, %edi
	movl	%edi, -92(%rbp)
	xorl	%r14d, -96(%rbp)
	movl	-96(%rbp), %edi
	xorl	%edi, %r14d
	orl	%r14d, %edi
	movl	%edi, -96(%rbp)
	xorl	%r12d, %r15d
	xorl	%r15d, %r12d
	orl	%r12d, %r15d
	xorl	%ebx, %r13d
	xorl	%r13d, %ebx
	orl	%ebx, %r13d
.L49:
	movq	-144(%rbp), %rax
	leaq	-1(%rax), %rdx
	movq	%rdx, -144(%rbp)
	testq	%rax, %rax
	jne	.L50
	movl	-104(%rbp), %edi
	call	use_int@PLT
	movl	-100(%rbp), %edi
	call	use_int@PLT
	movl	-124(%rbp), %edi
	call	use_int@PLT
	movl	-128(%rbp), %edi
	call	use_int@PLT
	movl	-132(%rbp), %edi
	call	use_int@PLT
	movl	-84(%rbp), %edi
	call	use_int@PLT
	movl	-88(%rbp), %edi
	call	use_int@PLT
	movl	-92(%rbp), %edi
	call	use_int@PLT
	movl	-96(%rbp), %edi
	call	use_int@PLT
	movl	%r15d, %edi
	call	use_int@PLT
	movl	%r13d, %edi
	call	use_int@PLT
	addq	$104, %rsp
	popq	%rbx
	popq	%r12
	popq	%r13
	popq	%r14
	popq	%r15
	popq	%rbp
	.cfi_def_cfa 7, 8
	ret
	.cfi_endproc
.LFE19:
	.size	integer_bit_10, .-integer_bit_10
	.globl	integer_bit_11
	.type	integer_bit_11, @function
integer_bit_11:
.LFB20:
	.cfi_startproc
	endbr64
	pushq	%rbp
	.cfi_def_cfa_offset 16
	.cfi_offset 6, -16
	movq	%rsp, %rbp
	.cfi_def_cfa_register 6
	pushq	%r15
	pushq	%r14
	pushq	%r13
	pushq	%r12
	pushq	%rbx
	subq	$120, %rsp
	.cfi_offset 15, -24
	.cfi_offset 14, -32
	.cfi_offset 13, -40
	.cfi_offset 12, -48
	.cfi_offset 3, -56
	movq	%rdi, -72(%rbp)
	movq	%rsi, -80(%rbp)
	movq	-72(%rbp), %rax
	movq	%rax, -152(%rbp)
	movq	-80(%rbp), %rax
	movq	%rax, -56(%rbp)
	movq	-56(%rbp), %rax
	movl	12(%rax), %eax
	addl	$1, %eax
	movl	%eax, -128(%rbp)
	addl	$1, %eax
	movl	%eax, -144(%rbp)
	movq	-56(%rbp), %rax
	movl	16(%rax), %eax
	addl	$1, %eax
	movl	%eax, -132(%rbp)
	addl	$2, %eax
	movl	%eax, %esi
	movq	-56(%rbp), %rax
	movl	20(%rax), %eax
	addl	$1, %eax
	movl	%eax, -104(%rbp)
	addl	$3, %eax
	movl	%eax, %r8d
	movq	-56(%rbp), %rax
	movl	24(%rax), %eax
	addl	$1, %eax
	movl	%eax, -136(%rbp)
	addl	$4, %eax
	movl	%eax, %r10d
	movq	-56(%rbp), %rax
	movl	28(%rax), %eax
	addl	$1, %eax
	movl	%eax, -140(%rbp)
	addl	$5, %eax
	movl	%eax, -108(%rbp)
	movq	-56(%rbp), %rax
	movl	32(%rax), %eax
	addl	$1, %eax
	movl	%eax, -84(%rbp)
	addl	$6, %eax
	movl	%eax, -112(%rbp)
	movq	-56(%rbp), %rax
	movl	36(%rax), %eax
	addl	$1, %eax
	movl	%eax, -88(%rbp)
	addl	$7, %eax
	movl	%eax, -116(%rbp)
	movq	-56(%rbp), %rax
	movl	40(%rax), %eax
	addl	$1, %eax
	movl	%eax, -92(%rbp)
	addl	$8, %eax
	movl	%eax, -120(%rbp)
	movq	-56(%rbp), %rax
	movl	44(%rax), %eax
	addl	$1, %eax
	movl	%eax, -96(%rbp)
	addl	$9, %eax
	movl	%eax, -124(%rbp)
	movq	-56(%rbp), %rax
	movl	48(%rax), %eax
	addl	$1, %eax
	movl	%eax, -100(%rbp)
	leal	10(%rax), %r14d
	movq	-56(%rbp), %rax
	movl	52(%rax), %eax
	leal	1(%rax), %r15d
	leal	11(%r15), %r12d
	movq	-56(%rbp), %rax
	movl	56(%rax), %eax
	leal	1(%rax), %r13d
	leal	12(%r13), %ebx
	jmp	.L52
.L53:
	movl	-144(%rbp), %edx
	xorl	%edx, -128(%rbp)
	movl	-128(%rbp), %eax
	xorl	%eax, %edx
	orl	%edx, %eax
	movl	%eax, -128(%rbp)
	xorl	%esi, -132(%rbp)
	movl	-132(%rbp), %ecx
	xorl	%ecx, %esi
	orl	%esi, %ecx
	xorl	%r8d, -104(%rbp)
	movl	-104(%rbp), %edi
	xorl	%edi, %r8d
	orl	%r8d, %edi
	movl	%edi, -104(%rbp)
	xorl	%r10d, -136(%rbp)
	movl	-136(%rbp), %r9d
	xorl	%r9d, %r10d
	orl	%r10d, %r9d
	movl	-108(%rbp), %eax
	xorl	%eax, -140(%rbp)
	movl	-140(%rbp), %r11d
	xorl	%r11d, %eax
	movl	%eax, -108(%rbp)
	orl	%eax, %r11d
	movl	-112(%rbp), %edi
	xorl	%edi, -84(%rbp)
	movl	-84(%rbp), %eax
	xorl	%eax, %edi
	movl	%edi, -112(%rbp)
	orl	%edi, %eax
	movl	%eax, -84(%rbp)
	movl	-116(%rbp), %eax
	xorl	%eax, -88(%rbp)
	movl	-88(%rbp), %edi
	xorl	%edi, %eax
	movl	%eax, -116(%rbp)
	orl	%eax, %edi
	movl	%edi, -88(%rbp)
	movl	-120(%rbp), %eax
	xorl	%eax, -92(%rbp)
	movl	-92(%rbp), %edi
	xorl	%edi, %eax
	movl	%eax, -120(%rbp)
	orl	%eax, %edi
	movl	%edi, -92(%rbp)
	movl	-124(%rbp), %eax
	xorl	%eax, -96(%rbp)
	movl	-96(%rbp), %edi
	xorl	%edi, %eax
	movl	%eax, -124(%rbp)
	orl	%eax, %edi
	movl	%edi, -96(%rbp)
	xorl	%r14d, -100(%rbp)
	movl	-100(%rbp), %edi
	xorl	%edi, %r14d
	orl	%r14d, %edi
	movl	%edi, -100(%rbp)
	xorl	%r12d, %r15d
	xorl	%r15d, %r12d
	orl	%r12d, %r15d
	xorl	%ebx, %r13d
	xorl	%r13d, %ebx
	orl	%ebx, %r13d
	xorl	%edx, -128(%rbp)
	movl	-128(%rbp), %eax
	xorl	%eax, %edx
	orl	%edx, %eax
	xorl	%esi, %ecx
	xorl	%ecx, %esi
	orl	%esi, %ecx
	movl	%ecx, -132(%rbp)
	xorl	%r8d, -104(%rbp)
	movl	-104(%rbp), %edi
	xorl	%edi, %r8d
	orl	%r8d, %edi
	movl	%edi, -104(%rbp)
	xorl	%r10d, %r9d
	xorl	%r9d, %r10d
	orl	%r10d, %r9d
	movl	-108(%rbp), %ecx
	xorl	%ecx, %r11d
	xorl	%r11d, %ecx
	movl	%ecx, -108(%rbp)
	orl	%ecx, %r11d
	movl	-112(%rbp), %edi
	xorl	%edi, -84(%rbp)
	movl	-84(%rbp), %ecx
	xorl	%ecx, %edi
	movl	%edi, -112(%rbp)
	orl	%edi, %ecx
	movl	%ecx, -84(%rbp)
	movl	-116(%rbp), %ecx
	xorl	%ecx, -88(%rbp)
	movl	-88(%rbp), %edi
	xorl	%edi, %ecx
	movl	%ecx, -116(%rbp)
	orl	%ecx, %edi
	movl	%edi, -88(%rbp)
	movl	-120(%rbp), %ecx
	xorl	%ecx, -92(%rbp)
	movl	-92(%rbp), %edi
	xorl	%edi, %ecx
	movl	%ecx, -120(%rbp)
	orl	%ecx, %edi
	movl	%edi, -92(%rbp)
	movl	-124(%rbp), %ecx
	xorl	%ecx, -96(%rbp)
	movl	-96(%rbp), %edi
	xorl	%edi, %ecx
	movl	%ecx, -124(%rbp)
	orl	%ecx, %edi
	movl	%edi, -96(%rbp)
	xorl	%r14d, -100(%rbp)
	movl	-100(%rbp), %edi
	xorl	%edi, %r14d
	orl	%r14d, %edi
	movl	%edi, -100(%rbp)
	xorl	%r12d, %r15d
	xorl	%r15d, %r12d
	orl	%r12d, %r15d
	xorl	%ebx, %r13d
	xorl	%r13d, %ebx
	orl	%ebx, %r13d
	xorl	%edx, %eax
	xorl	%eax, %edx
	orl	%edx, %eax
	movl	%eax, -128(%rbp)
	xorl	%esi, -132(%rbp)
	movl	-132(%rbp), %ecx
	xorl	%ecx, %esi
	orl	%esi, %ecx
	xorl	%r8d, -104(%rbp)
	movl	-104(%rbp), %edi
	xorl	%edi, %r8d
	orl	%r8d, %edi
	movl	%edi, -104(%rbp)
	xorl	%r10d, %r9d
	xorl	%r9d, %r10d
	orl	%r10d, %r9d
	movl	-108(%rbp), %eax
	xorl	%eax, %r11d
	xorl	%r11d, %eax
	movl	%eax, -108(%rbp)
	orl	%eax, %r11d
	movl	-112(%rbp), %edi
	xorl	%edi, -84(%rbp)
	movl	-84(%rbp), %eax
	xorl	%eax, %edi
	movl	%edi, -112(%rbp)
	orl	%edi, %eax
	movl	%eax, -84(%rbp)
	movl	-116(%rbp), %eax
	xorl	%eax, -88(%rbp)
	movl	-88(%rbp), %edi
	xorl	%edi, %eax
	movl	%eax, -116(%rbp)
	orl	%eax, %edi
	movl	%edi, -88(%rbp)
	movl	-120(%rbp), %eax
	xorl	%eax, -92(%rbp)
	movl	-92(%rbp), %edi
	xorl	%edi, %eax
	movl	%eax, -120(%rbp)
	orl	%eax, %edi
	movl	%edi, -92(%rbp)
	movl	-124(%rbp), %eax
	xorl	%eax, -96(%rbp)
	movl	-96(%rbp), %edi
	xorl	%edi, %eax
	movl	%eax, -124(%rbp)
	orl	%eax, %edi
	movl	%edi, -96(%rbp)
	xorl	%r14d, -100(%rbp)
	movl	-100(%rbp), %edi
	xorl	%edi, %r14d
	orl	%r14d, %edi
	movl	%edi, -100(%rbp)
	xorl	%r12d, %r15d
	xorl	%r15d, %r12d
	orl	%r12d, %r15d
	xorl	%ebx, %r13d
	xorl	%r13d, %ebx
	orl	%ebx, %r13d
	xorl	%edx, -128(%rbp)
	movl	-128(%rbp), %eax
	xorl	%eax, %edx
	orl	%edx, %eax
	xorl	%esi, %ecx
	xorl	%ecx, %esi
	orl	%esi, %ecx
	movl	%ecx, -132(%rbp)
	xorl	%r8d, -104(%rbp)
	movl	-104(%rbp), %edi
	xorl	%edi, %r8d
	orl	%r8d, %edi
	movl	%edi, -104(%rbp)
	xorl	%r10d, %r9d
	xorl	%r9d, %r10d
	orl	%r10d, %r9d
	movl	-108(%rbp), %ecx
	xorl	%ecx, %r11d
	xorl	%r11d, %ecx
	movl	%ecx, -108(%rbp)
	orl	%ecx, %r11d
	movl	-112(%rbp), %edi
	xorl	%edi, -84(%rbp)
	movl	-84(%rbp), %ecx
	xorl	%ecx, %edi
	movl	%edi, -112(%rbp)
	orl	%edi, %ecx
	movl	%ecx, -84(%rbp)
	movl	-116(%rbp), %ecx
	xorl	%ecx, -88(%rbp)
	movl	-88(%rbp), %edi
	xorl	%edi, %ecx
	movl	%ecx, -116(%rbp)
	orl	%ecx, %edi
	movl	%edi, -88(%rbp)
	movl	-120(%rbp), %ecx
	xorl	%ecx, -92(%rbp)
	movl	-92(%rbp), %edi
	xorl	%edi, %ecx
	movl	%ecx, -120(%rbp)
	orl	%ecx, %edi
	movl	%edi, -92(%rbp)
	movl	-124(%rbp), %ecx
	xorl	%ecx, -96(%rbp)
	movl	-96(%rbp), %edi
	xorl	%edi, %ecx
	movl	%ecx, -124(%rbp)
	orl	%ecx, %edi
	movl	%edi, -96(%rbp)
	xorl	%r14d, -100(%rbp)
	movl	-100(%rbp), %edi
	xorl	%edi, %r14d
	orl	%r14d, %edi
	movl	%edi, -100(%rbp)
	xorl	%r12d, %r15d
	xorl	%r15d, %r12d
	orl	%r12d, %r15d
	xorl	%ebx, %r13d
	xorl	%r13d, %ebx
	orl	%ebx, %r13d
	xorl	%edx, %eax
	xorl	%eax, %edx
	orl	%edx, %eax
	movl	%eax, -128(%rbp)
	xorl	%esi, -132(%rbp)
	movl	-132(%rbp), %ecx
	xorl	%ecx, %esi
	orl	%esi, %ecx
	xorl	%r8d, -104(%rbp)
	movl	-104(%rbp), %edi
	xorl	%edi, %r8d
	orl	%r8d, %edi
	movl	%edi, -104(%rbp)
	xorl	%r10d, %r9d
	xorl	%r9d, %r10d
	orl	%r10d, %r9d
	movl	-108(%rbp), %eax
	xorl	%eax, %r11d
	xorl	%r11d, %eax
	movl	%eax, -108(%rbp)
	orl	%eax, %r11d
	movl	-112(%rbp), %edi
	xorl	%edi, -84(%rbp)
	movl	-84(%rbp), %eax
	xorl	%eax, %edi
	movl	%edi, -112(%rbp)
	orl	%edi, %eax
	movl	%eax, -84(%rbp)
	movl	-116(%rbp), %eax
	xorl	%eax, -88(%rbp)
	movl	-88(%rbp), %edi
	xorl	%edi, %eax
	movl	%eax, -116(%rbp)
	orl	%eax, %edi
	movl	%edi, -88(%rbp)
	movl	-120(%rbp), %eax
	xorl	%eax, -92(%rbp)
	movl	-92(%rbp), %edi
	xorl	%edi, %eax
	movl	%eax, -120(%rbp)
	orl	%eax, %edi
	movl	%edi, -92(%rbp)
	movl	-124(%rbp), %eax
	xorl	%eax, -96(%rbp)
	movl	-96(%rbp), %edi
	xorl	%edi, %eax
	movl	%eax, -124(%rbp)
	orl	%eax, %edi
	movl	%edi, -96(%rbp)
	xorl	%r14d, -100(%rbp)
	movl	-100(%rbp), %edi
	xorl	%edi, %r14d
	orl	%r14d, %edi
	movl	%edi, -100(%rbp)
	xorl	%r12d, %r15d
	xorl	%r15d, %r12d
	orl	%r12d, %r15d
	xorl	%ebx, %r13d
	xorl	%r13d, %ebx
	orl	%ebx, %r13d
	xorl	%edx, -128(%rbp)
	movl	-128(%rbp), %eax
	xorl	%eax, %edx
	orl	%edx, %eax
	xorl	%esi, %ecx
	xorl	%ecx, %esi
	orl	%esi, %ecx
	movl	%ecx, -132(%rbp)
	xorl	%r8d, -104(%rbp)
	movl	-104(%rbp), %edi
	xorl	%edi, %r8d
	orl	%r8d, %edi
	movl	%edi, -104(%rbp)
	xorl	%r10d, %r9d
	xorl	%r9d, %r10d
	orl	%r10d, %r9d
	movl	-108(%rbp), %ecx
	xorl	%ecx, %r11d
	xorl	%r11d, %ecx
	movl	%ecx, -108(%rbp)
	orl	%ecx, %r11d
	movl	-112(%rbp), %edi
	xorl	%edi, -84(%rbp)
	movl	-84(%rbp), %ecx
	xorl	%ecx, %edi
	movl	%edi, -112(%rbp)
	orl	%edi, %ecx
	movl	%ecx, -84(%rbp)
	movl	-116(%rbp), %ecx
	xorl	%ecx, -88(%rbp)
	movl	-88(%rbp), %edi
	xorl	%edi, %ecx
	movl	%ecx, -116(%rbp)
	orl	%ecx, %edi
	movl	%edi, -88(%rbp)
	movl	-120(%rbp), %ecx
	xorl	%ecx, -92(%rbp)
	movl	-92(%rbp), %edi
	xorl	%edi, %ecx
	movl	%ecx, -120(%rbp)
	orl	%ecx, %edi
	movl	%edi, -92(%rbp)
	movl	-124(%rbp), %ecx
	xorl	%ecx, -96(%rbp)
	movl	-96(%rbp), %edi
	xorl	%edi, %ecx
	movl	%ecx, -124(%rbp)
	orl	%ecx, %edi
	movl	%edi, -96(%rbp)
	xorl	%r14d, -100(%rbp)
	movl	-100(%rbp), %edi
	xorl	%edi, %r14d
	orl	%r14d, %edi
	movl	%edi, -100(%rbp)
	xorl	%r12d, %r15d
	xorl	%r15d, %r12d
	orl	%r12d, %r15d
	xorl	%ebx, %r13d
	xorl	%r13d, %ebx
	orl	%ebx, %r13d
	xorl	%edx, %eax
	xorl	%eax, %edx
	orl	%edx, %eax
	movl	%eax, -128(%rbp)
	xorl	%esi, -132(%rbp)
	movl	-132(%rbp), %ecx
	xorl	%ecx, %esi
	orl	%esi, %ecx
	xorl	%r8d, -104(%rbp)
	movl	-104(%rbp), %edi
	xorl	%edi, %r8d
	orl	%r8d, %edi
	movl	%edi, -104(%rbp)
	xorl	%r10d, %r9d
	xorl	%r9d, %r10d
	orl	%r10d, %r9d
	movl	-108(%rbp), %eax
	xorl	%eax, %r11d
	xorl	%r11d, %eax
	movl	%eax, -108(%rbp)
	orl	%eax, %r11d
	movl	-112(%rbp), %edi
	xorl	%edi, -84(%rbp)
	movl	-84(%rbp), %eax
	xorl	%eax, %edi
	movl	%edi, -112(%rbp)
	orl	%edi, %eax
	movl	%eax, -84(%rbp)
	movl	-116(%rbp), %eax
	xorl	%eax, -88(%rbp)
	movl	-88(%rbp), %edi
	xorl	%edi, %eax
	movl	%eax, -116(%rbp)
	orl	%eax, %edi
	movl	%edi, -88(%rbp)
	movl	-120(%rbp), %eax
	xorl	%eax, -92(%rbp)
	movl	-92(%rbp), %edi
	xorl	%edi, %eax
	movl	%eax, -120(%rbp)
	orl	%eax, %edi
	movl	%edi, -92(%rbp)
	movl	-124(%rbp), %eax
	xorl	%eax, -96(%rbp)
	movl	-96(%rbp), %edi
	xorl	%edi, %eax
	movl	%eax, -124(%rbp)
	orl	%eax, %edi
	movl	%edi, -96(%rbp)
	xorl	%r14d, -100(%rbp)
	movl	-100(%rbp), %edi
	xorl	%edi, %r14d
	orl	%r14d, %edi
	movl	%edi, -100(%rbp)
	xorl	%r12d, %r15d
	xorl	%r15d, %r12d
	orl	%r12d, %r15d
	xorl	%ebx, %r13d
	xorl	%r13d, %ebx
	orl	%ebx, %r13d
	xorl	%edx, -128(%rbp)
	movl	-128(%rbp), %eax
	xorl	%eax, %edx
	orl	%edx, %eax
	movl	%eax, -128(%rbp)
	xorl	%esi, %ecx
	xorl	%ecx, %esi
	orl	%esi, %ecx
	movl	%ecx, -132(%rbp)
	xorl	%r8d, -104(%rbp)
	movl	-104(%rbp), %edi
	xorl	%edi, %r8d
	orl	%r8d, %edi
	xorl	%r10d, %r9d
	xorl	%r9d, %r10d
	orl	%r10d, %r9d
	movl	-108(%rbp), %ecx
	xorl	%ecx, %r11d
	xorl	%r11d, %ecx
	movl	%ecx, -108(%rbp)
	orl	%ecx, %r11d
	movl	-112(%rbp), %eax
	xorl	%eax, -84(%rbp)
	movl	-84(%rbp), %ecx
	xorl	%ecx, %eax
	movl	%eax, -112(%rbp)
	orl	%eax, %ecx
	movl	%ecx, -84(%rbp)
	movl	-116(%rbp), %ecx
	xorl	%ecx, -88(%rbp)
	movl	-88(%rbp), %eax
	xorl	%eax, %ecx
	movl	%ecx, -116(%rbp)
	orl	%ecx, %eax
	movl	%eax, -88(%rbp)
	movl	-120(%rbp), %ecx
	xorl	%ecx, -92(%rbp)
	movl	-92(%rbp), %eax
	xorl	%eax, %ecx
	movl	%ecx, -120(%rbp)
	orl	%ecx, %eax
	movl	%eax, -92(%rbp)
	movl	-124(%rbp), %ecx
	xorl	%ecx, -96(%rbp)
	movl	-96(%rbp), %eax
	xorl	%eax, %ecx
	movl	%ecx, -124(%rbp)
	orl	%ecx, %eax
	movl	%eax, -96(%rbp)
	xorl	%r14d, -100(%rbp)
	movl	-100(%rbp), %eax
	xorl	%eax, %r14d
	orl	%r14d, %eax
	movl	%eax, -100(%rbp)
	xorl	%r12d, %r15d
	xorl	%r15d, %r12d
	orl	%r12d, %r15d
	xorl	%ebx, %r13d
	xorl	%r13d, %ebx
	orl	%ebx, %r13d
	xorl	%edx, -128(%rbp)
	movl	-128(%rbp), %eax
	xorl	%eax, %edx
	orl	%edx, %eax
	xorl	%esi, -132(%rbp)
	movl	-132(%rbp), %ecx
	xorl	%ecx, %esi
	orl	%esi, %ecx
	movl	%ecx, -132(%rbp)
	xorl	%r8d, %edi
	xorl	%edi, %r8d
	orl	%r8d, %edi
	movl	%edi, -104(%rbp)
	xorl	%r10d, %r9d
	xorl	%r9d, %r10d
	orl	%r10d, %r9d
	movl	-108(%rbp), %edi
	xorl	%edi, %r11d
	xorl	%r11d, %edi
	movl	%edi, -108(%rbp)
	orl	%edi, %r11d
	movl	-112(%rbp), %ecx
	xorl	%ecx, -84(%rbp)
	movl	-84(%rbp), %edi
	xorl	%edi, %ecx
	movl	%ecx, -112(%rbp)
	orl	%ecx, %edi
	movl	%edi, -84(%rbp)
	movl	-116(%rbp), %edi
	xorl	%edi, -88(%rbp)
	movl	-88(%rbp), %ecx
	xorl	%ecx, %edi
	movl	%edi, -116(%rbp)
	orl	%edi, %ecx
	movl	%ecx, -88(%rbp)
	movl	-120(%rbp), %edi
	xorl	%edi, -92(%rbp)
	movl	-92(%rbp), %ecx
	xorl	%ecx, %edi
	movl	%edi, -120(%rbp)
	orl	%edi, %ecx
	movl	%ecx, -92(%rbp)
	movl	-124(%rbp), %edi
	xorl	%edi, -96(%rbp)
	movl	-96(%rbp), %ecx
	xorl	%ecx, %edi
	movl	%edi, -124(%rbp)
	orl	%edi, %ecx
	movl	%ecx, -96(%rbp)
	xorl	%r14d, -100(%rbp)
	movl	-100(%rbp), %ecx
	xorl	%ecx, %r14d
	orl	%r14d, %ecx
	movl	%ecx, -100(%rbp)
	xorl	%r12d, %r15d
	xorl	%r15d, %r12d
	orl	%r12d, %r15d
	xorl	%ebx, %r13d
	xorl	%r13d, %ebx
	orl	%ebx, %r13d
	xorl	%edx, %eax
	xorl	%eax, %edx
	movl	%edx, -144(%rbp)
	orl	%edx, %eax
	movl	%eax, -128(%rbp)
	xorl	%esi, -132(%rbp)
	movl	-132(%rbp), %ecx
	xorl	%ecx, %esi
	orl	%esi, %ecx
	movl	%ecx, -132(%rbp)
	xorl	%r8d, -104(%rbp)
	movl	-104(%rbp), %edi
	xorl	%edi, %r8d
	orl	%r8d, %edi
	movl	%edi, -104(%rbp)
	xorl	%r10d, %r9d
	xorl	%r9d, %r10d
	orl	%r10d, %r9d
	movl	%r9d, -136(%rbp)
	movl	-108(%rbp), %eax
	xorl	%eax, %r11d
	xorl	%r11d, %eax
	movl	%eax, -108(%rbp)
	orl	%eax, %r11d
	movl	%r11d, -140(%rbp)
	movl	-112(%rbp), %eax
	xorl	%eax, -84(%rbp)
	movl	-84(%rbp), %edi
	xorl	%edi, %eax
	movl	%eax, -112(%rbp)
	orl	%eax, %edi
	movl	%edi, -84(%rbp)
	movl	-116(%rbp), %edi
	xorl	%edi, -88(%rbp)
	movl	-88(%rbp), %ecx
	xorl	%ecx, %edi
	movl	%edi, -116(%rbp)
	orl	%edi, %ecx
	movl	%ecx, -88(%rbp)
	movl	-120(%rbp), %edi
	xorl	%edi, -92(%rbp)
	movl	-92(%rbp), %ecx
	xorl	%ecx, %edi
	movl	%edi, -120(%rbp)
	orl	%edi, %ecx
	movl	%ecx, -92(%rbp)
	movl	-124(%rbp), %edi
	xorl	%edi, -96(%rbp)
	movl	-96(%rbp), %ecx
	xorl	%ecx, %edi
	movl	%edi, -124(%rbp)
	orl	%edi, %ecx
	movl	%ecx, -96(%rbp)
	xorl	%r14d, -100(%rbp)
	movl	-100(%rbp), %ecx
	xorl	%ecx, %r14d
	orl	%r14d, %ecx
	movl	%ecx, -100(%rbp)
	xorl	%r12d, %r15d
	xorl	%r15d, %r12d
	orl	%r12d, %r15d
	xorl	%ebx, %r13d
	xorl	%r13d, %ebx
	orl	%ebx, %r13d
.L52:
	movq	-152(%rbp), %rax
	leaq	-1(%rax), %rdx
	movq	%rdx, -152(%rbp)
	testq	%rax, %rax
	jne	.L53
	movl	-128(%rbp), %edi
	call	use_int@PLT
	movl	-132(%rbp), %edi
	call	use_int@PLT
	movl	-104(%rbp), %edi
	call	use_int@PLT
	movl	-136(%rbp), %edi
	call	use_int@PLT
	movl	-140(%rbp), %edi
	call	use_int@PLT
	movl	-84(%rbp), %edi
	call	use_int@PLT
	movl	-88(%rbp), %edi
	call	use_int@PLT
	movl	-92(%rbp), %edi
	call	use_int@PLT
	movl	-96(%rbp), %edi
	call	use_int@PLT
	movl	-100(%rbp), %edi
	call	use_int@PLT
	movl	%r15d, %edi
	call	use_int@PLT
	movl	%r13d, %edi
	call	use_int@PLT
	addq	$120, %rsp
	popq	%rbx
	popq	%r12
	popq	%r13
	popq	%r14
	popq	%r15
	popq	%rbp
	.cfi_def_cfa 7, 8
	ret
	.cfi_endproc
.LFE20:
	.size	integer_bit_11, .-integer_bit_11
	.globl	integer_bit_12
	.type	integer_bit_12, @function
integer_bit_12:
.LFB21:
	.cfi_startproc
	endbr64
	pushq	%rbp
	.cfi_def_cfa_offset 16
	.cfi_offset 6, -16
	movq	%rsp, %rbp
	.cfi_def_cfa_register 6
	pushq	%r15
	pushq	%r14
	pushq	%r13
	pushq	%r12
	pushq	%rbx
	subq	$120, %rsp
	.cfi_offset 15, -24
	.cfi_offset 14, -32
	.cfi_offset 13, -40
	.cfi_offset 12, -48
	.cfi_offset 3, -56
	movq	%rdi, -72(%rbp)
	movq	%rsi, -80(%rbp)
	movq	-72(%rbp), %rax
	movq	%rax, -160(%rbp)
	movq	-80(%rbp), %rax
	movq	%rax, -56(%rbp)
	movq	-56(%rbp), %rax
	movl	12(%rax), %eax
	addl	$1, %eax
	movl	%eax, -136(%rbp)
	addl	$1, %eax
	movl	%eax, -152(%rbp)
	movq	-56(%rbp), %rax
	movl	16(%rax), %eax
	addl	$1, %eax
	movl	%eax, -140(%rbp)
	addl	$2, %eax
	movl	%eax, %esi
	movq	-56(%rbp), %rax
	movl	20(%rax), %eax
	addl	$1, %eax
	movl	%eax, -108(%rbp)
	addl	$3, %eax
	movl	%eax, %r8d
	movq	-56(%rbp), %rax
	movl	24(%rax), %eax
	addl	$1, %eax
	movl	%eax, -144(%rbp)
	addl	$4, %eax
	movl	%eax, %r10d
	movq	-56(%rbp), %rax
	movl	28(%rax), %eax
	addl	$1, %eax
	movl	%eax, -148(%rbp)
	addl	$5, %eax
	movl	%eax, -112(%rbp)
	movq	-56(%rbp), %rax
	movl	32(%rax), %eax
	addl	$1, %eax
	movl	%eax, -84(%rbp)
	addl	$6, %eax
	movl	%eax, -116(%rbp)
	movq	-56(%rbp), %rax
	movl	36(%rax), %eax
	addl	$1, %eax
	movl	%eax, -88(%rbp)
	addl	$7, %eax
	movl	%eax, -120(%rbp)
	movq	-56(%rbp), %rax
	movl	40(%rax), %eax
	addl	$1, %eax
	movl	%eax, -92(%rbp)
	addl	$8, %eax
	movl	%eax, -124(%rbp)
	movq	-56(%rbp), %rax
	movl	44(%rax), %eax
	addl	$1, %eax
	movl	%eax, -96(%rbp)
	addl	$9, %eax
	movl	%eax, -128(%rbp)
	movq	-56(%rbp), %rax
	movl	48(%rax), %eax
	addl	$1, %eax
	movl	%eax, -100(%rbp)
	addl	$10, %eax
	movl	%eax, -132(%rbp)
	movq	-56(%rbp), %rax
	movl	52(%rax), %eax
	addl	$1, %eax
	movl	%eax, -104(%rbp)
	leal	11(%rax), %r14d
	movq	-56(%rbp), %rax
	movl	56(%rax), %eax
	leal	1(%rax), %r15d
	leal	12(%r15), %r12d
	movq	-56(%rbp), %rax
	movl	60(%rax), %eax
	leal	1(%rax), %r13d
	leal	13(%r13), %ebx
	jmp	.L55
.L56:
	movl	-152(%rbp), %edx
	xorl	%edx, -136(%rbp)
	movl	-136(%rbp), %eax
	xorl	%eax, %edx
	orl	%edx, %eax
	movl	%eax, -136(%rbp)
	xorl	%esi, -140(%rbp)
	movl	-140(%rbp), %ecx
	xorl	%ecx, %esi
	orl	%esi, %ecx
	xorl	%r8d, -108(%rbp)
	movl	-108(%rbp), %edi
	xorl	%edi, %r8d
	orl	%r8d, %edi
	movl	%edi, -108(%rbp)
	xorl	%r10d, -144(%rbp)
	movl	-144(%rbp), %r9d
	xorl	%r9d, %r10d
	orl	%r10d, %r9d
	movl	-112(%rbp), %eax
	xorl	%eax, -148(%rbp)
	movl	-148(%rbp), %r11d
	xorl	%r11d, %eax
	movl	%eax, -112(%rbp)
	orl	%eax, %r11d
	movl	-116(%rbp), %edi
	xorl	%edi, -84(%rbp)
	movl	-84(%rbp), %eax
	xorl	%eax, %edi
	movl	%edi, -116(%rbp)
	orl	%edi, %eax
	movl	%eax, -84(%rbp)
	movl	-120(%rbp), %eax
	xorl	%eax, -88(%rbp)
	movl	-88(%rbp), %edi
	xorl	%edi, %eax
	movl	%eax, -120(%rbp)
	orl	%eax, %edi
	movl	%edi, -88(%rbp)
	movl	-124(%rbp), %eax
	xorl	%eax, -92(%rbp)
	movl	-92(%rbp), %edi
	xorl	%edi, %eax
	movl	%eax, -124(%rbp)
	orl	%eax, %edi
	movl	%edi, -92(%rbp)
	movl	-128(%rbp), %eax
	xorl	%eax, -96(%rbp)
	movl	-96(%rbp), %edi
	xorl	%edi, %eax
	movl	%eax, -128(%rbp)
	orl	%eax, %edi
	movl	%edi, -96(%rbp)
	movl	-132(%rbp), %eax
	xorl	%eax, -100(%rbp)
	movl	-100(%rbp), %edi
	xorl	%edi, %eax
	movl	%eax, -132(%rbp)
	orl	%eax, %edi
	movl	%edi, -100(%rbp)
	xorl	%r14d, -104(%rbp)
	movl	-104(%rbp), %edi
	xorl	%edi, %r14d
	orl	%r14d, %edi
	movl	%edi, -104(%rbp)
	xorl	%r12d, %r15d
	xorl	%r15d, %r12d
	orl	%r12d, %r15d
	xorl	%ebx, %r13d
	xorl	%r13d, %ebx
	orl	%ebx, %r13d
	xorl	%edx, -136(%rbp)
	movl	-136(%rbp), %eax
	xorl	%eax, %edx
	orl	%edx, %eax
	xorl	%esi, %ecx
	xorl	%ecx, %esi
	orl	%esi, %ecx
	movl	%ecx, -140(%rbp)
	xorl	%r8d, -108(%rbp)
	movl	-108(%rbp), %edi
	xorl	%edi, %r8d
	orl	%r8d, %edi
	movl	%edi, -108(%rbp)
	xorl	%r10d, %r9d
	xorl	%r9d, %r10d
	orl	%r10d, %r9d
	movl	-112(%rbp), %ecx
	xorl	%ecx, %r11d
	xorl	%r11d, %ecx
	movl	%ecx, -112(%rbp)
	orl	%ecx, %r11d
	movl	-116(%rbp), %edi
	xorl	%edi, -84(%rbp)
	movl	-84(%rbp), %ecx
	xorl	%ecx, %edi
	movl	%edi, -116(%rbp)
	orl	%edi, %ecx
	movl	%ecx, -84(%rbp)
	movl	-120(%rbp), %ecx
	xorl	%ecx, -88(%rbp)
	movl	-88(%rbp), %edi
	xorl	%edi, %ecx
	movl	%ecx, -120(%rbp)
	orl	%ecx, %edi
	movl	%edi, -88(%rbp)
	movl	-124(%rbp), %ecx
	xorl	%ecx, -92(%rbp)
	movl	-92(%rbp), %edi
	xorl	%edi, %ecx
	movl	%ecx, -124(%rbp)
	orl	%ecx, %edi
	movl	%edi, -92(%rbp)
	movl	-128(%rbp), %ecx
	xorl	%ecx, -96(%rbp)
	movl	-96(%rbp), %edi
	xorl	%edi, %ecx
	movl	%ecx, -128(%rbp)
	orl	%ecx, %edi
	movl	%edi, -96(%rbp)
	movl	-132(%rbp), %ecx
	xorl	%ecx, -100(%rbp)
	movl	-100(%rbp), %edi
	xorl	%edi, %ecx
	movl	%ecx, -132(%rbp)
	orl	%ecx, %edi
	movl	%edi, -100(%rbp)
	xorl	%r14d, -104(%rbp)
	movl	-104(%rbp), %edi
	xorl	%edi, %r14d
	orl	%r14d, %edi
	movl	%edi, -104(%rbp)
	xorl	%r12d, %r15d
	xorl	%r15d, %r12d
	orl	%r12d, %r15d
	xorl	%ebx, %r13d
	xorl	%r13d, %ebx
	orl	%ebx, %r13d
	xorl	%edx, %eax
	xorl	%eax, %edx
	orl	%edx, %eax
	movl	%eax, -136(%rbp)
	xorl	%esi, -140(%rbp)
	movl	-140(%rbp), %ecx
	xorl	%ecx, %esi
	orl	%esi, %ecx
	xorl	%r8d, -108(%rbp)
	movl	-108(%rbp), %edi
	xorl	%edi, %r8d
	orl	%r8d, %edi
	movl	%edi, -108(%rbp)
	xorl	%r10d, %r9d
	xorl	%r9d, %r10d
	orl	%r10d, %r9d
	movl	-112(%rbp), %eax
	xorl	%eax, %r11d
	xorl	%r11d, %eax
	movl	%eax, -112(%rbp)
	orl	%eax, %r11d
	movl	-116(%rbp), %edi
	xorl	%edi, -84(%rbp)
	movl	-84(%rbp), %eax
	xorl	%eax, %edi
	movl	%edi, -116(%rbp)
	orl	%edi, %eax
	movl	%eax, -84(%rbp)
	movl	-120(%rbp), %eax
	xorl	%eax, -88(%rbp)
	movl	-88(%rbp), %edi
	xorl	%edi, %eax
	movl	%eax, -120(%rbp)
	orl	%eax, %edi
	movl	%edi, -88(%rbp)
	movl	-124(%rbp), %eax
	xorl	%eax, -92(%rbp)
	movl	-92(%rbp), %edi
	xorl	%edi, %eax
	movl	%eax, -124(%rbp)
	orl	%eax, %edi
	movl	%edi, -92(%rbp)
	movl	-128(%rbp), %eax
	xorl	%eax, -96(%rbp)
	movl	-96(%rbp), %edi
	xorl	%edi, %eax
	movl	%eax, -128(%rbp)
	orl	%eax, %edi
	movl	%edi, -96(%rbp)
	movl	-132(%rbp), %eax
	xorl	%eax, -100(%rbp)
	movl	-100(%rbp), %edi
	xorl	%edi, %eax
	movl	%eax, -132(%rbp)
	orl	%eax, %edi
	movl	%edi, -100(%rbp)
	xorl	%r14d, -104(%rbp)
	movl	-104(%rbp), %edi
	xorl	%edi, %r14d
	orl	%r14d, %edi
	movl	%edi, -104(%rbp)
	xorl	%r12d, %r15d
	xorl	%r15d, %r12d
	orl	%r12d, %r15d
	xorl	%ebx, %r13d
	xorl	%r13d, %ebx
	orl	%ebx, %r13d
	xorl	%edx, -136(%rbp)
	movl	-136(%rbp), %eax
	xorl	%eax, %edx
	orl	%edx, %eax
	xorl	%esi, %ecx
	xorl	%ecx, %esi
	orl	%esi, %ecx
	movl	%ecx, -140(%rbp)
	xorl	%r8d, -108(%rbp)
	movl	-108(%rbp), %edi
	xorl	%edi, %r8d
	orl	%r8d, %edi
	movl	%edi, -108(%rbp)
	xorl	%r10d, %r9d
	xorl	%r9d, %r10d
	orl	%r10d, %r9d
	movl	-112(%rbp), %ecx
	xorl	%ecx, %r11d
	xorl	%r11d, %ecx
	movl	%ecx, -112(%rbp)
	orl	%ecx, %r11d
	movl	-116(%rbp), %edi
	xorl	%edi, -84(%rbp)
	movl	-84(%rbp), %ecx
	xorl	%ecx, %edi
	movl	%edi, -116(%rbp)
	orl	%edi, %ecx
	movl	%ecx, -84(%rbp)
	movl	-120(%rbp), %ecx
	xorl	%ecx, -88(%rbp)
	movl	-88(%rbp), %edi
	xorl	%edi, %ecx
	movl	%ecx, -120(%rbp)
	orl	%ecx, %edi
	movl	%edi, -88(%rbp)
	movl	-124(%rbp), %ecx
	xorl	%ecx, -92(%rbp)
	movl	-92(%rbp), %edi
	xorl	%edi, %ecx
	movl	%ecx, -124(%rbp)
	orl	%ecx, %edi
	movl	%edi, -92(%rbp)
	movl	-128(%rbp), %ecx
	xorl	%ecx, -96(%rbp)
	movl	-96(%rbp), %edi
	xorl	%edi, %ecx
	movl	%ecx, -128(%rbp)
	orl	%ecx, %edi
	movl	%edi, -96(%rbp)
	movl	-132(%rbp), %ecx
	xorl	%ecx, -100(%rbp)
	movl	-100(%rbp), %edi
	xorl	%edi, %ecx
	movl	%ecx, -132(%rbp)
	orl	%ecx, %edi
	movl	%edi, -100(%rbp)
	xorl	%r14d, -104(%rbp)
	movl	-104(%rbp), %edi
	xorl	%edi, %r14d
	orl	%r14d, %edi
	movl	%edi, -104(%rbp)
	xorl	%r12d, %r15d
	xorl	%r15d, %r12d
	orl	%r12d, %r15d
	xorl	%ebx, %r13d
	xorl	%r13d, %ebx
	orl	%ebx, %r13d
	xorl	%edx, %eax
	xorl	%eax, %edx
	orl	%edx, %eax
	movl	%eax, -136(%rbp)
	xorl	%esi, -140(%rbp)
	movl	-140(%rbp), %ecx
	xorl	%ecx, %esi
	orl	%esi, %ecx
	xorl	%r8d, -108(%rbp)
	movl	-108(%rbp), %edi
	xorl	%edi, %r8d
	orl	%r8d, %edi
	movl	%edi, -108(%rbp)
	xorl	%r10d, %r9d
	xorl	%r9d, %r10d
	orl	%r10d, %r9d
	movl	-112(%rbp), %eax
	xorl	%eax, %r11d
	xorl	%r11d, %eax
	movl	%eax, -112(%rbp)
	orl	%eax, %r11d
	movl	-116(%rbp), %edi
	xorl	%edi, -84(%rbp)
	movl	-84(%rbp), %eax
	xorl	%eax, %edi
	movl	%edi, -116(%rbp)
	orl	%edi, %eax
	movl	%eax, -84(%rbp)
	movl	-120(%rbp), %eax
	xorl	%eax, -88(%rbp)
	movl	-88(%rbp), %edi
	xorl	%edi, %eax
	movl	%eax, -120(%rbp)
	orl	%eax, %edi
	movl	%edi, -88(%rbp)
	movl	-124(%rbp), %eax
	xorl	%eax, -92(%rbp)
	movl	-92(%rbp), %edi
	xorl	%edi, %eax
	movl	%eax, -124(%rbp)
	orl	%eax, %edi
	movl	%edi, -92(%rbp)
	movl	-128(%rbp), %eax
	xorl	%eax, -96(%rbp)
	movl	-96(%rbp), %edi
	xorl	%edi, %eax
	movl	%eax, -128(%rbp)
	orl	%eax, %edi
	movl	%edi, -96(%rbp)
	movl	-132(%rbp), %eax
	xorl	%eax, -100(%rbp)
	movl	-100(%rbp), %edi
	xorl	%edi, %eax
	movl	%eax, -132(%rbp)
	orl	%eax, %edi
	movl	%edi, -100(%rbp)
	xorl	%r14d, -104(%rbp)
	movl	-104(%rbp), %edi
	xorl	%edi, %r14d
	orl	%r14d, %edi
	movl	%edi, -104(%rbp)
	xorl	%r12d, %r15d
	xorl	%r15d, %r12d
	orl	%r12d, %r15d
	xorl	%ebx, %r13d
	xorl	%r13d, %ebx
	orl	%ebx, %r13d
	xorl	%edx, -136(%rbp)
	movl	-136(%rbp), %eax
	xorl	%eax, %edx
	orl	%edx, %eax
	xorl	%esi, %ecx
	xorl	%ecx, %esi
	orl	%esi, %ecx
	movl	%ecx, -140(%rbp)
	xorl	%r8d, -108(%rbp)
	movl	-108(%rbp), %edi
	xorl	%edi, %r8d
	orl	%r8d, %edi
	movl	%edi, -108(%rbp)
	xorl	%r10d, %r9d
	xorl	%r9d, %r10d
	orl	%r10d, %r9d
	movl	-112(%rbp), %ecx
	xorl	%ecx, %r11d
	xorl	%r11d, %ecx
	movl	%ecx, -112(%rbp)
	orl	%ecx, %r11d
	movl	-116(%rbp), %edi
	xorl	%edi, -84(%rbp)
	movl	-84(%rbp), %ecx
	xorl	%ecx, %edi
	movl	%edi, -116(%rbp)
	orl	%edi, %ecx
	movl	%ecx, -84(%rbp)
	movl	-120(%rbp), %ecx
	xorl	%ecx, -88(%rbp)
	movl	-88(%rbp), %edi
	xorl	%edi, %ecx
	movl	%ecx, -120(%rbp)
	orl	%ecx, %edi
	movl	%edi, -88(%rbp)
	movl	-124(%rbp), %ecx
	xorl	%ecx, -92(%rbp)
	movl	-92(%rbp), %edi
	xorl	%edi, %ecx
	movl	%ecx, -124(%rbp)
	orl	%ecx, %edi
	movl	%edi, -92(%rbp)
	movl	-128(%rbp), %ecx
	xorl	%ecx, -96(%rbp)
	movl	-96(%rbp), %edi
	xorl	%edi, %ecx
	movl	%ecx, -128(%rbp)
	orl	%ecx, %edi
	movl	%edi, -96(%rbp)
	movl	-132(%rbp), %ecx
	xorl	%ecx, -100(%rbp)
	movl	-100(%rbp), %edi
	xorl	%edi, %ecx
	movl	%ecx, -132(%rbp)
	orl	%ecx, %edi
	movl	%edi, -100(%rbp)
	xorl	%r14d, -104(%rbp)
	movl	-104(%rbp), %edi
	xorl	%edi, %r14d
	orl	%r14d, %edi
	movl	%edi, -104(%rbp)
	xorl	%r12d, %r15d
	xorl	%r15d, %r12d
	orl	%r12d, %r15d
	xorl	%ebx, %r13d
	xorl	%r13d, %ebx
	orl	%ebx, %r13d
	xorl	%edx, %eax
	xorl	%eax, %edx
	orl	%edx, %eax
	movl	%eax, -136(%rbp)
	xorl	%esi, -140(%rbp)
	movl	-140(%rbp), %ecx
	xorl	%ecx, %esi
	orl	%esi, %ecx
	xorl	%r8d, -108(%rbp)
	movl	-108(%rbp), %edi
	xorl	%edi, %r8d
	orl	%r8d, %edi
	movl	%edi, -108(%rbp)
	xorl	%r10d, %r9d
	xorl	%r9d, %r10d
	orl	%r10d, %r9d
	movl	-112(%rbp), %eax
	xorl	%eax, %r11d
	xorl	%r11d, %eax
	movl	%eax, -112(%rbp)
	orl	%eax, %r11d
	movl	-116(%rbp), %edi
	xorl	%edi, -84(%rbp)
	movl	-84(%rbp), %eax
	xorl	%eax, %edi
	movl	%edi, -116(%rbp)
	orl	%edi, %eax
	movl	%eax, -84(%rbp)
	movl	-120(%rbp), %eax
	xorl	%eax, -88(%rbp)
	movl	-88(%rbp), %edi
	xorl	%edi, %eax
	movl	%eax, -120(%rbp)
	orl	%eax, %edi
	movl	%edi, -88(%rbp)
	movl	-124(%rbp), %eax
	xorl	%eax, -92(%rbp)
	movl	-92(%rbp), %edi
	xorl	%edi, %eax
	movl	%eax, -124(%rbp)
	orl	%eax, %edi
	movl	%edi, -92(%rbp)
	movl	-128(%rbp), %eax
	xorl	%eax, -96(%rbp)
	movl	-96(%rbp), %edi
	xorl	%edi, %eax
	movl	%eax, -128(%rbp)
	orl	%eax, %edi
	movl	%edi, -96(%rbp)
	movl	-132(%rbp), %eax
	xorl	%eax, -100(%rbp)
	movl	-100(%rbp), %edi
	xorl	%edi, %eax
	movl	%eax, -132(%rbp)
	orl	%eax, %edi
	movl	%edi, -100(%rbp)
	xorl	%r14d, -104(%rbp)
	movl	-104(%rbp), %edi
	xorl	%edi, %r14d
	orl	%r14d, %edi
	movl	%edi, -104(%rbp)
	xorl	%r12d, %r15d
	xorl	%r15d, %r12d
	orl	%r12d, %r15d
	xorl	%ebx, %r13d
	xorl	%r13d, %ebx
	orl	%ebx, %r13d
	xorl	%edx, -136(%rbp)
	movl	-136(%rbp), %eax
	xorl	%eax, %edx
	orl	%edx, %eax
	movl	%eax, -136(%rbp)
	xorl	%esi, %ecx
	xorl	%ecx, %esi
	orl	%esi, %ecx
	movl	%ecx, -140(%rbp)
	xorl	%r8d, -108(%rbp)
	movl	-108(%rbp), %edi
	xorl	%edi, %r8d
	orl	%r8d, %edi
	xorl	%r10d, %r9d
	xorl	%r9d, %r10d
	orl	%r10d, %r9d
	movl	-112(%rbp), %ecx
	xorl	%ecx, %r11d
	xorl	%r11d, %ecx
	movl	%ecx, -112(%rbp)
	orl	%ecx, %r11d
	movl	-116(%rbp), %eax
	xorl	%eax, -84(%rbp)
	movl	-84(%rbp), %ecx
	xorl	%ecx, %eax
	movl	%eax, -116(%rbp)
	orl	%eax, %ecx
	movl	%ecx, -84(%rbp)
	movl	-120(%rbp), %ecx
	xorl	%ecx, -88(%rbp)
	movl	-88(%rbp), %eax
	xorl	%eax, %ecx
	movl	%ecx, -120(%rbp)
	orl	%ecx, %eax
	movl	%eax, -88(%rbp)
	movl	-124(%rbp), %ecx
	xorl	%ecx, -92(%rbp)
	movl	-92(%rbp), %eax
	xorl	%eax, %ecx
	movl	%ecx, -124(%rbp)
	orl	%ecx, %eax
	movl	%eax, -92(%rbp)
	movl	-128(%rbp), %ecx
	xorl	%ecx, -96(%rbp)
	movl	-96(%rbp), %eax
	xorl	%eax, %ecx
	movl	%ecx, -128(%rbp)
	orl	%ecx, %eax
	movl	%eax, -96(%rbp)
	movl	-132(%rbp), %ecx
	xorl	%ecx, -100(%rbp)
	movl	-100(%rbp), %eax
	xorl	%eax, %ecx
	movl	%ecx, -132(%rbp)
	orl	%ecx, %eax
	movl	%eax, -100(%rbp)
	xorl	%r14d, -104(%rbp)
	movl	-104(%rbp), %eax
	xorl	%eax, %r14d
	orl	%r14d, %eax
	movl	%eax, -104(%rbp)
	xorl	%r12d, %r15d
	xorl	%r15d, %r12d
	orl	%r12d, %r15d
	xorl	%ebx, %r13d
	xorl	%r13d, %ebx
	orl	%ebx, %r13d
	xorl	%edx, -136(%rbp)
	movl	-136(%rbp), %eax
	xorl	%eax, %edx
	orl	%edx, %eax
	xorl	%esi, -140(%rbp)
	movl	-140(%rbp), %ecx
	xorl	%ecx, %esi
	orl	%esi, %ecx
	movl	%ecx, -140(%rbp)
	xorl	%r8d, %edi
	xorl	%edi, %r8d
	orl	%r8d, %edi
	movl	%edi, -108(%rbp)
	xorl	%r10d, %r9d
	xorl	%r9d, %r10d
	orl	%r10d, %r9d
	movl	-112(%rbp), %edi
	xorl	%edi, %r11d
	xorl	%r11d, %edi
	movl	%edi, -112(%rbp)
	orl	%edi, %r11d
	movl	-116(%rbp), %ecx
	xorl	%ecx, -84(%rbp)
	movl	-84(%rbp), %edi
	xorl	%edi, %ecx
	movl	%ecx, -116(%rbp)
	orl	%ecx, %edi
	movl	%edi, -84(%rbp)
	movl	-120(%rbp), %edi
	xorl	%edi, -88(%rbp)
	movl	-88(%rbp), %ecx
	xorl	%ecx, %edi
	movl	%edi, -120(%rbp)
	orl	%edi, %ecx
	movl	%ecx, -88(%rbp)
	movl	-124(%rbp), %edi
	xorl	%edi, -92(%rbp)
	movl	-92(%rbp), %ecx
	xorl	%ecx, %edi
	movl	%edi, -124(%rbp)
	orl	%edi, %ecx
	movl	%ecx, -92(%rbp)
	movl	-128(%rbp), %edi
	xorl	%edi, -96(%rbp)
	movl	-96(%rbp), %ecx
	xorl	%ecx, %edi
	movl	%edi, -128(%rbp)
	orl	%edi, %ecx
	movl	%ecx, -96(%rbp)
	movl	-132(%rbp), %edi
	xorl	%edi, -100(%rbp)
	movl	-100(%rbp), %ecx
	xorl	%ecx, %edi
	movl	%edi, -132(%rbp)
	orl	%edi, %ecx
	movl	%ecx, -100(%rbp)
	xorl	%r14d, -104(%rbp)
	movl	-104(%rbp), %ecx
	xorl	%ecx, %r14d
	orl	%r14d, %ecx
	movl	%ecx, -104(%rbp)
	xorl	%r12d, %r15d
	xorl	%r15d, %r12d
	orl	%r12d, %r15d
	xorl	%ebx, %r13d
	xorl	%r13d, %ebx
	orl	%ebx, %r13d
	xorl	%edx, %eax
	xorl	%eax, %edx
	movl	%edx, -152(%rbp)
	orl	%edx, %eax
	movl	%eax, -136(%rbp)
	xorl	%esi, -140(%rbp)
	movl	-140(%rbp), %ecx
	xorl	%ecx, %esi
	orl	%esi, %ecx
	movl	%ecx, -140(%rbp)
	xorl	%r8d, -108(%rbp)
	movl	-108(%rbp), %edi
	xorl	%edi, %r8d
	orl	%r8d, %edi
	movl	%edi, -108(%rbp)
	xorl	%r10d, %r9d
	xorl	%r9d, %r10d
	orl	%r10d, %r9d
	movl	%r9d, -144(%rbp)
	movl	-112(%rbp), %eax
	xorl	%eax, %r11d
	xorl	%r11d, %eax
	movl	%eax, -112(%rbp)
	orl	%eax, %r11d
	movl	%r11d, -148(%rbp)
	movl	-116(%rbp), %eax
	xorl	%eax, -84(%rbp)
	movl	-84(%rbp), %edi
	xorl	%edi, %eax
	movl	%eax, -116(%rbp)
	orl	%eax, %edi
	movl	%edi, -84(%rbp)
	movl	-120(%rbp), %edi
	xorl	%edi, -88(%rbp)
	movl	-88(%rbp), %ecx
	xorl	%ecx, %edi
	movl	%edi, -120(%rbp)
	orl	%edi, %ecx
	movl	%ecx, -88(%rbp)
	movl	-124(%rbp), %edi
	xorl	%edi, -92(%rbp)
	movl	-92(%rbp), %ecx
	xorl	%ecx, %edi
	movl	%edi, -124(%rbp)
	orl	%edi, %ecx
	movl	%ecx, -92(%rbp)
	movl	-128(%rbp), %edi
	xorl	%edi, -96(%rbp)
	movl	-96(%rbp), %ecx
	xorl	%ecx, %edi
	movl	%edi, -128(%rbp)
	orl	%edi, %ecx
	movl	%ecx, -96(%rbp)
	movl	-132(%rbp), %edi
	xorl	%edi, -100(%rbp)
	movl	-100(%rbp), %ecx
	xorl	%ecx, %edi
	movl	%edi, -132(%rbp)
	orl	%edi, %ecx
	movl	%ecx, -100(%rbp)
	xorl	%r14d, -104(%rbp)
	movl	-104(%rbp), %ecx
	xorl	%ecx, %r14d
	orl	%r14d, %ecx
	movl	%ecx, -104(%rbp)
	xorl	%r12d, %r15d
	xorl	%r15d, %r12d
	orl	%r12d, %r15d
	xorl	%ebx, %r13d
	xorl	%r13d, %ebx
	orl	%ebx, %r13d
.L55:
	movq	-160(%rbp), %rax
	leaq	-1(%rax), %rdx
	movq	%rdx, -160(%rbp)
	testq	%rax, %rax
	jne	.L56
	movl	-136(%rbp), %edi
	call	use_int@PLT
	movl	-140(%rbp), %edi
	call	use_int@PLT
	movl	-108(%rbp), %edi
	call	use_int@PLT
	movl	-144(%rbp), %edi
	call	use_int@PLT
	movl	-148(%rbp), %edi
	call	use_int@PLT
	movl	-84(%rbp), %edi
	call	use_int@PLT
	movl	-88(%rbp), %edi
	call	use_int@PLT
	movl	-92(%rbp), %edi
	call	use_int@PLT
	movl	-96(%rbp), %edi
	call	use_int@PLT
	movl	-100(%rbp), %edi
	call	use_int@PLT
	movl	-104(%rbp), %edi
	call	use_int@PLT
	movl	%r15d, %edi
	call	use_int@PLT
	movl	%r13d, %edi
	call	use_int@PLT
	addq	$120, %rsp
	popq	%rbx
	popq	%r12
	popq	%r13
	popq	%r14
	popq	%r15
	popq	%rbp
	.cfi_def_cfa 7, 8
	ret
	.cfi_endproc
.LFE21:
	.size	integer_bit_12, .-integer_bit_12
	.globl	integer_bit_13
	.type	integer_bit_13, @function
integer_bit_13:
.LFB22:
	.cfi_startproc
	endbr64
	pushq	%rbp
	.cfi_def_cfa_offset 16
	.cfi_offset 6, -16
	movq	%rsp, %rbp
	.cfi_def_cfa_register 6
	pushq	%r15
	pushq	%r14
	pushq	%r13
	pushq	%r12
	pushq	%rbx
	subq	$136, %rsp
	.cfi_offset 15, -24
	.cfi_offset 14, -32
	.cfi_offset 13, -40
	.cfi_offset 12, -48
	.cfi_offset 3, -56
	movq	%rdi, -72(%rbp)
	movq	%rsi, -80(%rbp)
	movq	-72(%rbp), %rax
	movq	%rax, -168(%rbp)
	movq	-80(%rbp), %rax
	movq	%rax, -56(%rbp)
	movq	-56(%rbp), %rax
	movl	12(%rax), %eax
	addl	$1, %eax
	movl	%eax, -144(%rbp)
	addl	$1, %eax
	movl	%eax, -160(%rbp)
	movq	-56(%rbp), %rax
	movl	16(%rax), %eax
	addl	$1, %eax
	movl	%eax, -148(%rbp)
	addl	$2, %eax
	movl	%eax, %esi
	movq	-56(%rbp), %rax
	movl	20(%rax), %eax
	addl	$1, %eax
	movl	%eax, -116(%rbp)
	addl	$3, %eax
	movl	%eax, %r8d
	movq	-56(%rbp), %rax
	movl	24(%rax), %eax
	addl	$1, %eax
	movl	%eax, -152(%rbp)
	addl	$4, %eax
	movl	%eax, %r10d
	movq	-56(%rbp), %rax
	movl	28(%rax), %eax
	addl	$1, %eax
	movl	%eax, -156(%rbp)
	addl	$5, %eax
	movl	%eax, -120(%rbp)
	movq	-56(%rbp), %rax
	movl	32(%rax), %eax
	addl	$1, %eax
	movl	%eax, -84(%rbp)
	addl	$6, %eax
	movl	%eax, -124(%rbp)
	movq	-56(%rbp), %rax
	movl	36(%rax), %eax
	addl	$1, %eax
	movl	%eax, -88(%rbp)
	addl	$7, %eax
	movl	%eax, -128(%rbp)
	movq	-56(%rbp), %rax
	movl	40(%rax), %eax
	addl	$1, %eax
	movl	%eax, -92(%rbp)
	addl	$8, %eax
	movl	%eax, -132(%rbp)
	movq	-56(%rbp), %rax
	movl	44(%rax), %eax
	addl	$1, %eax
	movl	%eax, -96(%rbp)
	addl	$9, %eax
	movl	%eax, -136(%rbp)
	movq	-56(%rbp), %rax
	movl	48(%rax), %eax
	addl	$1, %eax
	movl	%eax, -100(%rbp)
	addl	$10, %eax
	movl	%eax, -140(%rbp)
	movq	-56(%rbp), %rax
	movl	52(%rax), %eax
	addl	$1, %eax
	movl	%eax, -104(%rbp)
	leal	11(%rax), %r15d
	movq	-56(%rbp), %rax
	movl	56(%rax), %eax
	addl	$1, %eax
	movl	%eax, -108(%rbp)
	leal	12(%rax), %r13d
	movq	-56(%rbp), %rax
	movl	60(%rax), %eax
	addl	$1, %eax
	movl	%eax, -112(%rbp)
	leal	13(%rax), %r12d
	movq	-56(%rbp), %rax
	movl	64(%rax), %eax
	leal	1(%rax), %r14d
	leal	14(%r14), %ebx
	jmp	.L58
.L59:
	movl	-160(%rbp), %edx
	xorl	%edx, -144(%rbp)
	movl	-144(%rbp), %eax
	xorl	%eax, %edx
	orl	%edx, %eax
	movl	%eax, -144(%rbp)
	xorl	%esi, -148(%rbp)
	movl	-148(%rbp), %ecx
	xorl	%ecx, %esi
	orl	%esi, %ecx
	xorl	%r8d, -116(%rbp)
	movl	-116(%rbp), %edi
	xorl	%edi, %r8d
	orl	%r8d, %edi
	movl	%edi, -116(%rbp)
	xorl	%r10d, -152(%rbp)
	movl	-152(%rbp), %r9d
	xorl	%r9d, %r10d
	orl	%r10d, %r9d
	movl	-120(%rbp), %eax
	xorl	%eax, -156(%rbp)
	movl	-156(%rbp), %r11d
	xorl	%r11d, %eax
	movl	%eax, -120(%rbp)
	orl	%eax, %r11d
	movl	-124(%rbp), %edi
	xorl	%edi, -84(%rbp)
	movl	-84(%rbp), %eax
	xorl	%eax, %edi
	movl	%edi, -124(%rbp)
	orl	%edi, %eax
	movl	%eax, -84(%rbp)
	movl	-128(%rbp), %eax
	xorl	%eax, -88(%rbp)
	movl	-88(%rbp), %edi
	xorl	%edi, %eax
	movl	%eax, -128(%rbp)
	orl	%eax, %edi
	movl	%edi, -88(%rbp)
	movl	-132(%rbp), %eax
	xorl	%eax, -92(%rbp)
	movl	-92(%rbp), %edi
	xorl	%edi, %eax
	movl	%eax, -132(%rbp)
	orl	%eax, %edi
	movl	%edi, -92(%rbp)
	movl	-136(%rbp), %eax
	xorl	%eax, -96(%rbp)
	movl	-96(%rbp), %edi
	xorl	%edi, %eax
	movl	%eax, -136(%rbp)
	orl	%eax, %edi
	movl	%edi, -96(%rbp)
	movl	-140(%rbp), %eax
	xorl	%eax, -100(%rbp)
	movl	-100(%rbp), %edi
	xorl	%edi, %eax
	movl	%eax, -140(%rbp)
	orl	%eax, %edi
	movl	%edi, -100(%rbp)
	xorl	%r15d, -104(%rbp)
	movl	-104(%rbp), %edi
	xorl	%edi, %r15d
	orl	%r15d, %edi
	movl	%edi, -104(%rbp)
	xorl	%r13d, -108(%rbp)
	movl	-108(%rbp), %eax
	xorl	%eax, %r13d
	orl	%r13d, %eax
	movl	%eax, -108(%rbp)
	xorl	%r12d, -112(%rbp)
	movl	-112(%rbp), %edi
	xorl	%edi, %r12d
	orl	%r12d, %edi
	movl	%edi, -112(%rbp)
	xorl	%ebx, %r14d
	xorl	%r14d, %ebx
	orl	%ebx, %r14d
	xorl	%edx, -144(%rbp)
	movl	-144(%rbp), %eax
	xorl	%eax, %edx
	orl	%edx, %eax
	xorl	%esi, %ecx
	xorl	%ecx, %esi
	orl	%esi, %ecx
	movl	%ecx, -148(%rbp)
	xorl	%r8d, -116(%rbp)
	movl	-116(%rbp), %edi
	xorl	%edi, %r8d
	orl	%r8d, %edi
	movl	%edi, -116(%rbp)
	xorl	%r10d, %r9d
	xorl	%r9d, %r10d
	orl	%r10d, %r9d
	movl	-120(%rbp), %ecx
	xorl	%ecx, %r11d
	xorl	%r11d, %ecx
	movl	%ecx, -120(%rbp)
	orl	%ecx, %r11d
	movl	-124(%rbp), %edi
	xorl	%edi, -84(%rbp)
	movl	-84(%rbp), %ecx
	xorl	%ecx, %edi
	movl	%edi, -124(%rbp)
	orl	%edi, %ecx
	movl	%ecx, -84(%rbp)
	movl	-128(%rbp), %ecx
	xorl	%ecx, -88(%rbp)
	movl	-88(%rbp), %edi
	xorl	%edi, %ecx
	movl	%ecx, -128(%rbp)
	orl	%ecx, %edi
	movl	%edi, -88(%rbp)
	movl	-132(%rbp), %ecx
	xorl	%ecx, -92(%rbp)
	movl	-92(%rbp), %edi
	xorl	%edi, %ecx
	movl	%ecx, -132(%rbp)
	orl	%ecx, %edi
	movl	%edi, -92(%rbp)
	movl	-136(%rbp), %ecx
	xorl	%ecx, -96(%rbp)
	movl	-96(%rbp), %edi
	xorl	%edi, %ecx
	movl	%ecx, -136(%rbp)
	orl	%ecx, %edi
	movl	%edi, -96(%rbp)
	movl	-140(%rbp), %ecx
	xorl	%ecx, -100(%rbp)
	movl	-100(%rbp), %edi
	xorl	%edi, %ecx
	movl	%ecx, -140(%rbp)
	orl	%ecx, %edi
	movl	%edi, -100(%rbp)
	xorl	%r15d, -104(%rbp)
	movl	-104(%rbp), %edi
	xorl	%edi, %r15d
	orl	%r15d, %edi
	movl	%edi, -104(%rbp)
	xorl	%r13d, -108(%rbp)
	movl	-108(%rbp), %ecx
	xorl	%ecx, %r13d
	orl	%r13d, %ecx
	movl	%ecx, -108(%rbp)
	xorl	%r12d, -112(%rbp)
	movl	-112(%rbp), %edi
	xorl	%edi, %r12d
	orl	%r12d, %edi
	movl	%edi, -112(%rbp)
	xorl	%ebx, %r14d
	xorl	%r14d, %ebx
	orl	%ebx, %r14d
	xorl	%edx, %eax
	xorl	%eax, %edx
	orl	%edx, %eax
	movl	%eax, -144(%rbp)
	xorl	%esi, -148(%rbp)
	movl	-148(%rbp), %ecx
	xorl	%ecx, %esi
	orl	%esi, %ecx
	xorl	%r8d, -116(%rbp)
	movl	-116(%rbp), %edi
	xorl	%edi, %r8d
	orl	%r8d, %edi
	movl	%edi, -116(%rbp)
	xorl	%r10d, %r9d
	xorl	%r9d, %r10d
	orl	%r10d, %r9d
	movl	-120(%rbp), %eax
	xorl	%eax, %r11d
	xorl	%r11d, %eax
	movl	%eax, -120(%rbp)
	orl	%eax, %r11d
	movl	-124(%rbp), %edi
	xorl	%edi, -84(%rbp)
	movl	-84(%rbp), %eax
	xorl	%eax, %edi
	movl	%edi, -124(%rbp)
	orl	%edi, %eax
	movl	%eax, -84(%rbp)
	movl	-128(%rbp), %eax
	xorl	%eax, -88(%rbp)
	movl	-88(%rbp), %edi
	xorl	%edi, %eax
	movl	%eax, -128(%rbp)
	orl	%eax, %edi
	movl	%edi, -88(%rbp)
	movl	-132(%rbp), %eax
	xorl	%eax, -92(%rbp)
	movl	-92(%rbp), %edi
	xorl	%edi, %eax
	movl	%eax, -132(%rbp)
	orl	%eax, %edi
	movl	%edi, -92(%rbp)
	movl	-136(%rbp), %eax
	xorl	%eax, -96(%rbp)
	movl	-96(%rbp), %edi
	xorl	%edi, %eax
	movl	%eax, -136(%rbp)
	orl	%eax, %edi
	movl	%edi, -96(%rbp)
	movl	-140(%rbp), %eax
	xorl	%eax, -100(%rbp)
	movl	-100(%rbp), %edi
	xorl	%edi, %eax
	movl	%eax, -140(%rbp)
	orl	%eax, %edi
	movl	%edi, -100(%rbp)
	xorl	%r15d, -104(%rbp)
	movl	-104(%rbp), %edi
	xorl	%edi, %r15d
	orl	%r15d, %edi
	movl	%edi, -104(%rbp)
	xorl	%r13d, -108(%rbp)
	movl	-108(%rbp), %eax
	xorl	%eax, %r13d
	orl	%r13d, %eax
	movl	%eax, -108(%rbp)
	xorl	%r12d, -112(%rbp)
	movl	-112(%rbp), %edi
	xorl	%edi, %r12d
	orl	%r12d, %edi
	movl	%edi, -112(%rbp)
	xorl	%ebx, %r14d
	xorl	%r14d, %ebx
	orl	%ebx, %r14d
	xorl	%edx, -144(%rbp)
	movl	-144(%rbp), %eax
	xorl	%eax, %edx
	orl	%edx, %eax
	xorl	%esi, %ecx
	xorl	%ecx, %esi
	orl	%esi, %ecx
	movl	%ecx, -148(%rbp)
	xorl	%r8d, -116(%rbp)
	movl	-116(%rbp), %edi
	xorl	%edi, %r8d
	orl	%r8d, %edi
	movl	%edi, -116(%rbp)
	xorl	%r10d, %r9d
	xorl	%r9d, %r10d
	orl	%r10d, %r9d
	movl	-120(%rbp), %ecx
	xorl	%ecx, %r11d
	xorl	%r11d, %ecx
	movl	%ecx, -120(%rbp)
	orl	%ecx, %r11d
	movl	-124(%rbp), %edi
	xorl	%edi, -84(%rbp)
	movl	-84(%rbp), %ecx
	xorl	%ecx, %edi
	movl	%edi, -124(%rbp)
	orl	%edi, %ecx
	movl	%ecx, -84(%rbp)
	movl	-128(%rbp), %ecx
	xorl	%ecx, -88(%rbp)
	movl	-88(%rbp), %edi
	xorl	%edi, %ecx
	movl	%ecx, -128(%rbp)
	orl	%ecx, %edi
	movl	%edi, -88(%rbp)
	movl	-132(%rbp), %ecx
	xorl	%ecx, -92(%rbp)
	movl	-92(%rbp), %edi
	xorl	%edi, %ecx
	movl	%ecx, -132(%rbp)
	orl	%ecx, %edi
	movl	%edi, -92(%rbp)
	movl	-136(%rbp), %ecx
	xorl	%ecx, -96(%rbp)
	movl	-96(%rbp), %edi
	xorl	%edi, %ecx
	movl	%ecx, -136(%rbp)
	orl	%ecx, %edi
	movl	%edi, -96(%rbp)
	movl	-140(%rbp), %ecx
	xorl	%ecx, -100(%rbp)
	movl	-100(%rbp), %edi
	xorl	%edi, %ecx
	movl	%ecx, -140(%rbp)
	orl	%ecx, %edi
	movl	%edi, -100(%rbp)
	xorl	%r15d, -104(%rbp)
	movl	-104(%rbp), %edi
	xorl	%edi, %r15d
	orl	%r15d, %edi
	movl	%edi, -104(%rbp)
	xorl	%r13d, -108(%rbp)
	movl	-108(%rbp), %ecx
	xorl	%ecx, %r13d
	orl	%r13d, %ecx
	movl	%ecx, -108(%rbp)
	xorl	%r12d, -112(%rbp)
	movl	-112(%rbp), %edi
	xorl	%edi, %r12d
	orl	%r12d, %edi
	movl	%edi, -112(%rbp)
	xorl	%ebx, %r14d
	xorl	%r14d, %ebx
	orl	%ebx, %r14d
	xorl	%edx, %eax
	xorl	%eax, %edx
	orl	%edx, %eax
	movl	%eax, -144(%rbp)
	xorl	%esi, -148(%rbp)
	movl	-148(%rbp), %ecx
	xorl	%ecx, %esi
	orl	%esi, %ecx
	xorl	%r8d, -116(%rbp)
	movl	-116(%rbp), %edi
	xorl	%edi, %r8d
	orl	%r8d, %edi
	movl	%edi, -116(%rbp)
	xorl	%r10d, %r9d
	xorl	%r9d, %r10d
	orl	%r10d, %r9d
	movl	-120(%rbp), %eax
	xorl	%eax, %r11d
	xorl	%r11d, %eax
	movl	%eax, -120(%rbp)
	orl	%eax, %r11d
	movl	-124(%rbp), %edi
	xorl	%edi, -84(%rbp)
	movl	-84(%rbp), %eax
	xorl	%eax, %edi
	movl	%edi, -124(%rbp)
	orl	%edi, %eax
	movl	%eax, -84(%rbp)
	movl	-128(%rbp), %eax
	xorl	%eax, -88(%rbp)
	movl	-88(%rbp), %edi
	xorl	%edi, %eax
	movl	%eax, -128(%rbp)
	orl	%eax, %edi
	movl	%edi, -88(%rbp)
	movl	-132(%rbp), %eax
	xorl	%eax, -92(%rbp)
	movl	-92(%rbp), %edi
	xorl	%edi, %eax
	movl	%eax, -132(%rbp)
	orl	%eax, %edi
	movl	%edi, -92(%rbp)
	movl	-136(%rbp), %eax
	xorl	%eax, -96(%rbp)
	movl	-96(%rbp), %edi
	xorl	%edi, %eax
	movl	%eax, -136(%rbp)
	orl	%eax, %edi
	movl	%edi, -96(%rbp)
	movl	-140(%rbp), %eax
	xorl	%eax, -100(%rbp)
	movl	-100(%rbp), %edi
	xorl	%edi, %eax
	movl	%eax, -140(%rbp)
	orl	%eax, %edi
	movl	%edi, -100(%rbp)
	xorl	%r15d, -104(%rbp)
	movl	-104(%rbp), %edi
	xorl	%edi, %r15d
	orl	%r15d, %edi
	movl	%edi, -104(%rbp)
	xorl	%r13d, -108(%rbp)
	movl	-108(%rbp), %eax
	xorl	%eax, %r13d
	orl	%r13d, %eax
	movl	%eax, -108(%rbp)
	xorl	%r12d, -112(%rbp)
	movl	-112(%rbp), %edi
	xorl	%edi, %r12d
	orl	%r12d, %edi
	movl	%edi, -112(%rbp)
	xorl	%ebx, %r14d
	xorl	%r14d, %ebx
	orl	%ebx, %r14d
	xorl	%edx, -144(%rbp)
	movl	-144(%rbp), %eax
	xorl	%eax, %edx
	orl	%edx, %eax
	xorl	%esi, %ecx
	xorl	%ecx, %esi
	orl	%esi, %ecx
	movl	%ecx, -148(%rbp)
	xorl	%r8d, -116(%rbp)
	movl	-116(%rbp), %edi
	xorl	%edi, %r8d
	orl	%r8d, %edi
	movl	%edi, -116(%rbp)
	xorl	%r10d, %r9d
	xorl	%r9d, %r10d
	orl	%r10d, %r9d
	movl	-120(%rbp), %ecx
	xorl	%ecx, %r11d
	xorl	%r11d, %ecx
	movl	%ecx, -120(%rbp)
	orl	%ecx, %r11d
	movl	-124(%rbp), %edi
	xorl	%edi, -84(%rbp)
	movl	-84(%rbp), %ecx
	xorl	%ecx, %edi
	movl	%edi, -124(%rbp)
	orl	%edi, %ecx
	movl	%ecx, -84(%rbp)
	movl	-128(%rbp), %ecx
	xorl	%ecx, -88(%rbp)
	movl	-88(%rbp), %edi
	xorl	%edi, %ecx
	movl	%ecx, -128(%rbp)
	orl	%ecx, %edi
	movl	%edi, -88(%rbp)
	movl	-132(%rbp), %ecx
	xorl	%ecx, -92(%rbp)
	movl	-92(%rbp), %edi
	xorl	%edi, %ecx
	movl	%ecx, -132(%rbp)
	orl	%ecx, %edi
	movl	%edi, -92(%rbp)
	movl	-136(%rbp), %ecx
	xorl	%ecx, -96(%rbp)
	movl	-96(%rbp), %edi
	xorl	%edi, %ecx
	movl	%ecx, -136(%rbp)
	orl	%ecx, %edi
	movl	%edi, -96(%rbp)
	movl	-140(%rbp), %ecx
	xorl	%ecx, -100(%rbp)
	movl	-100(%rbp), %edi
	xorl	%edi, %ecx
	movl	%ecx, -140(%rbp)
	orl	%ecx, %edi
	movl	%edi, -100(%rbp)
	xorl	%r15d, -104(%rbp)
	movl	-104(%rbp), %edi
	xorl	%edi, %r15d
	orl	%r15d, %edi
	movl	%edi, -104(%rbp)
	xorl	%r13d, -108(%rbp)
	movl	-108(%rbp), %ecx
	xorl	%ecx, %r13d
	orl	%r13d, %ecx
	movl	%ecx, -108(%rbp)
	xorl	%r12d, -112(%rbp)
	movl	-112(%rbp), %edi
	xorl	%edi, %r12d
	orl	%r12d, %edi
	movl	%edi, -112(%rbp)
	xorl	%ebx, %r14d
	xorl	%r14d, %ebx
	orl	%ebx, %r14d
	xorl	%edx, %eax
	xorl	%eax, %edx
	orl	%edx, %eax
	movl	%eax, -144(%rbp)
	xorl	%esi, -148(%rbp)
	movl	-148(%rbp), %ecx
	xorl	%ecx, %esi
	orl	%esi, %ecx
	xorl	%r8d, -116(%rbp)
	movl	-116(%rbp), %edi
	xorl	%edi, %r8d
	orl	%r8d, %edi
	movl	%edi, -116(%rbp)
	xorl	%r10d, %r9d
	xorl	%r9d, %r10d
	orl	%r10d, %r9d
	movl	-120(%rbp), %eax
	xorl	%eax, %r11d
	xorl	%r11d, %eax
	movl	%eax, -120(%rbp)
	orl	%eax, %r11d
	movl	-124(%rbp), %edi
	xorl	%edi, -84(%rbp)
	movl	-84(%rbp), %eax
	xorl	%eax, %edi
	movl	%edi, -124(%rbp)
	orl	%edi, %eax
	movl	%eax, -84(%rbp)
	movl	-128(%rbp), %eax
	xorl	%eax, -88(%rbp)
	movl	-88(%rbp), %edi
	xorl	%edi, %eax
	movl	%eax, -128(%rbp)
	orl	%eax, %edi
	movl	%edi, -88(%rbp)
	movl	-132(%rbp), %eax
	xorl	%eax, -92(%rbp)
	movl	-92(%rbp), %edi
	xorl	%edi, %eax
	movl	%eax, -132(%rbp)
	orl	%eax, %edi
	movl	%edi, -92(%rbp)
	movl	-136(%rbp), %eax
	xorl	%eax, -96(%rbp)
	movl	-96(%rbp), %edi
	xorl	%edi, %eax
	movl	%eax, -136(%rbp)
	orl	%eax, %edi
	movl	%edi, -96(%rbp)
	movl	-140(%rbp), %eax
	xorl	%eax, -100(%rbp)
	movl	-100(%rbp), %edi
	xorl	%edi, %eax
	movl	%eax, -140(%rbp)
	orl	%eax, %edi
	movl	%edi, -100(%rbp)
	xorl	%r15d, -104(%rbp)
	movl	-104(%rbp), %edi
	xorl	%edi, %r15d
	orl	%r15d, %edi
	movl	%edi, -104(%rbp)
	xorl	%r13d, -108(%rbp)
	movl	-108(%rbp), %edi
	xorl	%edi, %r13d
	orl	%r13d, %edi
	movl	%edi, -108(%rbp)
	xorl	%r12d, -112(%rbp)
	movl	-112(%rbp), %edi
	xorl	%edi, %r12d
	orl	%r12d, %edi
	movl	%edi, -112(%rbp)
	xorl	%ebx, %r14d
	xorl	%r14d, %ebx
	orl	%ebx, %r14d
	xorl	%edx, -144(%rbp)
	movl	-144(%rbp), %eax
	xorl	%eax, %edx
	orl	%edx, %eax
	movl	%eax, -144(%rbp)
	xorl	%esi, %ecx
	xorl	%ecx, %esi
	orl	%esi, %ecx
	movl	%ecx, -148(%rbp)
	xorl	%r8d, -116(%rbp)
	movl	-116(%rbp), %edi
	xorl	%edi, %r8d
	orl	%r8d, %edi
	xorl	%r10d, %r9d
	xorl	%r9d, %r10d
	orl	%r10d, %r9d
	movl	-120(%rbp), %ecx
	xorl	%ecx, %r11d
	xorl	%r11d, %ecx
	movl	%ecx, -120(%rbp)
	orl	%ecx, %r11d
	movl	-124(%rbp), %eax
	xorl	%eax, -84(%rbp)
	movl	-84(%rbp), %ecx
	xorl	%ecx, %eax
	movl	%eax, -124(%rbp)
	orl	%eax, %ecx
	movl	%ecx, -84(%rbp)
	movl	-128(%rbp), %ecx
	xorl	%ecx, -88(%rbp)
	movl	-88(%rbp), %eax
	xorl	%eax, %ecx
	movl	%ecx, -128(%rbp)
	orl	%ecx, %eax
	movl	%eax, -88(%rbp)
	movl	-132(%rbp), %ecx
	xorl	%ecx, -92(%rbp)
	movl	-92(%rbp), %eax
	xorl	%eax, %ecx
	movl	%ecx, -132(%rbp)
	orl	%ecx, %eax
	movl	%eax, -92(%rbp)
	movl	-136(%rbp), %ecx
	xorl	%ecx, -96(%rbp)
	movl	-96(%rbp), %eax
	xorl	%eax, %ecx
	movl	%ecx, -136(%rbp)
	orl	%ecx, %eax
	movl	%eax, -96(%rbp)
	movl	-140(%rbp), %ecx
	xorl	%ecx, -100(%rbp)
	movl	-100(%rbp), %eax
	xorl	%eax, %ecx
	movl	%ecx, -140(%rbp)
	orl	%ecx, %eax
	movl	%eax, -100(%rbp)
	xorl	%r15d, -104(%rbp)
	movl	-104(%rbp), %eax
	xorl	%eax, %r15d
	orl	%r15d, %eax
	movl	%eax, -104(%rbp)
	xorl	%r13d, -108(%rbp)
	movl	-108(%rbp), %eax
	xorl	%eax, %r13d
	orl	%r13d, %eax
	movl	%eax, -108(%rbp)
	xorl	%r12d, -112(%rbp)
	movl	-112(%rbp), %eax
	xorl	%eax, %r12d
	orl	%r12d, %eax
	movl	%eax, -112(%rbp)
	xorl	%ebx, %r14d
	xorl	%r14d, %ebx
	orl	%ebx, %r14d
	xorl	%edx, -144(%rbp)
	movl	-144(%rbp), %eax
	xorl	%eax, %edx
	orl	%edx, %eax
	xorl	%esi, -148(%rbp)
	movl	-148(%rbp), %ecx
	xorl	%ecx, %esi
	orl	%esi, %ecx
	movl	%ecx, -148(%rbp)
	xorl	%r8d, %edi
	xorl	%edi, %r8d
	orl	%r8d, %edi
	movl	%edi, -116(%rbp)
	xorl	%r10d, %r9d
	xorl	%r9d, %r10d
	orl	%r10d, %r9d
	movl	-120(%rbp), %edi
	xorl	%edi, %r11d
	xorl	%r11d, %edi
	movl	%edi, -120(%rbp)
	orl	%edi, %r11d
	movl	-124(%rbp), %ecx
	xorl	%ecx, -84(%rbp)
	movl	-84(%rbp), %edi
	xorl	%edi, %ecx
	movl	%ecx, -124(%rbp)
	orl	%ecx, %edi
	movl	%edi, -84(%rbp)
	movl	-128(%rbp), %edi
	xorl	%edi, -88(%rbp)
	movl	-88(%rbp), %ecx
	xorl	%ecx, %edi
	movl	%edi, -128(%rbp)
	orl	%edi, %ecx
	movl	%ecx, -88(%rbp)
	movl	-132(%rbp), %edi
	xorl	%edi, -92(%rbp)
	movl	-92(%rbp), %ecx
	xorl	%ecx, %edi
	movl	%edi, -132(%rbp)
	orl	%edi, %ecx
	movl	%ecx, -92(%rbp)
	movl	-136(%rbp), %edi
	xorl	%edi, -96(%rbp)
	movl	-96(%rbp), %ecx
	xorl	%ecx, %edi
	movl	%edi, -136(%rbp)
	orl	%edi, %ecx
	movl	%ecx, -96(%rbp)
	movl	-140(%rbp), %edi
	xorl	%edi, -100(%rbp)
	movl	-100(%rbp), %ecx
	xorl	%ecx, %edi
	movl	%edi, -140(%rbp)
	orl	%edi, %ecx
	movl	%ecx, -100(%rbp)
	xorl	%r15d, -104(%rbp)
	movl	-104(%rbp), %ecx
	xorl	%ecx, %r15d
	orl	%r15d, %ecx
	movl	%ecx, -104(%rbp)
	xorl	%r13d, -108(%rbp)
	movl	-108(%rbp), %ecx
	xorl	%ecx, %r13d
	orl	%r13d, %ecx
	movl	%ecx, -108(%rbp)
	xorl	%r12d, -112(%rbp)
	movl	-112(%rbp), %ecx
	xorl	%ecx, %r12d
	orl	%r12d, %ecx
	movl	%ecx, -112(%rbp)
	xorl	%ebx, %r14d
	xorl	%r14d, %ebx
	orl	%ebx, %r14d
	xorl	%edx, %eax
	xorl	%eax, %edx
	movl	%edx, -160(%rbp)
	orl	%edx, %eax
	movl	%eax, -144(%rbp)
	xorl	%esi, -148(%rbp)
	movl	-148(%rbp), %ecx
	xorl	%ecx, %esi
	orl	%esi, %ecx
	movl	%ecx, -148(%rbp)
	xorl	%r8d, -116(%rbp)
	movl	-116(%rbp), %edi
	xorl	%edi, %r8d
	orl	%r8d, %edi
	movl	%edi, -116(%rbp)
	xorl	%r10d, %r9d
	xorl	%r9d, %r10d
	orl	%r10d, %r9d
	movl	%r9d, -152(%rbp)
	movl	-120(%rbp), %eax
	xorl	%eax, %r11d
	xorl	%r11d, %eax
	movl	%eax, -120(%rbp)
	orl	%eax, %r11d
	movl	%r11d, -156(%rbp)
	movl	-124(%rbp), %eax
	xorl	%eax, -84(%rbp)
	movl	-84(%rbp), %edi
	xorl	%edi, %eax
	movl	%eax, -124(%rbp)
	orl	%eax, %edi
	movl	%edi, -84(%rbp)
	movl	-128(%rbp), %edi
	xorl	%edi, -88(%rbp)
	movl	-88(%rbp), %ecx
	xorl	%ecx, %edi
	movl	%edi, -128(%rbp)
	orl	%edi, %ecx
	movl	%ecx, -88(%rbp)
	movl	-132(%rbp), %edi
	xorl	%edi, -92(%rbp)
	movl	-92(%rbp), %ecx
	xorl	%ecx, %edi
	movl	%edi, -132(%rbp)
	orl	%edi, %ecx
	movl	%ecx, -92(%rbp)
	movl	-136(%rbp), %edi
	xorl	%edi, -96(%rbp)
	movl	-96(%rbp), %ecx
	xorl	%ecx, %edi
	movl	%edi, -136(%rbp)
	orl	%edi, %ecx
	movl	%ecx, -96(%rbp)
	movl	-140(%rbp), %edi
	xorl	%edi, -100(%rbp)
	movl	-100(%rbp), %ecx
	xorl	%ecx, %edi
	movl	%edi, -140(%rbp)
	orl	%edi, %ecx
	movl	%ecx, -100(%rbp)
	xorl	%r15d, -104(%rbp)
	movl	-104(%rbp), %ecx
	xorl	%ecx, %r15d
	orl	%r15d, %ecx
	movl	%ecx, -104(%rbp)
	xorl	%r13d, -108(%rbp)
	movl	-108(%rbp), %ecx
	xorl	%ecx, %r13d
	orl	%r13d, %ecx
	movl	%ecx, -108(%rbp)
	xorl	%r12d, -112(%rbp)
	movl	-112(%rbp), %ecx
	xorl	%ecx, %r12d
	orl	%r12d, %ecx
	movl	%ecx, -112(%rbp)
	xorl	%ebx, %r14d
	xorl	%r14d, %ebx
	orl	%ebx, %r14d
.L58:
	movq	-168(%rbp), %rax
	leaq	-1(%rax), %rdx
	movq	%rdx, -168(%rbp)
	testq	%rax, %rax
	jne	.L59
	movl	-144(%rbp), %edi
	call	use_int@PLT
	movl	-148(%rbp), %edi
	call	use_int@PLT
	movl	-116(%rbp), %edi
	call	use_int@PLT
	movl	-152(%rbp), %edi
	call	use_int@PLT
	movl	-156(%rbp), %edi
	call	use_int@PLT
	movl	-84(%rbp), %edi
	call	use_int@PLT
	movl	-88(%rbp), %edi
	call	use_int@PLT
	movl	-92(%rbp), %edi
	call	use_int@PLT
	movl	-96(%rbp), %edi
	call	use_int@PLT
	movl	-100(%rbp), %edi
	call	use_int@PLT
	movl	-104(%rbp), %edi
	call	use_int@PLT
	movl	-108(%rbp), %edi
	call	use_int@PLT
	movl	-112(%rbp), %edi
	call	use_int@PLT
	movl	%r14d, %edi
	call	use_int@PLT
	addq	$136, %rsp
	popq	%rbx
	popq	%r12
	popq	%r13
	popq	%r14
	popq	%r15
	popq	%rbp
	.cfi_def_cfa 7, 8
	ret
	.cfi_endproc
.LFE22:
	.size	integer_bit_13, .-integer_bit_13
	.globl	integer_bit_14
	.type	integer_bit_14, @function
integer_bit_14:
.LFB23:
	.cfi_startproc
	endbr64
	pushq	%rbp
	.cfi_def_cfa_offset 16
	.cfi_offset 6, -16
	movq	%rsp, %rbp
	.cfi_def_cfa_register 6
	pushq	%r15
	pushq	%r14
	pushq	%r13
	pushq	%r12
	pushq	%rbx
	subq	$136, %rsp
	.cfi_offset 15, -24
	.cfi_offset 14, -32
	.cfi_offset 13, -40
	.cfi_offset 12, -48
	.cfi_offset 3, -56
	movq	%rdi, -72(%rbp)
	movq	%rsi, -80(%rbp)
	movq	-72(%rbp), %rax
	movq	%rax, -176(%rbp)
	movq	-80(%rbp), %rax
	movq	%rax, -56(%rbp)
	movq	-56(%rbp), %rax
	movl	12(%rax), %eax
	addl	$1, %eax
	movl	%eax, -152(%rbp)
	addl	$1, %eax
	movl	%eax, -168(%rbp)
	movq	-56(%rbp), %rax
	movl	16(%rax), %eax
	addl	$1, %eax
	movl	%eax, -156(%rbp)
	addl	$2, %eax
	movl	%eax, %esi
	movq	-56(%rbp), %rax
	movl	20(%rax), %eax
	addl	$1, %eax
	movl	%eax, -120(%rbp)
	addl	$3, %eax
	movl	%eax, %r8d
	movq	-56(%rbp), %rax
	movl	24(%rax), %eax
	addl	$1, %eax
	movl	%eax, -160(%rbp)
	addl	$4, %eax
	movl	%eax, %r10d
	movq	-56(%rbp), %rax
	movl	28(%rax), %eax
	addl	$1, %eax
	movl	%eax, -164(%rbp)
	addl	$5, %eax
	movl	%eax, -124(%rbp)
	movq	-56(%rbp), %rax
	movl	32(%rax), %eax
	addl	$1, %eax
	movl	%eax, -84(%rbp)
	addl	$6, %eax
	movl	%eax, -128(%rbp)
	movq	-56(%rbp), %rax
	movl	36(%rax), %eax
	addl	$1, %eax
	movl	%eax, -88(%rbp)
	addl	$7, %eax
	movl	%eax, -132(%rbp)
	movq	-56(%rbp), %rax
	movl	40(%rax), %eax
	addl	$1, %eax
	movl	%eax, -92(%rbp)
	addl	$8, %eax
	movl	%eax, -136(%rbp)
	movq	-56(%rbp), %rax
	movl	44(%rax), %eax
	addl	$1, %eax
	movl	%eax, -96(%rbp)
	addl	$9, %eax
	movl	%eax, -140(%rbp)
	movq	-56(%rbp), %rax
	movl	48(%rax), %eax
	addl	$1, %eax
	movl	%eax, -100(%rbp)
	addl	$10, %eax
	movl	%eax, -144(%rbp)
	movq	-56(%rbp), %rax
	movl	52(%rax), %eax
	addl	$1, %eax
	movl	%eax, -104(%rbp)
	addl	$11, %eax
	movl	%eax, -148(%rbp)
	movq	-56(%rbp), %rax
	movl	56(%rax), %eax
	addl	$1, %eax
	movl	%eax, -108(%rbp)
	leal	12(%rax), %r15d
	movq	-56(%rbp), %rax
	movl	60(%rax), %eax
	addl	$1, %eax
	movl	%eax, -112(%rbp)
	leal	13(%rax), %r13d
	movq	-56(%rbp), %rax
	movl	64(%rax), %eax
	addl	$1, %eax
	movl	%eax, -116(%rbp)
	leal	14(%rax), %r12d
	movq	-56(%rbp), %rax
	movl	68(%rax), %eax
	leal	1(%rax), %r14d
	leal	15(%r14), %ebx
	jmp	.L61
.L62:
	movl	-168(%rbp), %edx
	xorl	%edx, -152(%rbp)
	movl	-152(%rbp), %eax
	xorl	%eax, %edx
	orl	%edx, %eax
	movl	%eax, -152(%rbp)
	xorl	%esi, -156(%rbp)
	movl	-156(%rbp), %ecx
	xorl	%ecx, %esi
	orl	%esi, %ecx
	xorl	%r8d, -120(%rbp)
	movl	-120(%rbp), %edi
	xorl	%edi, %r8d
	orl	%r8d, %edi
	movl	%edi, -120(%rbp)
	xorl	%r10d, -160(%rbp)
	movl	-160(%rbp), %r9d
	xorl	%r9d, %r10d
	orl	%r10d, %r9d
	movl	-124(%rbp), %eax
	xorl	%eax, -164(%rbp)
	movl	-164(%rbp), %r11d
	xorl	%r11d, %eax
	movl	%eax, -124(%rbp)
	orl	%eax, %r11d
	movl	-128(%rbp), %edi
	xorl	%edi, -84(%rbp)
	movl	-84(%rbp), %eax
	xorl	%eax, %edi
	movl	%edi, -128(%rbp)
	orl	%edi, %eax
	movl	%eax, -84(%rbp)
	movl	-132(%rbp), %eax
	xorl	%eax, -88(%rbp)
	movl	-88(%rbp), %edi
	xorl	%edi, %eax
	movl	%eax, -132(%rbp)
	orl	%eax, %edi
	movl	%edi, -88(%rbp)
	movl	-136(%rbp), %eax
	xorl	%eax, -92(%rbp)
	movl	-92(%rbp), %edi
	xorl	%edi, %eax
	movl	%eax, -136(%rbp)
	orl	%eax, %edi
	movl	%edi, -92(%rbp)
	movl	-140(%rbp), %eax
	xorl	%eax, -96(%rbp)
	movl	-96(%rbp), %edi
	xorl	%edi, %eax
	movl	%eax, -140(%rbp)
	orl	%eax, %edi
	movl	%edi, -96(%rbp)
	movl	-144(%rbp), %eax
	xorl	%eax, -100(%rbp)
	movl	-100(%rbp), %edi
	xorl	%edi, %eax
	movl	%eax, -144(%rbp)
	orl	%eax, %edi
	movl	%edi, -100(%rbp)
	movl	-148(%rbp), %eax
	xorl	%eax, -104(%rbp)
	movl	-104(%rbp), %edi
	xorl	%edi, %eax
	movl	%eax, -148(%rbp)
	orl	%eax, %edi
	movl	%edi, -104(%rbp)
	xorl	%r15d, -108(%rbp)
	movl	-108(%rbp), %edi
	xorl	%edi, %r15d
	orl	%r15d, %edi
	movl	%edi, -108(%rbp)
	xorl	%r13d, -112(%rbp)
	movl	-112(%rbp), %edi
	xorl	%edi, %r13d
	orl	%r13d, %edi
	movl	%edi, -112(%rbp)
	xorl	%r12d, -116(%rbp)
	movl	-116(%rbp), %eax
	xorl	%eax, %r12d
	orl	%r12d, %eax
	movl	%eax, -116(%rbp)
	xorl	%ebx, %r14d
	xorl	%r14d, %ebx
	orl	%ebx, %r14d
	xorl	%edx, -152(%rbp)
	movl	-152(%rbp), %eax
	xorl	%eax, %edx
	orl	%edx, %eax
	xorl	%esi, %ecx
	xorl	%ecx, %esi
	orl	%esi, %ecx
	movl	%ecx, -156(%rbp)
	xorl	%r8d, -120(%rbp)
	movl	-120(%rbp), %edi
	xorl	%edi, %r8d
	orl	%r8d, %edi
	movl	%edi, -120(%rbp)
	xorl	%r10d, %r9d
	xorl	%r9d, %r10d
	orl	%r10d, %r9d
	movl	-124(%rbp), %ecx
	xorl	%ecx, %r11d
	xorl	%r11d, %ecx
	movl	%ecx, -124(%rbp)
	orl	%ecx, %r11d
	movl	-128(%rbp), %edi
	xorl	%edi, -84(%rbp)
	movl	-84(%rbp), %ecx
	xorl	%ecx, %edi
	movl	%edi, -128(%rbp)
	orl	%edi, %ecx
	movl	%ecx, -84(%rbp)
	movl	-132(%rbp), %ecx
	xorl	%ecx, -88(%rbp)
	movl	-88(%rbp), %edi
	xorl	%edi, %ecx
	movl	%ecx, -132(%rbp)
	orl	%ecx, %edi
	movl	%edi, -88(%rbp)
	movl	-136(%rbp), %ecx
	xorl	%ecx, -92(%rbp)
	movl	-92(%rbp), %edi
	xorl	%edi, %ecx
	movl	%ecx, -136(%rbp)
	orl	%ecx, %edi
	movl	%edi, -92(%rbp)
	movl	-140(%rbp), %ecx
	xorl	%ecx, -96(%rbp)
	movl	-96(%rbp), %edi
	xorl	%edi, %ecx
	movl	%ecx, -140(%rbp)
	orl	%ecx, %edi
	movl	%edi, -96(%rbp)
	movl	-144(%rbp), %ecx
	xorl	%ecx, -100(%rbp)
	movl	-100(%rbp), %edi
	xorl	%edi, %ecx
	movl	%ecx, -144(%rbp)
	orl	%ecx, %edi
	movl	%edi, -100(%rbp)
	movl	-148(%rbp), %ecx
	xorl	%ecx, -104(%rbp)
	movl	-104(%rbp), %edi
	xorl	%edi, %ecx
	movl	%ecx, -148(%rbp)
	orl	%ecx, %edi
	movl	%edi, -104(%rbp)
	xorl	%r15d, -108(%rbp)
	movl	-108(%rbp), %edi
	xorl	%edi, %r15d
	orl	%r15d, %edi
	movl	%edi, -108(%rbp)
	xorl	%r13d, -112(%rbp)
	movl	-112(%rbp), %edi
	xorl	%edi, %r13d
	orl	%r13d, %edi
	movl	%edi, -112(%rbp)
	xorl	%r12d, -116(%rbp)
	movl	-116(%rbp), %ecx
	xorl	%ecx, %r12d
	orl	%r12d, %ecx
	movl	%ecx, -116(%rbp)
	xorl	%ebx, %r14d
	xorl	%r14d, %ebx
	orl	%ebx, %r14d
	xorl	%edx, %eax
	xorl	%eax, %edx
	orl	%edx, %eax
	movl	%eax, -152(%rbp)
	xorl	%esi, -156(%rbp)
	movl	-156(%rbp), %ecx
	xorl	%ecx, %esi
	orl	%esi, %ecx
	xorl	%r8d, -120(%rbp)
	movl	-120(%rbp), %edi
	xorl	%edi, %r8d
	orl	%r8d, %edi
	movl	%edi, -120(%rbp)
	xorl	%r10d, %r9d
	xorl	%r9d, %r10d
	orl	%r10d, %r9d
	movl	-124(%rbp), %eax
	xorl	%eax, %r11d
	xorl	%r11d, %eax
	movl	%eax, -124(%rbp)
	orl	%eax, %r11d
	movl	-128(%rbp), %edi
	xorl	%edi, -84(%rbp)
	movl	-84(%rbp), %eax
	xorl	%eax, %edi
	movl	%edi, -128(%rbp)
	orl	%edi, %eax
	movl	%eax, -84(%rbp)
	movl	-132(%rbp), %eax
	xorl	%eax, -88(%rbp)
	movl	-88(%rbp), %edi
	xorl	%edi, %eax
	movl	%eax, -132(%rbp)
	orl	%eax, %edi
	movl	%edi, -88(%rbp)
	movl	-136(%rbp), %eax
	xorl	%eax, -92(%rbp)
	movl	-92(%rbp), %edi
	xorl	%edi, %eax
	movl	%eax, -136(%rbp)
	orl	%eax, %edi
	movl	%edi, -92(%rbp)
	movl	-140(%rbp), %eax
	xorl	%eax, -96(%rbp)
	movl	-96(%rbp), %edi
	xorl	%edi, %eax
	movl	%eax, -140(%rbp)
	orl	%eax, %edi
	movl	%edi, -96(%rbp)
	movl	-144(%rbp), %eax
	xorl	%eax, -100(%rbp)
	movl	-100(%rbp), %edi
	xorl	%edi, %eax
	movl	%eax, -144(%rbp)
	orl	%eax, %edi
	movl	%edi, -100(%rbp)
	movl	-148(%rbp), %eax
	xorl	%eax, -104(%rbp)
	movl	-104(%rbp), %edi
	xorl	%edi, %eax
	movl	%eax, -148(%rbp)
	orl	%eax, %edi
	movl	%edi, -104(%rbp)
	xorl	%r15d, -108(%rbp)
	movl	-108(%rbp), %edi
	xorl	%edi, %r15d
	orl	%r15d, %edi
	movl	%edi, -108(%rbp)
	xorl	%r13d, -112(%rbp)
	movl	-112(%rbp), %edi
	xorl	%edi, %r13d
	orl	%r13d, %edi
	movl	%edi, -112(%rbp)
	xorl	%r12d, -116(%rbp)
	movl	-116(%rbp), %eax
	xorl	%eax, %r12d
	orl	%r12d, %eax
	movl	%eax, -116(%rbp)
	xorl	%ebx, %r14d
	xorl	%r14d, %ebx
	orl	%ebx, %r14d
	xorl	%edx, -152(%rbp)
	movl	-152(%rbp), %eax
	xorl	%eax, %edx
	orl	%edx, %eax
	xorl	%esi, %ecx
	xorl	%ecx, %esi
	orl	%esi, %ecx
	movl	%ecx, -156(%rbp)
	xorl	%r8d, -120(%rbp)
	movl	-120(%rbp), %edi
	xorl	%edi, %r8d
	orl	%r8d, %edi
	movl	%edi, -120(%rbp)
	xorl	%r10d, %r9d
	xorl	%r9d, %r10d
	orl	%r10d, %r9d
	movl	-124(%rbp), %ecx
	xorl	%ecx, %r11d
	xorl	%r11d, %ecx
	movl	%ecx, -124(%rbp)
	orl	%ecx, %r11d
	movl	-128(%rbp), %edi
	xorl	%edi, -84(%rbp)
	movl	-84(%rbp), %ecx
	xorl	%ecx, %edi
	movl	%edi, -128(%rbp)
	orl	%edi, %ecx
	movl	%ecx, -84(%rbp)
	movl	-132(%rbp), %ecx
	xorl	%ecx, -88(%rbp)
	movl	-88(%rbp), %edi
	xorl	%edi, %ecx
	movl	%ecx, -132(%rbp)
	orl	%ecx, %edi
	movl	%edi, -88(%rbp)
	movl	-136(%rbp), %ecx
	xorl	%ecx, -92(%rbp)
	movl	-92(%rbp), %edi
	xorl	%edi, %ecx
	movl	%ecx, -136(%rbp)
	orl	%ecx, %edi
	movl	%edi, -92(%rbp)
	movl	-140(%rbp), %ecx
	xorl	%ecx, -96(%rbp)
	movl	-96(%rbp), %edi
	xorl	%edi, %ecx
	movl	%ecx, -140(%rbp)
	orl	%ecx, %edi
	movl	%edi, -96(%rbp)
	movl	-144(%rbp), %ecx
	xorl	%ecx, -100(%rbp)
	movl	-100(%rbp), %edi
	xorl	%edi, %ecx
	movl	%ecx, -144(%rbp)
	orl	%ecx, %edi
	movl	%edi, -100(%rbp)
	movl	-148(%rbp), %ecx
	xorl	%ecx, -104(%rbp)
	movl	-104(%rbp), %edi
	xorl	%edi, %ecx
	movl	%ecx, -148(%rbp)
	orl	%ecx, %edi
	movl	%edi, -104(%rbp)
	xorl	%r15d, -108(%rbp)
	movl	-108(%rbp), %edi
	xorl	%edi, %r15d
	orl	%r15d, %edi
	movl	%edi, -108(%rbp)
	xorl	%r13d, -112(%rbp)
	movl	-112(%rbp), %edi
	xorl	%edi, %r13d
	orl	%r13d, %edi
	movl	%edi, -112(%rbp)
	xorl	%r12d, -116(%rbp)
	movl	-116(%rbp), %ecx
	xorl	%ecx, %r12d
	orl	%r12d, %ecx
	movl	%ecx, -116(%rbp)
	xorl	%ebx, %r14d
	xorl	%r14d, %ebx
	orl	%ebx, %r14d
	xorl	%edx, %eax
	xorl	%eax, %edx
	orl	%edx, %eax
	movl	%eax, -152(%rbp)
	xorl	%esi, -156(%rbp)
	movl	-156(%rbp), %ecx
	xorl	%ecx, %esi
	orl	%esi, %ecx
	xorl	%r8d, -120(%rbp)
	movl	-120(%rbp), %edi
	xorl	%edi, %r8d
	orl	%r8d, %edi
	movl	%edi, -120(%rbp)
	xorl	%r10d, %r9d
	xorl	%r9d, %r10d
	orl	%r10d, %r9d
	movl	-124(%rbp), %eax
	xorl	%eax, %r11d
	xorl	%r11d, %eax
	movl	%eax, -124(%rbp)
	orl	%eax, %r11d
	movl	-128(%rbp), %edi
	xorl	%edi, -84(%rbp)
	movl	-84(%rbp), %eax
	xorl	%eax, %edi
	movl	%edi, -128(%rbp)
	orl	%edi, %eax
	movl	%eax, -84(%rbp)
	movl	-132(%rbp), %eax
	xorl	%eax, -88(%rbp)
	movl	-88(%rbp), %edi
	xorl	%edi, %eax
	movl	%eax, -132(%rbp)
	orl	%eax, %edi
	movl	%edi, -88(%rbp)
	movl	-136(%rbp), %eax
	xorl	%eax, -92(%rbp)
	movl	-92(%rbp), %edi
	xorl	%edi, %eax
	movl	%eax, -136(%rbp)
	orl	%eax, %edi
	movl	%edi, -92(%rbp)
	movl	-140(%rbp), %eax
	xorl	%eax, -96(%rbp)
	movl	-96(%rbp), %edi
	xorl	%edi, %eax
	movl	%eax, -140(%rbp)
	orl	%eax, %edi
	movl	%edi, -96(%rbp)
	movl	-144(%rbp), %eax
	xorl	%eax, -100(%rbp)
	movl	-100(%rbp), %edi
	xorl	%edi, %eax
	movl	%eax, -144(%rbp)
	orl	%eax, %edi
	movl	%edi, -100(%rbp)
	movl	-148(%rbp), %eax
	xorl	%eax, -104(%rbp)
	movl	-104(%rbp), %edi
	xorl	%edi, %eax
	movl	%eax, -148(%rbp)
	orl	%eax, %edi
	movl	%edi, -104(%rbp)
	xorl	%r15d, -108(%rbp)
	movl	-108(%rbp), %edi
	xorl	%edi, %r15d
	orl	%r15d, %edi
	movl	%edi, -108(%rbp)
	xorl	%r13d, -112(%rbp)
	movl	-112(%rbp), %edi
	xorl	%edi, %r13d
	orl	%r13d, %edi
	movl	%edi, -112(%rbp)
	xorl	%r12d, -116(%rbp)
	movl	-116(%rbp), %eax
	xorl	%eax, %r12d
	orl	%r12d, %eax
	movl	%eax, -116(%rbp)
	xorl	%ebx, %r14d
	xorl	%r14d, %ebx
	orl	%ebx, %r14d
	xorl	%edx, -152(%rbp)
	movl	-152(%rbp), %eax
	xorl	%eax, %edx
	orl	%edx, %eax
	xorl	%esi, %ecx
	xorl	%ecx, %esi
	orl	%esi, %ecx
	movl	%ecx, -156(%rbp)
	xorl	%r8d, -120(%rbp)
	movl	-120(%rbp), %edi
	xorl	%edi, %r8d
	orl	%r8d, %edi
	movl	%edi, -120(%rbp)
	xorl	%r10d, %r9d
	xorl	%r9d, %r10d
	orl	%r10d, %r9d
	movl	-124(%rbp), %ecx
	xorl	%ecx, %r11d
	xorl	%r11d, %ecx
	movl	%ecx, -124(%rbp)
	orl	%ecx, %r11d
	movl	-128(%rbp), %edi
	xorl	%edi, -84(%rbp)
	movl	-84(%rbp), %ecx
	xorl	%ecx, %edi
	movl	%edi, -128(%rbp)
	orl	%edi, %ecx
	movl	%ecx, -84(%rbp)
	movl	-132(%rbp), %ecx
	xorl	%ecx, -88(%rbp)
	movl	-88(%rbp), %edi
	xorl	%edi, %ecx
	movl	%ecx, -132(%rbp)
	orl	%ecx, %edi
	movl	%edi, -88(%rbp)
	movl	-136(%rbp), %ecx
	xorl	%ecx, -92(%rbp)
	movl	-92(%rbp), %edi
	xorl	%edi, %ecx
	movl	%ecx, -136(%rbp)
	orl	%ecx, %edi
	movl	%edi, -92(%rbp)
	movl	-140(%rbp), %ecx
	xorl	%ecx, -96(%rbp)
	movl	-96(%rbp), %edi
	xorl	%edi, %ecx
	movl	%ecx, -140(%rbp)
	orl	%ecx, %edi
	movl	%edi, -96(%rbp)
	movl	-144(%rbp), %ecx
	xorl	%ecx, -100(%rbp)
	movl	-100(%rbp), %edi
	xorl	%edi, %ecx
	movl	%ecx, -144(%rbp)
	orl	%ecx, %edi
	movl	%edi, -100(%rbp)
	movl	-148(%rbp), %ecx
	xorl	%ecx, -104(%rbp)
	movl	-104(%rbp), %edi
	xorl	%edi, %ecx
	movl	%ecx, -148(%rbp)
	orl	%ecx, %edi
	movl	%edi, -104(%rbp)
	xorl	%r15d, -108(%rbp)
	movl	-108(%rbp), %edi
	xorl	%edi, %r15d
	orl	%r15d, %edi
	movl	%edi, -108(%rbp)
	xorl	%r13d, -112(%rbp)
	movl	-112(%rbp), %edi
	xorl	%edi, %r13d
	orl	%r13d, %edi
	movl	%edi, -112(%rbp)
	xorl	%r12d, -116(%rbp)
	movl	-116(%rbp), %ecx
	xorl	%ecx, %r12d
	orl	%r12d, %ecx
	movl	%ecx, -116(%rbp)
	xorl	%ebx, %r14d
	xorl	%r14d, %ebx
	orl	%ebx, %r14d
	xorl	%edx, %eax
	xorl	%eax, %edx
	orl	%edx, %eax
	movl	%eax, -152(%rbp)
	xorl	%esi, -156(%rbp)
	movl	-156(%rbp), %ecx
	xorl	%ecx, %esi
	orl	%esi, %ecx
	xorl	%r8d, -120(%rbp)
	movl	-120(%rbp), %edi
	xorl	%edi, %r8d
	orl	%r8d, %edi
	movl	%edi, -120(%rbp)
	xorl	%r10d, %r9d
	xorl	%r9d, %r10d
	orl	%r10d, %r9d
	movl	-124(%rbp), %eax
	xorl	%eax, %r11d
	xorl	%r11d, %eax
	movl	%eax, -124(%rbp)
	orl	%eax, %r11d
	movl	-128(%rbp), %edi
	xorl	%edi, -84(%rbp)
	movl	-84(%rbp), %eax
	xorl	%eax, %edi
	movl	%edi, -128(%rbp)
	orl	%edi, %eax
	movl	%eax, -84(%rbp)
	movl	-132(%rbp), %eax
	xorl	%eax, -88(%rbp)
	movl	-88(%rbp), %edi
	xorl	%edi, %eax
	movl	%eax, -132(%rbp)
	orl	%eax, %edi
	movl	%edi, -88(%rbp)
	movl	-136(%rbp), %eax
	xorl	%eax, -92(%rbp)
	movl	-92(%rbp), %edi
	xorl	%edi, %eax
	movl	%eax, -136(%rbp)
	orl	%eax, %edi
	movl	%edi, -92(%rbp)
	movl	-140(%rbp), %eax
	xorl	%eax, -96(%rbp)
	movl	-96(%rbp), %edi
	xorl	%edi, %eax
	movl	%eax, -140(%rbp)
	orl	%eax, %edi
	movl	%edi, -96(%rbp)
	movl	-144(%rbp), %eax
	xorl	%eax, -100(%rbp)
	movl	-100(%rbp), %edi
	xorl	%edi, %eax
	movl	%eax, -144(%rbp)
	orl	%eax, %edi
	movl	%edi, -100(%rbp)
	movl	-148(%rbp), %eax
	xorl	%eax, -104(%rbp)
	movl	-104(%rbp), %edi
	xorl	%edi, %eax
	movl	%eax, -148(%rbp)
	orl	%eax, %edi
	movl	%edi, -104(%rbp)
	xorl	%r15d, -108(%rbp)
	movl	-108(%rbp), %edi
	xorl	%edi, %r15d
	orl	%r15d, %edi
	movl	%edi, -108(%rbp)
	xorl	%r13d, -112(%rbp)
	movl	-112(%rbp), %edi
	xorl	%edi, %r13d
	orl	%r13d, %edi
	movl	%edi, -112(%rbp)
	xorl	%r12d, -116(%rbp)
	movl	-116(%rbp), %edi
	xorl	%edi, %r12d
	orl	%r12d, %edi
	movl	%edi, -116(%rbp)
	xorl	%ebx, %r14d
	xorl	%r14d, %ebx
	orl	%ebx, %r14d
	xorl	%edx, -152(%rbp)
	movl	-152(%rbp), %eax
	xorl	%eax, %edx
	orl	%edx, %eax
	movl	%eax, -152(%rbp)
	xorl	%esi, %ecx
	xorl	%ecx, %esi
	orl	%esi, %ecx
	movl	%ecx, -156(%rbp)
	xorl	%r8d, -120(%rbp)
	movl	-120(%rbp), %edi
	xorl	%edi, %r8d
	orl	%r8d, %edi
	xorl	%r10d, %r9d
	xorl	%r9d, %r10d
	orl	%r10d, %r9d
	movl	-124(%rbp), %ecx
	xorl	%ecx, %r11d
	xorl	%r11d, %ecx
	movl	%ecx, -124(%rbp)
	orl	%ecx, %r11d
	movl	-128(%rbp), %eax
	xorl	%eax, -84(%rbp)
	movl	-84(%rbp), %ecx
	xorl	%ecx, %eax
	movl	%eax, -128(%rbp)
	orl	%eax, %ecx
	movl	%ecx, -84(%rbp)
	movl	-132(%rbp), %ecx
	xorl	%ecx, -88(%rbp)
	movl	-88(%rbp), %eax
	xorl	%eax, %ecx
	movl	%ecx, -132(%rbp)
	orl	%ecx, %eax
	movl	%eax, -88(%rbp)
	movl	-136(%rbp), %ecx
	xorl	%ecx, -92(%rbp)
	movl	-92(%rbp), %eax
	xorl	%eax, %ecx
	movl	%ecx, -136(%rbp)
	orl	%ecx, %eax
	movl	%eax, -92(%rbp)
	movl	-140(%rbp), %ecx
	xorl	%ecx, -96(%rbp)
	movl	-96(%rbp), %eax
	xorl	%eax, %ecx
	movl	%ecx, -140(%rbp)
	orl	%ecx, %eax
	movl	%eax, -96(%rbp)
	movl	-144(%rbp), %ecx
	xorl	%ecx, -100(%rbp)
	movl	-100(%rbp), %eax
	xorl	%eax, %ecx
	movl	%ecx, -144(%rbp)
	orl	%ecx, %eax
	movl	%eax, -100(%rbp)
	movl	-148(%rbp), %ecx
	xorl	%ecx, -104(%rbp)
	movl	-104(%rbp), %eax
	xorl	%eax, %ecx
	movl	%ecx, -148(%rbp)
	orl	%ecx, %eax
	movl	%eax, -104(%rbp)
	xorl	%r15d, -108(%rbp)
	movl	-108(%rbp), %eax
	xorl	%eax, %r15d
	orl	%r15d, %eax
	movl	%eax, -108(%rbp)
	xorl	%r13d, -112(%rbp)
	movl	-112(%rbp), %eax
	xorl	%eax, %r13d
	orl	%r13d, %eax
	movl	%eax, -112(%rbp)
	xorl	%r12d, -116(%rbp)
	movl	-116(%rbp), %eax
	xorl	%eax, %r12d
	orl	%r12d, %eax
	movl	%eax, -116(%rbp)
	xorl	%ebx, %r14d
	xorl	%r14d, %ebx
	orl	%ebx, %r14d
	xorl	%edx, -152(%rbp)
	movl	-152(%rbp), %eax
	xorl	%eax, %edx
	orl	%edx, %eax
	xorl	%esi, -156(%rbp)
	movl	-156(%rbp), %ecx
	xorl	%ecx, %esi
	orl	%esi, %ecx
	movl	%ecx, -156(%rbp)
	xorl	%r8d, %edi
	xorl	%edi, %r8d
	orl	%r8d, %edi
	movl	%edi, -120(%rbp)
	xorl	%r10d, %r9d
	xorl	%r9d, %r10d
	orl	%r10d, %r9d
	movl	-124(%rbp), %edi
	xorl	%edi, %r11d
	xorl	%r11d, %edi
	movl	%edi, -124(%rbp)
	orl	%edi, %r11d
	movl	-128(%rbp), %ecx
	xorl	%ecx, -84(%rbp)
	movl	-84(%rbp), %edi
	xorl	%edi, %ecx
	movl	%ecx, -128(%rbp)
	orl	%ecx, %edi
	movl	%edi, -84(%rbp)
	movl	-132(%rbp), %edi
	xorl	%edi, -88(%rbp)
	movl	-88(%rbp), %ecx
	xorl	%ecx, %edi
	movl	%edi, -132(%rbp)
	orl	%edi, %ecx
	movl	%ecx, -88(%rbp)
	movl	-136(%rbp), %edi
	xorl	%edi, -92(%rbp)
	movl	-92(%rbp), %ecx
	xorl	%ecx, %edi
	movl	%edi, -136(%rbp)
	orl	%edi, %ecx
	movl	%ecx, -92(%rbp)
	movl	-140(%rbp), %edi
	xorl	%edi, -96(%rbp)
	movl	-96(%rbp), %ecx
	xorl	%ecx, %edi
	movl	%edi, -140(%rbp)
	orl	%edi, %ecx
	movl	%ecx, -96(%rbp)
	movl	-144(%rbp), %edi
	xorl	%edi, -100(%rbp)
	movl	-100(%rbp), %ecx
	xorl	%ecx, %edi
	movl	%edi, -144(%rbp)
	orl	%edi, %ecx
	movl	%ecx, -100(%rbp)
	movl	-148(%rbp), %edi
	xorl	%edi, -104(%rbp)
	movl	-104(%rbp), %ecx
	xorl	%ecx, %edi
	movl	%edi, -148(%rbp)
	orl	%edi, %ecx
	movl	%ecx, -104(%rbp)
	xorl	%r15d, -108(%rbp)
	movl	-108(%rbp), %ecx
	xorl	%ecx, %r15d
	orl	%r15d, %ecx
	movl	%ecx, -108(%rbp)
	xorl	%r13d, -112(%rbp)
	movl	-112(%rbp), %ecx
	xorl	%ecx, %r13d
	orl	%r13d, %ecx
	movl	%ecx, -112(%rbp)
	xorl	%r12d, -116(%rbp)
	movl	-116(%rbp), %ecx
	xorl	%ecx, %r12d
	orl	%r12d, %ecx
	movl	%ecx, -116(%rbp)
	xorl	%ebx, %r14d
	xorl	%r14d, %ebx
	orl	%ebx, %r14d
	xorl	%edx, %eax
	xorl	%eax, %edx
	movl	%edx, -168(%rbp)
	orl	%edx, %eax
	movl	%eax, -152(%rbp)
	xorl	%esi, -156(%rbp)
	movl	-156(%rbp), %ecx
	xorl	%ecx, %esi
	orl	%esi, %ecx
	movl	%ecx, -156(%rbp)
	xorl	%r8d, -120(%rbp)
	movl	-120(%rbp), %edi
	xorl	%edi, %r8d
	orl	%r8d, %edi
	movl	%edi, -120(%rbp)
	xorl	%r10d, %r9d
	xorl	%r9d, %r10d
	orl	%r10d, %r9d
	movl	%r9d, -160(%rbp)
	movl	-124(%rbp), %eax
	xorl	%eax, %r11d
	xorl	%r11d, %eax
	movl	%eax, -124(%rbp)
	orl	%eax, %r11d
	movl	%r11d, -164(%rbp)
	movl	-128(%rbp), %eax
	xorl	%eax, -84(%rbp)
	movl	-84(%rbp), %edi
	xorl	%edi, %eax
	movl	%eax, -128(%rbp)
	orl	%eax, %edi
	movl	%edi, -84(%rbp)
	movl	-132(%rbp), %edi
	xorl	%edi, -88(%rbp)
	movl	-88(%rbp), %ecx
	xorl	%ecx, %edi
	movl	%edi, -132(%rbp)
	orl	%edi, %ecx
	movl	%ecx, -88(%rbp)
	movl	-136(%rbp), %edi
	xorl	%edi, -92(%rbp)
	movl	-92(%rbp), %ecx
	xorl	%ecx, %edi
	movl	%edi, -136(%rbp)
	orl	%edi, %ecx
	movl	%ecx, -92(%rbp)
	movl	-140(%rbp), %edi
	xorl	%edi, -96(%rbp)
	movl	-96(%rbp), %ecx
	xorl	%ecx, %edi
	movl	%edi, -140(%rbp)
	orl	%edi, %ecx
	movl	%ecx, -96(%rbp)
	movl	-144(%rbp), %edi
	xorl	%edi, -100(%rbp)
	movl	-100(%rbp), %ecx
	xorl	%ecx, %edi
	movl	%edi, -144(%rbp)
	orl	%edi, %ecx
	movl	%ecx, -100(%rbp)
	movl	-148(%rbp), %edi
	xorl	%edi, -104(%rbp)
	movl	-104(%rbp), %ecx
	xorl	%ecx, %edi
	movl	%edi, -148(%rbp)
	orl	%edi, %ecx
	movl	%ecx, -104(%rbp)
	xorl	%r15d, -108(%rbp)
	movl	-108(%rbp), %ecx
	xorl	%ecx, %r15d
	orl	%r15d, %ecx
	movl	%ecx, -108(%rbp)
	xorl	%r13d, -112(%rbp)
	movl	-112(%rbp), %ecx
	xorl	%ecx, %r13d
	orl	%r13d, %ecx
	movl	%ecx, -112(%rbp)
	xorl	%r12d, -116(%rbp)
	movl	-116(%rbp), %ecx
	xorl	%ecx, %r12d
	orl	%r12d, %ecx
	movl	%ecx, -116(%rbp)
	xorl	%ebx, %r14d
	xorl	%r14d, %ebx
	orl	%ebx, %r14d
.L61:
	movq	-176(%rbp), %rax
	leaq	-1(%rax), %rdx
	movq	%rdx, -176(%rbp)
	testq	%rax, %rax
	jne	.L62
	movl	-152(%rbp), %edi
	call	use_int@PLT
	movl	-156(%rbp), %edi
	call	use_int@PLT
	movl	-120(%rbp), %edi
	call	use_int@PLT
	movl	-160(%rbp), %edi
	call	use_int@PLT
	movl	-164(%rbp), %edi
	call	use_int@PLT
	movl	-84(%rbp), %edi
	call	use_int@PLT
	movl	-88(%rbp), %edi
	call	use_int@PLT
	movl	-92(%rbp), %edi
	call	use_int@PLT
	movl	-96(%rbp), %edi
	call	use_int@PLT
	movl	-100(%rbp), %edi
	call	use_int@PLT
	movl	-104(%rbp), %edi
	call	use_int@PLT
	movl	-108(%rbp), %edi
	call	use_int@PLT
	movl	-112(%rbp), %edi
	call	use_int@PLT
	movl	-116(%rbp), %edi
	call	use_int@PLT
	movl	%r14d, %edi
	call	use_int@PLT
	addq	$136, %rsp
	popq	%rbx
	popq	%r12
	popq	%r13
	popq	%r14
	popq	%r15
	popq	%rbp
	.cfi_def_cfa 7, 8
	ret
	.cfi_endproc
.LFE23:
	.size	integer_bit_14, .-integer_bit_14
	.globl	integer_bit_15
	.type	integer_bit_15, @function
integer_bit_15:
.LFB24:
	.cfi_startproc
	endbr64
	pushq	%rbp
	.cfi_def_cfa_offset 16
	.cfi_offset 6, -16
	movq	%rsp, %rbp
	.cfi_def_cfa_register 6
	pushq	%r15
	pushq	%r14
	pushq	%r13
	pushq	%r12
	pushq	%rbx
	subq	$152, %rsp
	.cfi_offset 15, -24
	.cfi_offset 14, -32
	.cfi_offset 13, -40
	.cfi_offset 12, -48
	.cfi_offset 3, -56
	movq	%rdi, -72(%rbp)
	movq	%rsi, -80(%rbp)
	movq	-72(%rbp), %rax
	movq	%rax, -184(%rbp)
	movq	-80(%rbp), %rax
	movq	%rax, -56(%rbp)
	movq	-56(%rbp), %rax
	movl	12(%rax), %eax
	addl	$1, %eax
	movl	%eax, -160(%rbp)
	addl	$1, %eax
	movl	%eax, -176(%rbp)
	movq	-56(%rbp), %rax
	movl	16(%rax), %eax
	addl	$1, %eax
	movl	%eax, -164(%rbp)
	addl	$2, %eax
	movl	%eax, %esi
	movq	-56(%rbp), %rax
	movl	20(%rax), %eax
	addl	$1, %eax
	movl	%eax, -124(%rbp)
	addl	$3, %eax
	movl	%eax, %r8d
	movq	-56(%rbp), %rax
	movl	24(%rax), %eax
	addl	$1, %eax
	movl	%eax, -168(%rbp)
	addl	$4, %eax
	movl	%eax, %r10d
	movq	-56(%rbp), %rax
	movl	28(%rax), %eax
	addl	$1, %eax
	movl	%eax, -172(%rbp)
	addl	$5, %eax
	movl	%eax, -128(%rbp)
	movq	-56(%rbp), %rax
	movl	32(%rax), %eax
	addl	$1, %eax
	movl	%eax, -84(%rbp)
	addl	$6, %eax
	movl	%eax, -132(%rbp)
	movq	-56(%rbp), %rax
	movl	36(%rax), %eax
	addl	$1, %eax
	movl	%eax, -88(%rbp)
	addl	$7, %eax
	movl	%eax, -136(%rbp)
	movq	-56(%rbp), %rax
	movl	40(%rax), %eax
	addl	$1, %eax
	movl	%eax, -92(%rbp)
	addl	$8, %eax
	movl	%eax, -140(%rbp)
	movq	-56(%rbp), %rax
	movl	44(%rax), %eax
	addl	$1, %eax
	movl	%eax, -96(%rbp)
	addl	$9, %eax
	movl	%eax, -144(%rbp)
	movq	-56(%rbp), %rax
	movl	48(%rax), %eax
	addl	$1, %eax
	movl	%eax, -100(%rbp)
	addl	$10, %eax
	movl	%eax, -148(%rbp)
	movq	-56(%rbp), %rax
	movl	52(%rax), %eax
	addl	$1, %eax
	movl	%eax, -104(%rbp)
	addl	$11, %eax
	movl	%eax, -152(%rbp)
	movq	-56(%rbp), %rax
	movl	56(%rax), %eax
	addl	$1, %eax
	movl	%eax, -108(%rbp)
	addl	$12, %eax
	movl	%eax, -156(%rbp)
	movq	-56(%rbp), %rax
	movl	60(%rax), %eax
	addl	$1, %eax
	movl	%eax, -112(%rbp)
	leal	13(%rax), %r15d
	movq	-56(%rbp), %rax
	movl	64(%rax), %eax
	addl	$1, %eax
	movl	%eax, -116(%rbp)
	leal	14(%rax), %r13d
	movq	-56(%rbp), %rax
	movl	68(%rax), %eax
	addl	$1, %eax
	movl	%eax, -120(%rbp)
	leal	15(%rax), %r12d
	movq	-56(%rbp), %rax
	movl	72(%rax), %eax
	leal	1(%rax), %r14d
	leal	16(%r14), %ebx
	jmp	.L64
.L65:
	movl	-176(%rbp), %edx
	xorl	%edx, -160(%rbp)
	movl	-160(%rbp), %eax
	xorl	%eax, %edx
	orl	%edx, %eax
	movl	%eax, -160(%rbp)
	xorl	%esi, -164(%rbp)
	movl	-164(%rbp), %ecx
	xorl	%ecx, %esi
	orl	%esi, %ecx
	xorl	%r8d, -124(%rbp)
	movl	-124(%rbp), %edi
	xorl	%edi, %r8d
	orl	%r8d, %edi
	movl	%edi, -124(%rbp)
	xorl	%r10d, -168(%rbp)
	movl	-168(%rbp), %r9d
	xorl	%r9d, %r10d
	orl	%r10d, %r9d
	movl	-128(%rbp), %eax
	xorl	%eax, -172(%rbp)
	movl	-172(%rbp), %r11d
	xorl	%r11d, %eax
	movl	%eax, -128(%rbp)
	orl	%eax, %r11d
	movl	-132(%rbp), %edi
	xorl	%edi, -84(%rbp)
	movl	-84(%rbp), %eax
	xorl	%eax, %edi
	movl	%edi, -132(%rbp)
	orl	%edi, %eax
	movl	%eax, -84(%rbp)
	movl	-136(%rbp), %eax
	xorl	%eax, -88(%rbp)
	movl	-88(%rbp), %edi
	xorl	%edi, %eax
	movl	%eax, -136(%rbp)
	orl	%eax, %edi
	movl	%edi, -88(%rbp)
	movl	-140(%rbp), %eax
	xorl	%eax, -92(%rbp)
	movl	-92(%rbp), %edi
	xorl	%edi, %eax
	movl	%eax, -140(%rbp)
	orl	%eax, %edi
	movl	%edi, -92(%rbp)
	movl	-144(%rbp), %eax
	xorl	%eax, -96(%rbp)
	movl	-96(%rbp), %edi
	xorl	%edi, %eax
	movl	%eax, -144(%rbp)
	orl	%eax, %edi
	movl	%edi, -96(%rbp)
	movl	-148(%rbp), %eax
	xorl	%eax, -100(%rbp)
	movl	-100(%rbp), %edi
	xorl	%edi, %eax
	movl	%eax, -148(%rbp)
	orl	%eax, %edi
	movl	%edi, -100(%rbp)
	movl	-152(%rbp), %eax
	xorl	%eax, -104(%rbp)
	movl	-104(%rbp), %edi
	xorl	%edi, %eax
	movl	%eax, -152(%rbp)
	orl	%eax, %edi
	movl	%edi, -104(%rbp)
	movl	-156(%rbp), %eax
	xorl	%eax, -108(%rbp)
	movl	-108(%rbp), %edi
	xorl	%edi, %eax
	movl	%eax, -156(%rbp)
	orl	%eax, %edi
	movl	%edi, -108(%rbp)
	xorl	%r15d, -112(%rbp)
	movl	-112(%rbp), %edi
	xorl	%edi, %r15d
	orl	%r15d, %edi
	movl	%edi, -112(%rbp)
	xorl	%r13d, -116(%rbp)
	movl	-116(%rbp), %edi
	xorl	%edi, %r13d
	orl	%r13d, %edi
	movl	%edi, -116(%rbp)
	xorl	%r12d, -120(%rbp)
	movl	-120(%rbp), %eax
	xorl	%eax, %r12d
	orl	%r12d, %eax
	movl	%eax, -120(%rbp)
	xorl	%ebx, %r14d
	xorl	%r14d, %ebx
	orl	%ebx, %r14d
	xorl	%edx, -160(%rbp)
	movl	-160(%rbp), %eax
	xorl	%eax, %edx
	orl	%edx, %eax
	xorl	%esi, %ecx
	xorl	%ecx, %esi
	orl	%esi, %ecx
	movl	%ecx, -164(%rbp)
	xorl	%r8d, -124(%rbp)
	movl	-124(%rbp), %edi
	xorl	%edi, %r8d
	orl	%r8d, %edi
	movl	%edi, -124(%rbp)
	xorl	%r10d, %r9d
	xorl	%r9d, %r10d
	orl	%r10d, %r9d
	movl	-128(%rbp), %ecx
	xorl	%ecx, %r11d
	xorl	%r11d, %ecx
	movl	%ecx, -128(%rbp)
	orl	%ecx, %r11d
	movl	-132(%rbp), %edi
	xorl	%edi, -84(%rbp)
	movl	-84(%rbp), %ecx
	xorl	%ecx, %edi
	movl	%edi, -132(%rbp)
	orl	%edi, %ecx
	movl	%ecx, -84(%rbp)
	movl	-136(%rbp), %ecx
	xorl	%ecx, -88(%rbp)
	movl	-88(%rbp), %edi
	xorl	%edi, %ecx
	movl	%ecx, -136(%rbp)
	orl	%ecx, %edi
	movl	%edi, -88(%rbp)
	movl	-140(%rbp), %ecx
	xorl	%ecx, -92(%rbp)
	movl	-92(%rbp), %edi
	xorl	%edi, %ecx
	movl	%ecx, -140(%rbp)
	orl	%ecx, %edi
	movl	%edi, -92(%rbp)
	movl	-144(%rbp), %ecx
	xorl	%ecx, -96(%rbp)
	movl	-96(%rbp), %edi
	xorl	%edi, %ecx
	movl	%ecx, -144(%rbp)
	orl	%ecx, %edi
	movl	%edi, -96(%rbp)
	movl	-148(%rbp), %ecx
	xorl	%ecx, -100(%rbp)
	movl	-100(%rbp), %edi
	xorl	%edi, %ecx
	movl	%ecx, -148(%rbp)
	orl	%ecx, %edi
	movl	%edi, -100(%rbp)
	movl	-152(%rbp), %ecx
	xorl	%ecx, -104(%rbp)
	movl	-104(%rbp), %edi
	xorl	%edi, %ecx
	movl	%ecx, -152(%rbp)
	orl	%ecx, %edi
	movl	%edi, -104(%rbp)
	movl	-156(%rbp), %ecx
	xorl	%ecx, -108(%rbp)
	movl	-108(%rbp), %edi
	xorl	%edi, %ecx
	movl	%ecx, -156(%rbp)
	orl	%ecx, %edi
	movl	%edi, -108(%rbp)
	xorl	%r15d, -112(%rbp)
	movl	-112(%rbp), %edi
	xorl	%edi, %r15d
	orl	%r15d, %edi
	movl	%edi, -112(%rbp)
	xorl	%r13d, -116(%rbp)
	movl	-116(%rbp), %edi
	xorl	%edi, %r13d
	orl	%r13d, %edi
	movl	%edi, -116(%rbp)
	xorl	%r12d, -120(%rbp)
	movl	-120(%rbp), %ecx
	xorl	%ecx, %r12d
	orl	%r12d, %ecx
	movl	%ecx, -120(%rbp)
	xorl	%ebx, %r14d
	xorl	%r14d, %ebx
	orl	%ebx, %r14d
	xorl	%edx, %eax
	xorl	%eax, %edx
	orl	%edx, %eax
	movl	%eax, -160(%rbp)
	xorl	%esi, -164(%rbp)
	movl	-164(%rbp), %ecx
	xorl	%ecx, %esi
	orl	%esi, %ecx
	xorl	%r8d, -124(%rbp)
	movl	-124(%rbp), %edi
	xorl	%edi, %r8d
	orl	%r8d, %edi
	movl	%edi, -124(%rbp)
	xorl	%r10d, %r9d
	xorl	%r9d, %r10d
	orl	%r10d, %r9d
	movl	-128(%rbp), %eax
	xorl	%eax, %r11d
	xorl	%r11d, %eax
	movl	%eax, -128(%rbp)
	orl	%eax, %r11d
	movl	-132(%rbp), %edi
	xorl	%edi, -84(%rbp)
	movl	-84(%rbp), %eax
	xorl	%eax, %edi
	movl	%edi, -132(%rbp)
	orl	%edi, %eax
	movl	%eax, -84(%rbp)
	movl	-136(%rbp), %eax
	xorl	%eax, -88(%rbp)
	movl	-88(%rbp), %edi
	xorl	%edi, %eax
	movl	%eax, -136(%rbp)
	orl	%eax, %edi
	movl	%edi, -88(%rbp)
	movl	-140(%rbp), %eax
	xorl	%eax, -92(%rbp)
	movl	-92(%rbp), %edi
	xorl	%edi, %eax
	movl	%eax, -140(%rbp)
	orl	%eax, %edi
	movl	%edi, -92(%rbp)
	movl	-144(%rbp), %eax
	xorl	%eax, -96(%rbp)
	movl	-96(%rbp), %edi
	xorl	%edi, %eax
	movl	%eax, -144(%rbp)
	orl	%eax, %edi
	movl	%edi, -96(%rbp)
	movl	-148(%rbp), %eax
	xorl	%eax, -100(%rbp)
	movl	-100(%rbp), %edi
	xorl	%edi, %eax
	movl	%eax, -148(%rbp)
	orl	%eax, %edi
	movl	%edi, -100(%rbp)
	movl	-152(%rbp), %eax
	xorl	%eax, -104(%rbp)
	movl	-104(%rbp), %edi
	xorl	%edi, %eax
	movl	%eax, -152(%rbp)
	orl	%eax, %edi
	movl	%edi, -104(%rbp)
	movl	-156(%rbp), %eax
	xorl	%eax, -108(%rbp)
	movl	-108(%rbp), %edi
	xorl	%edi, %eax
	movl	%eax, -156(%rbp)
	orl	%eax, %edi
	movl	%edi, -108(%rbp)
	xorl	%r15d, -112(%rbp)
	movl	-112(%rbp), %edi
	xorl	%edi, %r15d
	orl	%r15d, %edi
	movl	%edi, -112(%rbp)
	xorl	%r13d, -116(%rbp)
	movl	-116(%rbp), %edi
	xorl	%edi, %r13d
	orl	%r13d, %edi
	movl	%edi, -116(%rbp)
	xorl	%r12d, -120(%rbp)
	movl	-120(%rbp), %eax
	xorl	%eax, %r12d
	orl	%r12d, %eax
	movl	%eax, -120(%rbp)
	xorl	%ebx, %r14d
	xorl	%r14d, %ebx
	orl	%ebx, %r14d
	xorl	%edx, -160(%rbp)
	movl	-160(%rbp), %eax
	xorl	%eax, %edx
	orl	%edx, %eax
	xorl	%esi, %ecx
	xorl	%ecx, %esi
	orl	%esi, %ecx
	movl	%ecx, -164(%rbp)
	xorl	%r8d, -124(%rbp)
	movl	-124(%rbp), %edi
	xorl	%edi, %r8d
	orl	%r8d, %edi
	movl	%edi, -124(%rbp)
	xorl	%r10d, %r9d
	xorl	%r9d, %r10d
	orl	%r10d, %r9d
	movl	-128(%rbp), %ecx
	xorl	%ecx, %r11d
	xorl	%r11d, %ecx
	movl	%ecx, -128(%rbp)
	orl	%ecx, %r11d
	movl	-132(%rbp), %edi
	xorl	%edi, -84(%rbp)
	movl	-84(%rbp), %ecx
	xorl	%ecx, %edi
	movl	%edi, -132(%rbp)
	orl	%edi, %ecx
	movl	%ecx, -84(%rbp)
	movl	-136(%rbp), %ecx
	xorl	%ecx, -88(%rbp)
	movl	-88(%rbp), %edi
	xorl	%edi, %ecx
	movl	%ecx, -136(%rbp)
	orl	%ecx, %edi
	movl	%edi, -88(%rbp)
	movl	-140(%rbp), %ecx
	xorl	%ecx, -92(%rbp)
	movl	-92(%rbp), %edi
	xorl	%edi, %ecx
	movl	%ecx, -140(%rbp)
	orl	%ecx, %edi
	movl	%edi, -92(%rbp)
	movl	-144(%rbp), %ecx
	xorl	%ecx, -96(%rbp)
	movl	-96(%rbp), %edi
	xorl	%edi, %ecx
	movl	%ecx, -144(%rbp)
	orl	%ecx, %edi
	movl	%edi, -96(%rbp)
	movl	-148(%rbp), %ecx
	xorl	%ecx, -100(%rbp)
	movl	-100(%rbp), %edi
	xorl	%edi, %ecx
	movl	%ecx, -148(%rbp)
	orl	%ecx, %edi
	movl	%edi, -100(%rbp)
	movl	-152(%rbp), %ecx
	xorl	%ecx, -104(%rbp)
	movl	-104(%rbp), %edi
	xorl	%edi, %ecx
	movl	%ecx, -152(%rbp)
	orl	%ecx, %edi
	movl	%edi, -104(%rbp)
	movl	-156(%rbp), %ecx
	xorl	%ecx, -108(%rbp)
	movl	-108(%rbp), %edi
	xorl	%edi, %ecx
	movl	%ecx, -156(%rbp)
	orl	%ecx, %edi
	movl	%edi, -108(%rbp)
	xorl	%r15d, -112(%rbp)
	movl	-112(%rbp), %edi
	xorl	%edi, %r15d
	orl	%r15d, %edi
	movl	%edi, -112(%rbp)
	xorl	%r13d, -116(%rbp)
	movl	-116(%rbp), %edi
	xorl	%edi, %r13d
	orl	%r13d, %edi
	movl	%edi, -116(%rbp)
	xorl	%r12d, -120(%rbp)
	movl	-120(%rbp), %ecx
	xorl	%ecx, %r12d
	orl	%r12d, %ecx
	movl	%ecx, -120(%rbp)
	xorl	%ebx, %r14d
	xorl	%r14d, %ebx
	orl	%ebx, %r14d
	xorl	%edx, %eax
	xorl	%eax, %edx
	orl	%edx, %eax
	movl	%eax, -160(%rbp)
	xorl	%esi, -164(%rbp)
	movl	-164(%rbp), %ecx
	xorl	%ecx, %esi
	orl	%esi, %ecx
	xorl	%r8d, -124(%rbp)
	movl	-124(%rbp), %edi
	xorl	%edi, %r8d
	orl	%r8d, %edi
	movl	%edi, -124(%rbp)
	xorl	%r10d, %r9d
	xorl	%r9d, %r10d
	orl	%r10d, %r9d
	movl	-128(%rbp), %eax
	xorl	%eax, %r11d
	xorl	%r11d, %eax
	movl	%eax, -128(%rbp)
	orl	%eax, %r11d
	movl	-132(%rbp), %edi
	xorl	%edi, -84(%rbp)
	movl	-84(%rbp), %eax
	xorl	%eax, %edi
	movl	%edi, -132(%rbp)
	orl	%edi, %eax
	movl	%eax, -84(%rbp)
	movl	-136(%rbp), %eax
	xorl	%eax, -88(%rbp)
	movl	-88(%rbp), %edi
	xorl	%edi, %eax
	movl	%eax, -136(%rbp)
	orl	%eax, %edi
	movl	%edi, -88(%rbp)
	movl	-140(%rbp), %eax
	xorl	%eax, -92(%rbp)
	movl	-92(%rbp), %edi
	xorl	%edi, %eax
	movl	%eax, -140(%rbp)
	orl	%eax, %edi
	movl	%edi, -92(%rbp)
	movl	-144(%rbp), %eax
	xorl	%eax, -96(%rbp)
	movl	-96(%rbp), %edi
	xorl	%edi, %eax
	movl	%eax, -144(%rbp)
	orl	%eax, %edi
	movl	%edi, -96(%rbp)
	movl	-148(%rbp), %eax
	xorl	%eax, -100(%rbp)
	movl	-100(%rbp), %edi
	xorl	%edi, %eax
	movl	%eax, -148(%rbp)
	orl	%eax, %edi
	movl	%edi, -100(%rbp)
	movl	-152(%rbp), %eax
	xorl	%eax, -104(%rbp)
	movl	-104(%rbp), %edi
	xorl	%edi, %eax
	movl	%eax, -152(%rbp)
	orl	%eax, %edi
	movl	%edi, -104(%rbp)
	movl	-156(%rbp), %eax
	xorl	%eax, -108(%rbp)
	movl	-108(%rbp), %edi
	xorl	%edi, %eax
	movl	%eax, -156(%rbp)
	orl	%eax, %edi
	movl	%edi, -108(%rbp)
	xorl	%r15d, -112(%rbp)
	movl	-112(%rbp), %edi
	xorl	%edi, %r15d
	orl	%r15d, %edi
	movl	%edi, -112(%rbp)
	xorl	%r13d, -116(%rbp)
	movl	-116(%rbp), %edi
	xorl	%edi, %r13d
	orl	%r13d, %edi
	movl	%edi, -116(%rbp)
	xorl	%r12d, -120(%rbp)
	movl	-120(%rbp), %eax
	xorl	%eax, %r12d
	orl	%r12d, %eax
	movl	%eax, -120(%rbp)
	xorl	%ebx, %r14d
	xorl	%r14d, %ebx
	orl	%ebx, %r14d
	xorl	%edx, -160(%rbp)
	movl	-160(%rbp), %eax
	xorl	%eax, %edx
	orl	%edx, %eax
	xorl	%esi, %ecx
	xorl	%ecx, %esi
	orl	%esi, %ecx
	movl	%ecx, -164(%rbp)
	xorl	%r8d, -124(%rbp)
	movl	-124(%rbp), %edi
	xorl	%edi, %r8d
	orl	%r8d, %edi
	movl	%edi, -124(%rbp)
	xorl	%r10d, %r9d
	xorl	%r9d, %r10d
	orl	%r10d, %r9d
	movl	-128(%rbp), %ecx
	xorl	%ecx, %r11d
	xorl	%r11d, %ecx
	movl	%ecx, -128(%rbp)
	orl	%ecx, %r11d
	movl	-132(%rbp), %edi
	xorl	%edi, -84(%rbp)
	movl	-84(%rbp), %ecx
	xorl	%ecx, %edi
	movl	%edi, -132(%rbp)
	orl	%edi, %ecx
	movl	%ecx, -84(%rbp)
	movl	-136(%rbp), %ecx
	xorl	%ecx, -88(%rbp)
	movl	-88(%rbp), %edi
	xorl	%edi, %ecx
	movl	%ecx, -136(%rbp)
	orl	%ecx, %edi
	movl	%edi, -88(%rbp)
	movl	-140(%rbp), %ecx
	xorl	%ecx, -92(%rbp)
	movl	-92(%rbp), %edi
	xorl	%edi, %ecx
	movl	%ecx, -140(%rbp)
	orl	%ecx, %edi
	movl	%edi, -92(%rbp)
	movl	-144(%rbp), %ecx
	xorl	%ecx, -96(%rbp)
	movl	-96(%rbp), %edi
	xorl	%edi, %ecx
	movl	%ecx, -144(%rbp)
	orl	%ecx, %edi
	movl	%edi, -96(%rbp)
	movl	-148(%rbp), %ecx
	xorl	%ecx, -100(%rbp)
	movl	-100(%rbp), %edi
	xorl	%edi, %ecx
	movl	%ecx, -148(%rbp)
	orl	%ecx, %edi
	movl	%edi, -100(%rbp)
	movl	-152(%rbp), %ecx
	xorl	%ecx, -104(%rbp)
	movl	-104(%rbp), %edi
	xorl	%edi, %ecx
	movl	%ecx, -152(%rbp)
	orl	%ecx, %edi
	movl	%edi, -104(%rbp)
	movl	-156(%rbp), %ecx
	xorl	%ecx, -108(%rbp)
	movl	-108(%rbp), %edi
	xorl	%edi, %ecx
	movl	%ecx, -156(%rbp)
	orl	%ecx, %edi
	movl	%edi, -108(%rbp)
	xorl	%r15d, -112(%rbp)
	movl	-112(%rbp), %edi
	xorl	%edi, %r15d
	orl	%r15d, %edi
	movl	%edi, -112(%rbp)
	xorl	%r13d, -116(%rbp)
	movl	-116(%rbp), %edi
	xorl	%edi, %r13d
	orl	%r13d, %edi
	movl	%edi, -116(%rbp)
	xorl	%r12d, -120(%rbp)
	movl	-120(%rbp), %ecx
	xorl	%ecx, %r12d
	orl	%r12d, %ecx
	movl	%ecx, -120(%rbp)
	xorl	%ebx, %r14d
	xorl	%r14d, %ebx
	orl	%ebx, %r14d
	xorl	%edx, %eax
	xorl	%eax, %edx
	orl	%edx, %eax
	movl	%eax, -160(%rbp)
	xorl	%esi, -164(%rbp)
	movl	-164(%rbp), %ecx
	xorl	%ecx, %esi
	orl	%esi, %ecx
	xorl	%r8d, -124(%rbp)
	movl	-124(%rbp), %edi
	xorl	%edi, %r8d
	orl	%r8d, %edi
	movl	%edi, -124(%rbp)
	xorl	%r10d, %r9d
	xorl	%r9d, %r10d
	orl	%r10d, %r9d
	movl	-128(%rbp), %eax
	xorl	%eax, %r11d
	xorl	%r11d, %eax
	movl	%eax, -128(%rbp)
	orl	%eax, %r11d
	movl	-132(%rbp), %edi
	xorl	%edi, -84(%rbp)
	movl	-84(%rbp), %eax
	xorl	%eax, %edi
	movl	%edi, -132(%rbp)
	orl	%edi, %eax
	movl	%eax, -84(%rbp)
	movl	-136(%rbp), %eax
	xorl	%eax, -88(%rbp)
	movl	-88(%rbp), %edi
	xorl	%edi, %eax
	movl	%eax, -136(%rbp)
	orl	%eax, %edi
	movl	%edi, -88(%rbp)
	movl	-140(%rbp), %eax
	xorl	%eax, -92(%rbp)
	movl	-92(%rbp), %edi
	xorl	%edi, %eax
	movl	%eax, -140(%rbp)
	orl	%eax, %edi
	movl	%edi, -92(%rbp)
	movl	-144(%rbp), %eax
	xorl	%eax, -96(%rbp)
	movl	-96(%rbp), %edi
	xorl	%edi, %eax
	movl	%eax, -144(%rbp)
	orl	%eax, %edi
	movl	%edi, -96(%rbp)
	movl	-148(%rbp), %eax
	xorl	%eax, -100(%rbp)
	movl	-100(%rbp), %edi
	xorl	%edi, %eax
	movl	%eax, -148(%rbp)
	orl	%eax, %edi
	movl	%edi, -100(%rbp)
	movl	-152(%rbp), %eax
	xorl	%eax, -104(%rbp)
	movl	-104(%rbp), %edi
	xorl	%edi, %eax
	movl	%eax, -152(%rbp)
	orl	%eax, %edi
	movl	%edi, -104(%rbp)
	movl	-156(%rbp), %eax
	xorl	%eax, -108(%rbp)
	movl	-108(%rbp), %edi
	xorl	%edi, %eax
	movl	%eax, -156(%rbp)
	orl	%eax, %edi
	movl	%edi, -108(%rbp)
	xorl	%r15d, -112(%rbp)
	movl	-112(%rbp), %edi
	xorl	%edi, %r15d
	orl	%r15d, %edi
	movl	%edi, -112(%rbp)
	xorl	%r13d, -116(%rbp)
	movl	-116(%rbp), %edi
	xorl	%edi, %r13d
	orl	%r13d, %edi
	movl	%edi, -116(%rbp)
	xorl	%r12d, -120(%rbp)
	movl	-120(%rbp), %edi
	xorl	%edi, %r12d
	orl	%r12d, %edi
	movl	%edi, -120(%rbp)
	xorl	%ebx, %r14d
	xorl	%r14d, %ebx
	orl	%ebx, %r14d
	xorl	%edx, -160(%rbp)
	movl	-160(%rbp), %eax
	xorl	%eax, %edx
	orl	%edx, %eax
	movl	%eax, -160(%rbp)
	xorl	%esi, %ecx
	xorl	%ecx, %esi
	orl	%esi, %ecx
	movl	%ecx, -164(%rbp)
	xorl	%r8d, -124(%rbp)
	movl	-124(%rbp), %edi
	xorl	%edi, %r8d
	orl	%r8d, %edi
	xorl	%r10d, %r9d
	xorl	%r9d, %r10d
	orl	%r10d, %r9d
	movl	-128(%rbp), %ecx
	xorl	%ecx, %r11d
	xorl	%r11d, %ecx
	movl	%ecx, -128(%rbp)
	orl	%ecx, %r11d
	movl	-132(%rbp), %eax
	xorl	%eax, -84(%rbp)
	movl	-84(%rbp), %ecx
	xorl	%ecx, %eax
	movl	%eax, -132(%rbp)
	orl	%eax, %ecx
	movl	%ecx, -84(%rbp)
	movl	-136(%rbp), %ecx
	xorl	%ecx, -88(%rbp)
	movl	-88(%rbp), %eax
	xorl	%eax, %ecx
	movl	%ecx, -136(%rbp)
	orl	%ecx, %eax
	movl	%eax, -88(%rbp)
	movl	-140(%rbp), %ecx
	xorl	%ecx, -92(%rbp)
	movl	-92(%rbp), %eax
	xorl	%eax, %ecx
	movl	%ecx, -140(%rbp)
	orl	%ecx, %eax
	movl	%eax, -92(%rbp)
	movl	-144(%rbp), %ecx
	xorl	%ecx, -96(%rbp)
	movl	-96(%rbp), %eax
	xorl	%eax, %ecx
	movl	%ecx, -144(%rbp)
	orl	%ecx, %eax
	movl	%eax, -96(%rbp)
	movl	-148(%rbp), %ecx
	xorl	%ecx, -100(%rbp)
	movl	-100(%rbp), %eax
	xorl	%eax, %ecx
	movl	%ecx, -148(%rbp)
	orl	%ecx, %eax
	movl	%eax, -100(%rbp)
	movl	-152(%rbp), %ecx
	xorl	%ecx, -104(%rbp)
	movl	-104(%rbp), %eax
	xorl	%eax, %ecx
	movl	%ecx, -152(%rbp)
	orl	%ecx, %eax
	movl	%eax, -104(%rbp)
	movl	-156(%rbp), %ecx
	xorl	%ecx, -108(%rbp)
	movl	-108(%rbp), %eax
	xorl	%eax, %ecx
	movl	%ecx, -156(%rbp)
	orl	%ecx, %eax
	movl	%eax, -108(%rbp)
	xorl	%r15d, -112(%rbp)
	movl	-112(%rbp), %eax
	xorl	%eax, %r15d
	orl	%r15d, %eax
	movl	%eax, -112(%rbp)
	xorl	%r13d, -116(%rbp)
	movl	-116(%rbp), %eax
	xorl	%eax, %r13d
	orl	%r13d, %eax
	movl	%eax, -116(%rbp)
	xorl	%r12d, -120(%rbp)
	movl	-120(%rbp), %eax
	xorl	%eax, %r12d
	orl	%r12d, %eax
	movl	%eax, -120(%rbp)
	xorl	%ebx, %r14d
	xorl	%r14d, %ebx
	orl	%ebx, %r14d
	xorl	%edx, -160(%rbp)
	movl	-160(%rbp), %eax
	xorl	%eax, %edx
	orl	%edx, %eax
	xorl	%esi, -164(%rbp)
	movl	-164(%rbp), %ecx
	xorl	%ecx, %esi
	orl	%esi, %ecx
	movl	%ecx, -164(%rbp)
	xorl	%r8d, %edi
	xorl	%edi, %r8d
	orl	%r8d, %edi
	movl	%edi, -124(%rbp)
	xorl	%r10d, %r9d
	xorl	%r9d, %r10d
	orl	%r10d, %r9d
	movl	-128(%rbp), %edi
	xorl	%edi, %r11d
	xorl	%r11d, %edi
	movl	%edi, -128(%rbp)
	orl	%edi, %r11d
	movl	-132(%rbp), %ecx
	xorl	%ecx, -84(%rbp)
	movl	-84(%rbp), %edi
	xorl	%edi, %ecx
	movl	%ecx, -132(%rbp)
	orl	%ecx, %edi
	movl	%edi, -84(%rbp)
	movl	-136(%rbp), %edi
	xorl	%edi, -88(%rbp)
	movl	-88(%rbp), %ecx
	xorl	%ecx, %edi
	movl	%edi, -136(%rbp)
	orl	%edi, %ecx
	movl	%ecx, -88(%rbp)
	movl	-140(%rbp), %edi
	xorl	%edi, -92(%rbp)
	movl	-92(%rbp), %ecx
	xorl	%ecx, %edi
	movl	%edi, -140(%rbp)
	orl	%edi, %ecx
	movl	%ecx, -92(%rbp)
	movl	-144(%rbp), %edi
	xorl	%edi, -96(%rbp)
	movl	-96(%rbp), %ecx
	xorl	%ecx, %edi
	movl	%edi, -144(%rbp)
	orl	%edi, %ecx
	movl	%ecx, -96(%rbp)
	movl	-148(%rbp), %edi
	xorl	%edi, -100(%rbp)
	movl	-100(%rbp), %ecx
	xorl	%ecx, %edi
	movl	%edi, -148(%rbp)
	orl	%edi, %ecx
	movl	%ecx, -100(%rbp)
	movl	-152(%rbp), %edi
	xorl	%edi, -104(%rbp)
	movl	-104(%rbp), %ecx
	xorl	%ecx, %edi
	movl	%edi, -152(%rbp)
	orl	%edi, %ecx
	movl	%ecx, -104(%rbp)
	movl	-156(%rbp), %edi
	xorl	%edi, -108(%rbp)
	movl	-108(%rbp), %ecx
	xorl	%ecx, %edi
	movl	%edi, -156(%rbp)
	orl	%edi, %ecx
	movl	%ecx, -108(%rbp)
	xorl	%r15d, -112(%rbp)
	movl	-112(%rbp), %ecx
	xorl	%ecx, %r15d
	orl	%r15d, %ecx
	movl	%ecx, -112(%rbp)
	xorl	%r13d, -116(%rbp)
	movl	-116(%rbp), %ecx
	xorl	%ecx, %r13d
	orl	%r13d, %ecx
	movl	%ecx, -116(%rbp)
	xorl	%r12d, -120(%rbp)
	movl	-120(%rbp), %ecx
	xorl	%ecx, %r12d
	orl	%r12d, %ecx
	movl	%ecx, -120(%rbp)
	xorl	%ebx, %r14d
	xorl	%r14d, %ebx
	orl	%ebx, %r14d
	xorl	%edx, %eax
	xorl	%eax, %edx
	movl	%edx, -176(%rbp)
	orl	%edx, %eax
	movl	%eax, -160(%rbp)
	xorl	%esi, -164(%rbp)
	movl	-164(%rbp), %ecx
	xorl	%ecx, %esi
	orl	%esi, %ecx
	movl	%ecx, -164(%rbp)
	xorl	%r8d, -124(%rbp)
	movl	-124(%rbp), %edi
	xorl	%edi, %r8d
	orl	%r8d, %edi
	movl	%edi, -124(%rbp)
	xorl	%r10d, %r9d
	xorl	%r9d, %r10d
	orl	%r10d, %r9d
	movl	%r9d, -168(%rbp)
	movl	-128(%rbp), %eax
	xorl	%eax, %r11d
	xorl	%r11d, %eax
	movl	%eax, -128(%rbp)
	orl	%eax, %r11d
	movl	%r11d, -172(%rbp)
	movl	-132(%rbp), %eax
	xorl	%eax, -84(%rbp)
	movl	-84(%rbp), %edi
	xorl	%edi, %eax
	movl	%eax, -132(%rbp)
	orl	%eax, %edi
	movl	%edi, -84(%rbp)
	movl	-136(%rbp), %edi
	xorl	%edi, -88(%rbp)
	movl	-88(%rbp), %ecx
	xorl	%ecx, %edi
	movl	%edi, -136(%rbp)
	orl	%edi, %ecx
	movl	%ecx, -88(%rbp)
	movl	-140(%rbp), %edi
	xorl	%edi, -92(%rbp)
	movl	-92(%rbp), %ecx
	xorl	%ecx, %edi
	movl	%edi, -140(%rbp)
	orl	%edi, %ecx
	movl	%ecx, -92(%rbp)
	movl	-144(%rbp), %edi
	xorl	%edi, -96(%rbp)
	movl	-96(%rbp), %ecx
	xorl	%ecx, %edi
	movl	%edi, -144(%rbp)
	orl	%edi, %ecx
	movl	%ecx, -96(%rbp)
	movl	-148(%rbp), %edi
	xorl	%edi, -100(%rbp)
	movl	-100(%rbp), %ecx
	xorl	%ecx, %edi
	movl	%edi, -148(%rbp)
	orl	%edi, %ecx
	movl	%ecx, -100(%rbp)
	movl	-152(%rbp), %edi
	xorl	%edi, -104(%rbp)
	movl	-104(%rbp), %ecx
	xorl	%ecx, %edi
	movl	%edi, -152(%rbp)
	orl	%edi, %ecx
	movl	%ecx, -104(%rbp)
	movl	-156(%rbp), %edi
	xorl	%edi, -108(%rbp)
	movl	-108(%rbp), %ecx
	xorl	%ecx, %edi
	movl	%edi, -156(%rbp)
	orl	%edi, %ecx
	movl	%ecx, -108(%rbp)
	xorl	%r15d, -112(%rbp)
	movl	-112(%rbp), %ecx
	xorl	%ecx, %r15d
	orl	%r15d, %ecx
	movl	%ecx, -112(%rbp)
	xorl	%r13d, -116(%rbp)
	movl	-116(%rbp), %ecx
	xorl	%ecx, %r13d
	orl	%r13d, %ecx
	movl	%ecx, -116(%rbp)
	xorl	%r12d, -120(%rbp)
	movl	-120(%rbp), %ecx
	xorl	%ecx, %r12d
	orl	%r12d, %ecx
	movl	%ecx, -120(%rbp)
	xorl	%ebx, %r14d
	xorl	%r14d, %ebx
	orl	%ebx, %r14d
.L64:
	movq	-184(%rbp), %rax
	leaq	-1(%rax), %rdx
	movq	%rdx, -184(%rbp)
	testq	%rax, %rax
	jne	.L65
	movl	-160(%rbp), %edi
	call	use_int@PLT
	movl	-164(%rbp), %edi
	call	use_int@PLT
	movl	-124(%rbp), %edi
	call	use_int@PLT
	movl	-168(%rbp), %edi
	call	use_int@PLT
	movl	-172(%rbp), %edi
	call	use_int@PLT
	movl	-84(%rbp), %edi
	call	use_int@PLT
	movl	-88(%rbp), %edi
	call	use_int@PLT
	movl	-92(%rbp), %edi
	call	use_int@PLT
	movl	-96(%rbp), %edi
	call	use_int@PLT
	movl	-100(%rbp), %edi
	call	use_int@PLT
	movl	-104(%rbp), %edi
	call	use_int@PLT
	movl	-108(%rbp), %edi
	call	use_int@PLT
	movl	-112(%rbp), %edi
	call	use_int@PLT
	movl	-116(%rbp), %edi
	call	use_int@PLT
	movl	-120(%rbp), %edi
	call	use_int@PLT
	movl	%r14d, %edi
	call	use_int@PLT
	addq	$152, %rsp
	popq	%rbx
	popq	%r12
	popq	%r13
	popq	%r14
	popq	%r15
	popq	%rbp
	.cfi_def_cfa 7, 8
	ret
	.cfi_endproc
.LFE24:
	.size	integer_bit_15, .-integer_bit_15
	.globl	integer_bit_benchmarks
	.section	.data.rel.local
	.align 32
	.type	integer_bit_benchmarks, @object
	.size	integer_bit_benchmarks, 128
integer_bit_benchmarks:
	.quad	integer_bit_0
	.quad	integer_bit_1
	.quad	integer_bit_2
	.quad	integer_bit_3
	.quad	integer_bit_4
	.quad	integer_bit_5
	.quad	integer_bit_6
	.quad	integer_bit_7
	.quad	integer_bit_8
	.quad	integer_bit_9
	.quad	integer_bit_10
	.quad	integer_bit_11
	.quad	integer_bit_12
	.quad	integer_bit_13
	.quad	integer_bit_14
	.quad	integer_bit_15
	.text
	.globl	integer_add_0
	.type	integer_add_0, @function
integer_add_0:
.LFB25:
	.cfi_startproc
	endbr64
	pushq	%rbp
	.cfi_def_cfa_offset 16
	.cfi_offset 6, -16
	movq	%rsp, %rbp
	.cfi_def_cfa_register 6
	pushq	%r13
	pushq	%r12
	pushq	%rbx
	subq	$40, %rsp
	.cfi_offset 13, -24
	.cfi_offset 12, -32
	.cfi_offset 3, -40
	movq	%rdi, -56(%rbp)
	movq	%rsi, -64(%rbp)
	movq	-56(%rbp), %r13
	movq	-64(%rbp), %rax
	movq	%rax, -40(%rbp)
	movq	-40(%rbp), %rax
	movl	12(%rax), %eax
	leal	57(%rax), %r12d
	movq	-40(%rbp), %rax
	movl	12(%rax), %eax
	leal	31(%rax), %ebx
	jmp	.L67
.L68:
	addl	%ebx, %r12d
	subl	%r12d, %ebx
	addl	%ebx, %r12d
	subl	%r12d, %ebx
	addl	%ebx, %r12d
	subl	%r12d, %ebx
	addl	%ebx, %r12d
	subl	%r12d, %ebx
	addl	%ebx, %r12d
	subl	%r12d, %ebx
	addl	%ebx, %r12d
	subl	%r12d, %ebx
	addl	%ebx, %r12d
	subl	%r12d, %ebx
	addl	%ebx, %r12d
	subl	%r12d, %ebx
	addl	%ebx, %r12d
	subl	%r12d, %ebx
	addl	%ebx, %r12d
	subl	%r12d, %ebx
.L67:
	movq	%r13, %rax
	leaq	-1(%rax), %r13
	testq	%rax, %rax
	jne	.L68
	leal	(%r12,%rbx), %eax
	movl	%eax, %edi
	call	use_int@PLT
	addq	$40, %rsp
	popq	%rbx
	popq	%r12
	popq	%r13
	popq	%rbp
	.cfi_def_cfa 7, 8
	ret
	.cfi_endproc
.LFE25:
	.size	integer_add_0, .-integer_add_0
	.globl	integer_add_1
	.type	integer_add_1, @function
integer_add_1:
.LFB26:
	.cfi_startproc
	endbr64
	pushq	%rbp
	.cfi_def_cfa_offset 16
	.cfi_offset 6, -16
	movq	%rsp, %rbp
	.cfi_def_cfa_register 6
	pushq	%r15
	pushq	%r14
	pushq	%r13
	pushq	%r12
	pushq	%rbx
	subq	$40, %rsp
	.cfi_offset 15, -24
	.cfi_offset 14, -32
	.cfi_offset 13, -40
	.cfi_offset 12, -48
	.cfi_offset 3, -56
	movq	%rdi, -72(%rbp)
	movq	%rsi, -80(%rbp)
	movq	-72(%rbp), %r15
	movq	-80(%rbp), %rax
	movq	%rax, -56(%rbp)
	movq	-56(%rbp), %rax
	movl	12(%rax), %eax
	leal	57(%rax), %r14d
	movq	-56(%rbp), %rax
	movl	12(%rax), %eax
	leal	31(%rax), %r12d
	movq	-56(%rbp), %rax
	movl	16(%rax), %eax
	leal	57(%rax), %r13d
	movq	-56(%rbp), %rax
	movl	16(%rax), %eax
	leal	31(%rax), %ebx
	jmp	.L70
.L71:
	addl	%r12d, %r14d
	subl	%r14d, %r12d
	addl	%ebx, %r13d
	subl	%r13d, %ebx
	addl	%r12d, %r14d
	subl	%r14d, %r12d
	addl	%ebx, %r13d
	subl	%r13d, %ebx
	addl	%r12d, %r14d
	subl	%r14d, %r12d
	addl	%ebx, %r13d
	subl	%r13d, %ebx
	addl	%r12d, %r14d
	subl	%r14d, %r12d
	addl	%ebx, %r13d
	subl	%r13d, %ebx
	addl	%r12d, %r14d
	subl	%r14d, %r12d
	addl	%ebx, %r13d
	subl	%r13d, %ebx
	addl	%r12d, %r14d
	subl	%r14d, %r12d
	addl	%ebx, %r13d
	subl	%r13d, %ebx
	addl	%r12d, %r14d
	subl	%r14d, %r12d
	addl	%ebx, %r13d
	subl	%r13d, %ebx
	addl	%r12d, %r14d
	subl	%r14d, %r12d
	addl	%ebx, %r13d
	subl	%r13d, %ebx
	addl	%r12d, %r14d
	subl	%r14d, %r12d
	addl	%ebx, %r13d
	subl	%r13d, %ebx
	addl	%r12d, %r14d
	subl	%r14d, %r12d
	addl	%ebx, %r13d
	subl	%r13d, %ebx
.L70:
	movq	%r15, %rax
	leaq	-1(%rax), %r15
	testq	%rax, %rax
	jne	.L71
	leal	(%r14,%r12), %eax
	movl	%eax, %edi
	call	use_int@PLT
	leal	0(%r13,%rbx), %eax
	movl	%eax, %edi
	call	use_int@PLT
	addq	$40, %rsp
	popq	%rbx
	popq	%r12
	popq	%r13
	popq	%r14
	popq	%r15
	popq	%rbp
	.cfi_def_cfa 7, 8
	ret
	.cfi_endproc
.LFE26:
	.size	integer_add_1, .-integer_add_1
	.globl	integer_add_2
	.type	integer_add_2, @function
integer_add_2:
.LFB27:
	.cfi_startproc
	endbr64
	pushq	%rbp
	.cfi_def_cfa_offset 16
	.cfi_offset 6, -16
	movq	%rsp, %rbp
	.cfi_def_cfa_register 6
	pushq	%r15
	pushq	%r14
	pushq	%r13
	pushq	%r12
	pushq	%rbx
	subq	$40, %rsp
	.cfi_offset 15, -24
	.cfi_offset 14, -32
	.cfi_offset 13, -40
	.cfi_offset 12, -48
	.cfi_offset 3, -56
	movq	%rdi, -72(%rbp)
	movq	%rsi, -80(%rbp)
	movq	-72(%rbp), %rax
	movq	%rax, %rsi
	movq	-80(%rbp), %rax
	movq	%rax, -56(%rbp)
	movq	-56(%rbp), %rax
	movl	12(%rax), %eax
	addl	$57, %eax
	movl	%eax, %ecx
	movq	-56(%rbp), %rax
	movl	12(%rax), %eax
	leal	31(%rax), %r13d
	movq	-56(%rbp), %rax
	movl	16(%rax), %eax
	leal	57(%rax), %r15d
	movq	-56(%rbp), %rax
	movl	16(%rax), %eax
	leal	31(%rax), %r12d
	movq	-56(%rbp), %rax
	movl	20(%rax), %eax
	leal	57(%rax), %r14d
	movq	-56(%rbp), %rax
	movl	20(%rax), %eax
	leal	31(%rax), %ebx
	jmp	.L73
.L74:
	movl	%ecx, %eax
	addl	%r13d, %eax
	subl	%eax, %r13d
	addl	%r12d, %r15d
	subl	%r15d, %r12d
	addl	%ebx, %r14d
	subl	%r14d, %ebx
	addl	%r13d, %eax
	subl	%eax, %r13d
	addl	%r12d, %r15d
	subl	%r15d, %r12d
	addl	%ebx, %r14d
	subl	%r14d, %ebx
	addl	%r13d, %eax
	subl	%eax, %r13d
	addl	%r12d, %r15d
	subl	%r15d, %r12d
	addl	%ebx, %r14d
	subl	%r14d, %ebx
	addl	%r13d, %eax
	subl	%eax, %r13d
	addl	%r12d, %r15d
	subl	%r15d, %r12d
	addl	%ebx, %r14d
	subl	%r14d, %ebx
	addl	%r13d, %eax
	subl	%eax, %r13d
	addl	%r12d, %r15d
	subl	%r15d, %r12d
	addl	%ebx, %r14d
	subl	%r14d, %ebx
	addl	%r13d, %eax
	subl	%eax, %r13d
	addl	%r12d, %r15d
	subl	%r15d, %r12d
	addl	%ebx, %r14d
	subl	%r14d, %ebx
	addl	%r13d, %eax
	subl	%eax, %r13d
	addl	%r12d, %r15d
	subl	%r15d, %r12d
	addl	%ebx, %r14d
	subl	%r14d, %ebx
	addl	%r13d, %eax
	subl	%eax, %r13d
	addl	%r12d, %r15d
	subl	%r15d, %r12d
	addl	%ebx, %r14d
	subl	%r14d, %ebx
	addl	%r13d, %eax
	subl	%eax, %r13d
	addl	%r12d, %r15d
	subl	%r15d, %r12d
	addl	%ebx, %r14d
	subl	%r14d, %ebx
	addl	%r13d, %eax
	movl	%eax, %ecx
	subl	%eax, %r13d
	addl	%r12d, %r15d
	subl	%r15d, %r12d
	addl	%ebx, %r14d
	subl	%r14d, %ebx
.L73:
	movq	%rsi, %rax
	leaq	-1(%rax), %rdx
	movq	%rdx, %rsi
	testq	%rax, %rax
	jne	.L74
	movl	%ecx, %eax
	addl	%r13d, %eax
	movl	%eax, %edi
	call	use_int@PLT
	leal	(%r15,%r12), %eax
	movl	%eax, %edi
	call	use_int@PLT
	leal	(%r14,%rbx), %eax
	movl	%eax, %edi
	call	use_int@PLT
	addq	$40, %rsp
	popq	%rbx
	popq	%r12
	popq	%r13
	popq	%r14
	popq	%r15
	popq	%rbp
	.cfi_def_cfa 7, 8
	ret
	.cfi_endproc
.LFE27:
	.size	integer_add_2, .-integer_add_2
	.globl	integer_add_3
	.type	integer_add_3, @function
integer_add_3:
.LFB28:
	.cfi_startproc
	endbr64
	pushq	%rbp
	.cfi_def_cfa_offset 16
	.cfi_offset 6, -16
	movq	%rsp, %rbp
	.cfi_def_cfa_register 6
	pushq	%r15
	pushq	%r14
	pushq	%r13
	pushq	%r12
	pushq	%rbx
	subq	$56, %rsp
	.cfi_offset 15, -24
	.cfi_offset 14, -32
	.cfi_offset 13, -40
	.cfi_offset 12, -48
	.cfi_offset 3, -56
	movq	%rdi, -72(%rbp)
	movq	%rsi, -80(%rbp)
	movq	-72(%rbp), %rax
	movq	%rax, %rsi
	movq	-80(%rbp), %rax
	movq	%rax, -56(%rbp)
	movq	-56(%rbp), %rax
	movl	12(%rax), %eax
	addl	$57, %eax
	movl	%eax, %edi
	movq	-56(%rbp), %rax
	movl	12(%rax), %eax
	leal	31(%rax), %r14d
	movq	-56(%rbp), %rax
	movl	16(%rax), %eax
	addl	$57, %eax
	movl	%eax, -84(%rbp)
	movq	-56(%rbp), %rax
	movl	16(%rax), %eax
	leal	31(%rax), %r13d
	movq	-56(%rbp), %rax
	movl	20(%rax), %eax
	addl	$57, %eax
	movl	%eax, -88(%rbp)
	movq	-56(%rbp), %rax
	movl	20(%rax), %eax
	leal	31(%rax), %r12d
	movq	-56(%rbp), %rax
	movl	24(%rax), %eax
	leal	57(%rax), %r15d
	movq	-56(%rbp), %rax
	movl	24(%rax), %eax
	leal	31(%rax), %ebx
	jmp	.L76
.L77:
	movl	%edi, %eax
	addl	%r14d, %eax
	subl	%eax, %r14d
	addl	%r13d, -84(%rbp)
	movl	-84(%rbp), %edx
	subl	%edx, %r13d
	addl	%r12d, -88(%rbp)
	movl	-88(%rbp), %ecx
	subl	%ecx, %r12d
	addl	%ebx, %r15d
	subl	%r15d, %ebx
	addl	%r14d, %eax
	subl	%eax, %r14d
	addl	%r13d, %edx
	subl	%edx, %r13d
	addl	%r12d, %ecx
	subl	%ecx, %r12d
	addl	%ebx, %r15d
	subl	%r15d, %ebx
	addl	%r14d, %eax
	subl	%eax, %r14d
	addl	%r13d, %edx
	subl	%edx, %r13d
	addl	%r12d, %ecx
	subl	%ecx, %r12d
	addl	%ebx, %r15d
	subl	%r15d, %ebx
	addl	%r14d, %eax
	subl	%eax, %r14d
	addl	%r13d, %edx
	subl	%edx, %r13d
	addl	%r12d, %ecx
	subl	%ecx, %r12d
	addl	%ebx, %r15d
	subl	%r15d, %ebx
	addl	%r14d, %eax
	subl	%eax, %r14d
	addl	%r13d, %edx
	subl	%edx, %r13d
	addl	%r12d, %ecx
	subl	%ecx, %r12d
	addl	%ebx, %r15d
	subl	%r15d, %ebx
	addl	%r14d, %eax
	subl	%eax, %r14d
	addl	%r13d, %edx
	subl	%edx, %r13d
	addl	%r12d, %ecx
	subl	%ecx, %r12d
	addl	%ebx, %r15d
	subl	%r15d, %ebx
	addl	%r14d, %eax
	subl	%eax, %r14d
	addl	%r13d, %edx
	subl	%edx, %r13d
	addl	%r12d, %ecx
	subl	%ecx, %r12d
	addl	%ebx, %r15d
	subl	%r15d, %ebx
	addl	%r14d, %eax
	subl	%eax, %r14d
	addl	%r13d, %edx
	subl	%edx, %r13d
	addl	%r12d, %ecx
	subl	%ecx, %r12d
	addl	%ebx, %r15d
	subl	%r15d, %ebx
	addl	%r14d, %eax
	subl	%eax, %r14d
	addl	%r13d, %edx
	subl	%edx, %r13d
	addl	%r12d, %ecx
	subl	%ecx, %r12d
	addl	%ebx, %r15d
	subl	%r15d, %ebx
	addl	%r14d, %eax
	movl	%eax, %edi
	subl	%eax, %r14d
	addl	%r13d, %edx
	movl	%edx, -84(%rbp)
	subl	%edx, %r13d
	addl	%r12d, %ecx
	movl	%ecx, -88(%rbp)
	subl	%ecx, %r12d
	addl	%ebx, %r15d
	subl	%r15d, %ebx
.L76:
	movq	%rsi, %rax
	leaq	-1(%rax), %rsi
	testq	%rax, %rax
	jne	.L77
	movl	%edi, %eax
	addl	%r14d, %eax
	movl	%eax, %edi
	call	use_int@PLT
	movl	-84(%rbp), %eax
	addl	%r13d, %eax
	movl	%eax, %edi
	call	use_int@PLT
	movl	-88(%rbp), %eax
	addl	%r12d, %eax
	movl	%eax, %edi
	call	use_int@PLT
	leal	(%r15,%rbx), %eax
	movl	%eax, %edi
	call	use_int@PLT
	addq	$56, %rsp
	popq	%rbx
	popq	%r12
	popq	%r13
	popq	%r14
	popq	%r15
	popq	%rbp
	.cfi_def_cfa 7, 8
	ret
	.cfi_endproc
.LFE28:
	.size	integer_add_3, .-integer_add_3
	.globl	integer_add_4
	.type	integer_add_4, @function
integer_add_4:
.LFB29:
	.cfi_startproc
	endbr64
	pushq	%rbp
	.cfi_def_cfa_offset 16
	.cfi_offset 6, -16
	movq	%rsp, %rbp
	.cfi_def_cfa_register 6
	pushq	%r15
	pushq	%r14
	pushq	%r13
	pushq	%r12
	pushq	%rbx
	subq	$56, %rsp
	.cfi_offset 15, -24
	.cfi_offset 14, -32
	.cfi_offset 13, -40
	.cfi_offset 12, -48
	.cfi_offset 3, -56
	movq	%rdi, -72(%rbp)
	movq	%rsi, -80(%rbp)
	movq	-72(%rbp), %rax
	movq	%rax, %r9
	movq	-80(%rbp), %rax
	movq	%rax, -56(%rbp)
	movq	-56(%rbp), %rax
	movl	12(%rax), %eax
	addl	$57, %eax
	movl	%eax, %r8d
	movq	-56(%rbp), %rax
	movl	12(%rax), %eax
	leal	31(%rax), %r15d
	movq	-56(%rbp), %rax
	movl	16(%rax), %eax
	addl	$57, %eax
	movl	%eax, -84(%rbp)
	movq	-56(%rbp), %rax
	movl	16(%rax), %eax
	leal	31(%rax), %r14d
	movq	-56(%rbp), %rax
	movl	20(%rax), %eax
	addl	$57, %eax
	movl	%eax, -88(%rbp)
	movq	-56(%rbp), %rax
	movl	20(%rax), %eax
	leal	31(%rax), %r13d
	movq	-56(%rbp), %rax
	movl	24(%rax), %eax
	addl	$57, %eax
	movl	%eax, -92(%rbp)
	movq	-56(%rbp), %rax
	movl	24(%rax), %eax
	leal	31(%rax), %r12d
	movq	-56(%rbp), %rax
	movl	28(%rax), %eax
	addl	$57, %eax
	movl	%eax, -96(%rbp)
	movq	-56(%rbp), %rax
	movl	28(%rax), %eax
	leal	31(%rax), %ebx
	jmp	.L79
.L80:
	movl	%r8d, %eax
	addl	%r15d, %eax
	subl	%eax, %r15d
	addl	%r14d, -84(%rbp)
	movl	-84(%rbp), %edx
	subl	%edx, %r14d
	addl	%r13d, -88(%rbp)
	movl	-88(%rbp), %ecx
	subl	%ecx, %r13d
	addl	%r12d, -92(%rbp)
	movl	-92(%rbp), %esi
	subl	%esi, %r12d
	addl	%ebx, -96(%rbp)
	movl	-96(%rbp), %edi
	subl	%edi, %ebx
	addl	%r15d, %eax
	subl	%eax, %r15d
	addl	%r14d, %edx
	subl	%edx, %r14d
	addl	%r13d, %ecx
	subl	%ecx, %r13d
	addl	%r12d, %esi
	subl	%esi, %r12d
	addl	%ebx, %edi
	subl	%edi, %ebx
	addl	%r15d, %eax
	subl	%eax, %r15d
	addl	%r14d, %edx
	subl	%edx, %r14d
	addl	%r13d, %ecx
	subl	%ecx, %r13d
	addl	%r12d, %esi
	subl	%esi, %r12d
	addl	%ebx, %edi
	subl	%edi, %ebx
	addl	%r15d, %eax
	subl	%eax, %r15d
	addl	%r14d, %edx
	subl	%edx, %r14d
	addl	%r13d, %ecx
	subl	%ecx, %r13d
	addl	%r12d, %esi
	subl	%esi, %r12d
	addl	%ebx, %edi
	subl	%edi, %ebx
	addl	%r15d, %eax
	subl	%eax, %r15d
	addl	%r14d, %edx
	subl	%edx, %r14d
	addl	%r13d, %ecx
	subl	%ecx, %r13d
	addl	%r12d, %esi
	subl	%esi, %r12d
	addl	%ebx, %edi
	subl	%edi, %ebx
	addl	%r15d, %eax
	subl	%eax, %r15d
	addl	%r14d, %edx
	subl	%edx, %r14d
	addl	%r13d, %ecx
	subl	%ecx, %r13d
	addl	%r12d, %esi
	subl	%esi, %r12d
	addl	%ebx, %edi
	subl	%edi, %ebx
	addl	%r15d, %eax
	subl	%eax, %r15d
	addl	%r14d, %edx
	subl	%edx, %r14d
	addl	%r13d, %ecx
	subl	%ecx, %r13d
	addl	%r12d, %esi
	subl	%esi, %r12d
	addl	%ebx, %edi
	subl	%edi, %ebx
	addl	%r15d, %eax
	subl	%eax, %r15d
	addl	%r14d, %edx
	subl	%edx, %r14d
	addl	%r13d, %ecx
	subl	%ecx, %r13d
	addl	%r12d, %esi
	subl	%esi, %r12d
	addl	%ebx, %edi
	subl	%edi, %ebx
	addl	%r15d, %eax
	subl	%eax, %r15d
	addl	%r14d, %edx
	subl	%edx, %r14d
	addl	%r13d, %ecx
	subl	%ecx, %r13d
	addl	%r12d, %esi
	subl	%esi, %r12d
	addl	%ebx, %edi
	subl	%edi, %ebx
	addl	%r15d, %eax
	movl	%eax, %r8d
	subl	%eax, %r15d
	addl	%r14d, %edx
	movl	%edx, -84(%rbp)
	subl	%edx, %r14d
	addl	%r13d, %ecx
	movl	%ecx, -88(%rbp)
	subl	%ecx, %r13d
	addl	%r12d, %esi
	movl	%esi, -92(%rbp)
	subl	%esi, %r12d
	addl	%ebx, %edi
	movl	%edi, -96(%rbp)
	subl	%edi, %ebx
.L79:
	movq	%r9, %rax
	leaq	-1(%rax), %rdx
	movq	%rdx, %r9
	testq	%rax, %rax
	jne	.L80
	movl	%r8d, %eax
	addl	%r15d, %eax
	movl	%eax, %edi
	call	use_int@PLT
	movl	-84(%rbp), %eax
	addl	%r14d, %eax
	movl	%eax, %edi
	call	use_int@PLT
	movl	-88(%rbp), %eax
	addl	%r13d, %eax
	movl	%eax, %edi
	call	use_int@PLT
	movl	-92(%rbp), %eax
	addl	%r12d, %eax
	movl	%eax, %edi
	call	use_int@PLT
	movl	-96(%rbp), %eax
	addl	%ebx, %eax
	movl	%eax, %edi
	call	use_int@PLT
	addq	$56, %rsp
	popq	%rbx
	popq	%r12
	popq	%r13
	popq	%r14
	popq	%r15
	popq	%rbp
	.cfi_def_cfa 7, 8
	ret
	.cfi_endproc
.LFE29:
	.size	integer_add_4, .-integer_add_4
	.globl	integer_add_5
	.type	integer_add_5, @function
integer_add_5:
.LFB30:
	.cfi_startproc
	endbr64
	pushq	%rbp
	.cfi_def_cfa_offset 16
	.cfi_offset 6, -16
	movq	%rsp, %rbp
	.cfi_def_cfa_register 6
	pushq	%r15
	pushq	%r14
	pushq	%r13
	pushq	%r12
	pushq	%rbx
	subq	$72, %rsp
	.cfi_offset 15, -24
	.cfi_offset 14, -32
	.cfi_offset 13, -40
	.cfi_offset 12, -48
	.cfi_offset 3, -56
	movq	%rdi, -72(%rbp)
	movq	%rsi, -80(%rbp)
	movq	-72(%rbp), %rax
	movq	%rax, %r11
	movq	-80(%rbp), %rax
	movq	%rax, -56(%rbp)
	movq	-56(%rbp), %rax
	movl	12(%rax), %eax
	addl	$57, %eax
	movl	%eax, %r10d
	movq	-56(%rbp), %rax
	movl	12(%rax), %eax
	addl	$31, %eax
	movl	%eax, %edx
	movq	-56(%rbp), %rax
	movl	16(%rax), %eax
	addl	$57, %eax
	movl	%eax, -84(%rbp)
	movq	-56(%rbp), %rax
	movl	16(%rax), %eax
	leal	31(%rax), %r15d
	movq	-56(%rbp), %rax
	movl	20(%rax), %eax
	addl	$57, %eax
	movl	%eax, -88(%rbp)
	movq	-56(%rbp), %rax
	movl	20(%rax), %eax
	leal	31(%rax), %r14d
	movq	-56(%rbp), %rax
	movl	24(%rax), %eax
	addl	$57, %eax
	movl	%eax, -92(%rbp)
	movq	-56(%rbp), %rax
	movl	24(%rax), %eax
	leal	31(%rax), %r13d
	movq	-56(%rbp), %rax
	movl	28(%rax), %eax
	addl	$57, %eax
	movl	%eax, -96(%rbp)
	movq	-56(%rbp), %rax
	movl	28(%rax), %eax
	leal	31(%rax), %r12d
	movq	-56(%rbp), %rax
	movl	32(%rax), %eax
	addl	$57, %eax
	movl	%eax, -100(%rbp)
	movq	-56(%rbp), %rax
	movl	32(%rax), %eax
	leal	31(%rax), %ebx
	jmp	.L82
.L83:
	movl	%r10d, %eax
	addl	%edx, %eax
	subl	%eax, %edx
	addl	%r15d, -84(%rbp)
	movl	-84(%rbp), %ecx
	subl	%ecx, %r15d
	addl	%r14d, -88(%rbp)
	movl	-88(%rbp), %esi
	subl	%esi, %r14d
	addl	%r13d, -92(%rbp)
	movl	-92(%rbp), %edi
	subl	%edi, %r13d
	addl	%r12d, -96(%rbp)
	movl	-96(%rbp), %r8d
	subl	%r8d, %r12d
	addl	%ebx, -100(%rbp)
	movl	-100(%rbp), %r9d
	subl	%r9d, %ebx
	addl	%edx, %eax
	subl	%eax, %edx
	addl	%r15d, %ecx
	subl	%ecx, %r15d
	addl	%r14d, %esi
	subl	%esi, %r14d
	addl	%r13d, %edi
	subl	%edi, %r13d
	addl	%r12d, %r8d
	subl	%r8d, %r12d
	addl	%ebx, %r9d
	subl	%r9d, %ebx
	addl	%edx, %eax
	subl	%eax, %edx
	addl	%r15d, %ecx
	subl	%ecx, %r15d
	addl	%r14d, %esi
	subl	%esi, %r14d
	addl	%r13d, %edi
	subl	%edi, %r13d
	addl	%r12d, %r8d
	subl	%r8d, %r12d
	addl	%ebx, %r9d
	subl	%r9d, %ebx
	addl	%edx, %eax
	subl	%eax, %edx
	addl	%r15d, %ecx
	subl	%ecx, %r15d
	addl	%r14d, %esi
	subl	%esi, %r14d
	addl	%r13d, %edi
	subl	%edi, %r13d
	addl	%r12d, %r8d
	subl	%r8d, %r12d
	addl	%ebx, %r9d
	subl	%r9d, %ebx
	addl	%edx, %eax
	subl	%eax, %edx
	addl	%r15d, %ecx
	subl	%ecx, %r15d
	addl	%r14d, %esi
	subl	%esi, %r14d
	addl	%r13d, %edi
	subl	%edi, %r13d
	addl	%r12d, %r8d
	subl	%r8d, %r12d
	addl	%ebx, %r9d
	subl	%r9d, %ebx
	addl	%edx, %eax
	subl	%eax, %edx
	addl	%r15d, %ecx
	subl	%ecx, %r15d
	addl	%r14d, %esi
	subl	%esi, %r14d
	addl	%r13d, %edi
	subl	%edi, %r13d
	addl	%r12d, %r8d
	subl	%r8d, %r12d
	addl	%ebx, %r9d
	subl	%r9d, %ebx
	addl	%edx, %eax
	subl	%eax, %edx
	addl	%r15d, %ecx
	subl	%ecx, %r15d
	addl	%r14d, %esi
	subl	%esi, %r14d
	addl	%r13d, %edi
	subl	%edi, %r13d
	addl	%r12d, %r8d
	subl	%r8d, %r12d
	addl	%ebx, %r9d
	subl	%r9d, %ebx
	addl	%edx, %eax
	subl	%eax, %edx
	addl	%r15d, %ecx
	subl	%ecx, %r15d
	addl	%r14d, %esi
	subl	%esi, %r14d
	addl	%r13d, %edi
	subl	%edi, %r13d
	addl	%r12d, %r8d
	subl	%r8d, %r12d
	addl	%ebx, %r9d
	subl	%r9d, %ebx
	addl	%edx, %eax
	subl	%eax, %edx
	addl	%r15d, %ecx
	subl	%ecx, %r15d
	addl	%r14d, %esi
	subl	%esi, %r14d
	addl	%r13d, %edi
	subl	%edi, %r13d
	addl	%r12d, %r8d
	subl	%r8d, %r12d
	addl	%ebx, %r9d
	subl	%r9d, %ebx
	addl	%edx, %eax
	movl	%eax, %r10d
	subl	%eax, %edx
	addl	%r15d, %ecx
	movl	%ecx, -84(%rbp)
	subl	%ecx, %r15d
	addl	%r14d, %esi
	movl	%esi, -88(%rbp)
	subl	%esi, %r14d
	addl	%r13d, %edi
	movl	%edi, -92(%rbp)
	subl	%edi, %r13d
	addl	%r12d, %r8d
	movl	%r8d, -96(%rbp)
	subl	%r8d, %r12d
	addl	%ebx, %r9d
	movl	%r9d, -100(%rbp)
	subl	%r9d, %ebx
.L82:
	movq	%r11, %rax
	leaq	-1(%rax), %rcx
	movq	%rcx, %r11
	testq	%rax, %rax
	jne	.L83
	movl	%r10d, %eax
	addl	%edx, %eax
	movl	%eax, %edi
	call	use_int@PLT
	movl	-84(%rbp), %eax
	addl	%r15d, %eax
	movl	%eax, %edi
	call	use_int@PLT
	movl	-88(%rbp), %eax
	addl	%r14d, %eax
	movl	%eax, %edi
	call	use_int@PLT
	movl	-92(%rbp), %eax
	addl	%r13d, %eax
	movl	%eax, %edi
	call	use_int@PLT
	movl	-96(%rbp), %eax
	addl	%r12d, %eax
	movl	%eax, %edi
	call	use_int@PLT
	movl	-100(%rbp), %eax
	addl	%ebx, %eax
	movl	%eax, %edi
	call	use_int@PLT
	addq	$72, %rsp
	popq	%rbx
	popq	%r12
	popq	%r13
	popq	%r14
	popq	%r15
	popq	%rbp
	.cfi_def_cfa 7, 8
	ret
	.cfi_endproc
.LFE30:
	.size	integer_add_5, .-integer_add_5
	.globl	integer_add_6
	.type	integer_add_6, @function
integer_add_6:
.LFB31:
	.cfi_startproc
	endbr64
	pushq	%rbp
	.cfi_def_cfa_offset 16
	.cfi_offset 6, -16
	movq	%rsp, %rbp
	.cfi_def_cfa_register 6
	pushq	%r15
	pushq	%r14
	pushq	%r13
	pushq	%r12
	pushq	%rbx
	subq	$88, %rsp
	.cfi_offset 15, -24
	.cfi_offset 14, -32
	.cfi_offset 13, -40
	.cfi_offset 12, -48
	.cfi_offset 3, -56
	movq	%rdi, -72(%rbp)
	movq	%rsi, -80(%rbp)
	movq	-72(%rbp), %rax
	movq	%rax, -120(%rbp)
	movq	-80(%rbp), %rax
	movq	%rax, -56(%rbp)
	movq	-56(%rbp), %rax
	movl	12(%rax), %eax
	addl	$57, %eax
	movl	%eax, -84(%rbp)
	movq	-56(%rbp), %rax
	movl	12(%rax), %eax
	addl	$31, %eax
	movl	%eax, %edx
	movq	-56(%rbp), %rax
	movl	16(%rax), %eax
	addl	$57, %eax
	movl	%eax, -88(%rbp)
	movq	-56(%rbp), %rax
	movl	16(%rax), %eax
	addl	$31, %eax
	movl	%eax, -112(%rbp)
	movq	-56(%rbp), %rax
	movl	20(%rax), %eax
	addl	$57, %eax
	movl	%eax, -92(%rbp)
	movq	-56(%rbp), %rax
	movl	20(%rax), %eax
	leal	31(%rax), %r15d
	movq	-56(%rbp), %rax
	movl	24(%rax), %eax
	addl	$57, %eax
	movl	%eax, -96(%rbp)
	movq	-56(%rbp), %rax
	movl	24(%rax), %eax
	leal	31(%rax), %r14d
	movq	-56(%rbp), %rax
	movl	28(%rax), %eax
	addl	$57, %eax
	movl	%eax, -100(%rbp)
	movq	-56(%rbp), %rax
	movl	28(%rax), %eax
	leal	31(%rax), %r13d
	movq	-56(%rbp), %rax
	movl	32(%rax), %eax
	addl	$57, %eax
	movl	%eax, -104(%rbp)
	movq	-56(%rbp), %rax
	movl	32(%rax), %eax
	leal	31(%rax), %r12d
	movq	-56(%rbp), %rax
	movl	36(%rax), %eax
	addl	$57, %eax
	movl	%eax, -108(%rbp)
	movq	-56(%rbp), %rax
	movl	36(%rax), %eax
	leal	31(%rax), %ebx
	jmp	.L85
.L86:
	addl	%edx, -84(%rbp)
	movl	-84(%rbp), %eax
	subl	%eax, %edx
	movl	-112(%rbp), %esi
	addl	%esi, -88(%rbp)
	movl	-88(%rbp), %ecx
	subl	%ecx, %esi
	addl	%r15d, -92(%rbp)
	movl	-92(%rbp), %edi
	subl	%edi, %r15d
	addl	%r14d, -96(%rbp)
	movl	-96(%rbp), %r8d
	subl	%r8d, %r14d
	addl	%r13d, -100(%rbp)
	movl	-100(%rbp), %r9d
	subl	%r9d, %r13d
	addl	%r12d, -104(%rbp)
	movl	-104(%rbp), %r10d
	subl	%r10d, %r12d
	addl	%ebx, -108(%rbp)
	movl	-108(%rbp), %r11d
	subl	%r11d, %ebx
	addl	%edx, %eax
	subl	%eax, %edx
	addl	%esi, %ecx
	subl	%ecx, %esi
	addl	%r15d, %edi
	subl	%edi, %r15d
	addl	%r14d, %r8d
	subl	%r8d, %r14d
	addl	%r13d, %r9d
	subl	%r9d, %r13d
	addl	%r12d, %r10d
	subl	%r10d, %r12d
	addl	%ebx, %r11d
	subl	%r11d, %ebx
	addl	%edx, %eax
	subl	%eax, %edx
	addl	%esi, %ecx
	subl	%ecx, %esi
	addl	%r15d, %edi
	subl	%edi, %r15d
	addl	%r14d, %r8d
	subl	%r8d, %r14d
	addl	%r13d, %r9d
	subl	%r9d, %r13d
	addl	%r12d, %r10d
	subl	%r10d, %r12d
	addl	%ebx, %r11d
	subl	%r11d, %ebx
	addl	%edx, %eax
	subl	%eax, %edx
	addl	%esi, %ecx
	subl	%ecx, %esi
	addl	%r15d, %edi
	subl	%edi, %r15d
	addl	%r14d, %r8d
	subl	%r8d, %r14d
	addl	%r13d, %r9d
	subl	%r9d, %r13d
	addl	%r12d, %r10d
	subl	%r10d, %r12d
	addl	%ebx, %r11d
	subl	%r11d, %ebx
	addl	%edx, %eax
	subl	%eax, %edx
	addl	%esi, %ecx
	subl	%ecx, %esi
	addl	%r15d, %edi
	subl	%edi, %r15d
	addl	%r14d, %r8d
	subl	%r8d, %r14d
	addl	%r13d, %r9d
	subl	%r9d, %r13d
	addl	%r12d, %r10d
	subl	%r10d, %r12d
	addl	%ebx, %r11d
	subl	%r11d, %ebx
	addl	%edx, %eax
	subl	%eax, %edx
	addl	%esi, %ecx
	subl	%ecx, %esi
	addl	%r15d, %edi
	subl	%edi, %r15d
	addl	%r14d, %r8d
	subl	%r8d, %r14d
	addl	%r13d, %r9d
	subl	%r9d, %r13d
	addl	%r12d, %r10d
	subl	%r10d, %r12d
	addl	%ebx, %r11d
	subl	%r11d, %ebx
	addl	%edx, %eax
	subl	%eax, %edx
	addl	%esi, %ecx
	subl	%ecx, %esi
	addl	%r15d, %edi
	subl	%edi, %r15d
	addl	%r14d, %r8d
	subl	%r8d, %r14d
	addl	%r13d, %r9d
	subl	%r9d, %r13d
	addl	%r12d, %r10d
	subl	%r10d, %r12d
	addl	%ebx, %r11d
	subl	%r11d, %ebx
	addl	%edx, %eax
	subl	%eax, %edx
	addl	%esi, %ecx
	subl	%ecx, %esi
	addl	%r15d, %edi
	subl	%edi, %r15d
	addl	%r14d, %r8d
	subl	%r8d, %r14d
	addl	%r13d, %r9d
	subl	%r9d, %r13d
	addl	%r12d, %r10d
	subl	%r10d, %r12d
	addl	%ebx, %r11d
	subl	%r11d, %ebx
	addl	%edx, %eax
	subl	%eax, %edx
	addl	%esi, %ecx
	subl	%ecx, %esi
	addl	%r15d, %edi
	subl	%edi, %r15d
	addl	%r14d, %r8d
	subl	%r8d, %r14d
	addl	%r13d, %r9d
	subl	%r9d, %r13d
	addl	%r12d, %r10d
	subl	%r10d, %r12d
	addl	%ebx, %r11d
	subl	%r11d, %ebx
	addl	%edx, %eax
	movl	%eax, -84(%rbp)
	subl	%eax, %edx
	addl	%esi, %ecx
	movl	%ecx, -88(%rbp)
	subl	%ecx, %esi
	movl	%esi, -112(%rbp)
	addl	%r15d, %edi
	movl	%edi, -92(%rbp)
	subl	%edi, %r15d
	addl	%r14d, %r8d
	movl	%r8d, -96(%rbp)
	subl	%r8d, %r14d
	addl	%r13d, %r9d
	movl	%r9d, -100(%rbp)
	subl	%r9d, %r13d
	addl	%r12d, %r10d
	movl	%r10d, -104(%rbp)
	subl	%r10d, %r12d
	addl	%ebx, %r11d
	movl	%r11d, -108(%rbp)
	subl	%r11d, %ebx
.L85:
	movq	-120(%rbp), %rax
	leaq	-1(%rax), %rdi
	movq	%rdi, -120(%rbp)
	testq	%rax, %rax
	jne	.L86
	movl	-84(%rbp), %eax
	addl	%edx, %eax
	movl	%eax, %edi
	call	use_int@PLT
	movl	-88(%rbp), %eax
	addl	-112(%rbp), %eax
	movl	%eax, %edi
	call	use_int@PLT
	movl	-92(%rbp), %eax
	addl	%r15d, %eax
	movl	%eax, %edi
	call	use_int@PLT
	movl	-96(%rbp), %eax
	addl	%r14d, %eax
	movl	%eax, %edi
	call	use_int@PLT
	movl	-100(%rbp), %eax
	addl	%r13d, %eax
	movl	%eax, %edi
	call	use_int@PLT
	movl	-104(%rbp), %eax
	addl	%r12d, %eax
	movl	%eax, %edi
	call	use_int@PLT
	movl	-108(%rbp), %eax
	addl	%ebx, %eax
	movl	%eax, %edi
	call	use_int@PLT
	addq	$88, %rsp
	popq	%rbx
	popq	%r12
	popq	%r13
	popq	%r14
	popq	%r15
	popq	%rbp
	.cfi_def_cfa 7, 8
	ret
	.cfi_endproc
.LFE31:
	.size	integer_add_6, .-integer_add_6
	.globl	integer_add_7
	.type	integer_add_7, @function
integer_add_7:
.LFB32:
	.cfi_startproc
	endbr64
	pushq	%rbp
	.cfi_def_cfa_offset 16
	.cfi_offset 6, -16
	movq	%rsp, %rbp
	.cfi_def_cfa_register 6
	pushq	%r15
	pushq	%r14
	pushq	%r13
	pushq	%r12
	pushq	%rbx
	subq	$104, %rsp
	.cfi_offset 15, -24
	.cfi_offset 14, -32
	.cfi_offset 13, -40
	.cfi_offset 12, -48
	.cfi_offset 3, -56
	movq	%rdi, -72(%rbp)
	movq	%rsi, -80(%rbp)
	movq	-72(%rbp), %rax
	movq	%rax, -136(%rbp)
	movq	-80(%rbp), %rax
	movq	%rax, -56(%rbp)
	movq	-56(%rbp), %rax
	movl	12(%rax), %eax
	addl	$57, %eax
	movl	%eax, -92(%rbp)
	movq	-56(%rbp), %rax
	movl	12(%rax), %eax
	addl	$31, %eax
	movl	%eax, -116(%rbp)
	movq	-56(%rbp), %rax
	movl	16(%rax), %eax
	addl	$57, %eax
	movl	%eax, -96(%rbp)
	movq	-56(%rbp), %rax
	movl	16(%rax), %eax
	addl	$31, %eax
	movl	%eax, -120(%rbp)
	movq	-56(%rbp), %rax
	movl	20(%rax), %eax
	addl	$57, %eax
	movl	%eax, -100(%rbp)
	movq	-56(%rbp), %rax
	movl	20(%rax), %eax
	addl	$31, %eax
	movl	%eax, -124(%rbp)
	movq	-56(%rbp), %rax
	movl	24(%rax), %eax
	addl	$57, %eax
	movl	%eax, -104(%rbp)
	movq	-56(%rbp), %rax
	movl	24(%rax), %eax
	leal	31(%rax), %r15d
	movq	-56(%rbp), %rax
	movl	28(%rax), %eax
	addl	$57, %eax
	movl	%eax, -108(%rbp)
	movq	-56(%rbp), %rax
	movl	28(%rax), %eax
	leal	31(%rax), %r14d
	movq	-56(%rbp), %rax
	movl	32(%rax), %eax
	addl	$57, %eax
	movl	%eax, -112(%rbp)
	movq	-56(%rbp), %rax
	movl	32(%rax), %eax
	leal	31(%rax), %r13d
	movq	-56(%rbp), %rax
	movl	36(%rax), %eax
	addl	$57, %eax
	movl	%eax, -84(%rbp)
	movq	-56(%rbp), %rax
	movl	36(%rax), %eax
	leal	31(%rax), %r12d
	movq	-56(%rbp), %rax
	movl	40(%rax), %eax
	addl	$57, %eax
	movl	%eax, -88(%rbp)
	movq	-56(%rbp), %rax
	movl	40(%rax), %eax
	leal	31(%rax), %ebx
	jmp	.L88
.L89:
	movl	-116(%rbp), %edx
	addl	%edx, -92(%rbp)
	movl	-92(%rbp), %eax
	subl	%eax, %edx
	movl	-120(%rbp), %esi
	addl	%esi, -96(%rbp)
	movl	-96(%rbp), %ecx
	subl	%ecx, %esi
	movl	-124(%rbp), %r8d
	addl	%r8d, -100(%rbp)
	movl	-100(%rbp), %edi
	subl	%edi, %r8d
	addl	%r15d, -104(%rbp)
	movl	-104(%rbp), %r9d
	subl	%r9d, %r15d
	addl	%r14d, -108(%rbp)
	movl	-108(%rbp), %r10d
	subl	%r10d, %r14d
	addl	%r13d, -112(%rbp)
	movl	-112(%rbp), %r11d
	subl	%r11d, %r13d
	addl	%r12d, -84(%rbp)
	subl	-84(%rbp), %r12d
	addl	%ebx, -88(%rbp)
	subl	-88(%rbp), %ebx
	addl	%edx, %eax
	subl	%eax, %edx
	addl	%esi, %ecx
	subl	%ecx, %esi
	addl	%r8d, %edi
	subl	%edi, %r8d
	addl	%r15d, %r9d
	subl	%r9d, %r15d
	addl	%r14d, %r10d
	subl	%r10d, %r14d
	addl	%r13d, %r11d
	subl	%r11d, %r13d
	addl	%r12d, -84(%rbp)
	subl	-84(%rbp), %r12d
	addl	%ebx, -88(%rbp)
	subl	-88(%rbp), %ebx
	addl	%edx, %eax
	subl	%eax, %edx
	addl	%esi, %ecx
	subl	%ecx, %esi
	addl	%r8d, %edi
	subl	%edi, %r8d
	addl	%r15d, %r9d
	subl	%r9d, %r15d
	addl	%r14d, %r10d
	subl	%r10d, %r14d
	addl	%r13d, %r11d
	subl	%r11d, %r13d
	addl	%r12d, -84(%rbp)
	subl	-84(%rbp), %r12d
	addl	%ebx, -88(%rbp)
	subl	-88(%rbp), %ebx
	addl	%edx, %eax
	subl	%eax, %edx
	addl	%esi, %ecx
	subl	%ecx, %esi
	addl	%r8d, %edi
	subl	%edi, %r8d
	addl	%r15d, %r9d
	subl	%r9d, %r15d
	addl	%r14d, %r10d
	subl	%r10d, %r14d
	addl	%r13d, %r11d
	subl	%r11d, %r13d
	addl	%r12d, -84(%rbp)
	subl	-84(%rbp), %r12d
	addl	%ebx, -88(%rbp)
	subl	-88(%rbp), %ebx
	addl	%edx, %eax
	subl	%eax, %edx
	addl	%esi, %ecx
	subl	%ecx, %esi
	addl	%r8d, %edi
	subl	%edi, %r8d
	addl	%r15d, %r9d
	subl	%r9d, %r15d
	addl	%r14d, %r10d
	subl	%r10d, %r14d
	addl	%r13d, %r11d
	subl	%r11d, %r13d
	addl	%r12d, -84(%rbp)
	subl	-84(%rbp), %r12d
	addl	%ebx, -88(%rbp)
	subl	-88(%rbp), %ebx
	addl	%edx, %eax
	subl	%eax, %edx
	addl	%esi, %ecx
	subl	%ecx, %esi
	addl	%r8d, %edi
	subl	%edi, %r8d
	addl	%r15d, %r9d
	subl	%r9d, %r15d
	addl	%r14d, %r10d
	subl	%r10d, %r14d
	addl	%r13d, %r11d
	subl	%r11d, %r13d
	addl	%r12d, -84(%rbp)
	subl	-84(%rbp), %r12d
	addl	%ebx, -88(%rbp)
	subl	-88(%rbp), %ebx
	addl	%edx, %eax
	subl	%eax, %edx
	addl	%esi, %ecx
	subl	%ecx, %esi
	addl	%r8d, %edi
	subl	%edi, %r8d
	addl	%r15d, %r9d
	subl	%r9d, %r15d
	addl	%r14d, %r10d
	subl	%r10d, %r14d
	addl	%r13d, %r11d
	subl	%r11d, %r13d
	addl	%r12d, -84(%rbp)
	subl	-84(%rbp), %r12d
	addl	%ebx, -88(%rbp)
	subl	-88(%rbp), %ebx
	addl	%edx, %eax
	subl	%eax, %edx
	addl	%esi, %ecx
	subl	%ecx, %esi
	addl	%r8d, %edi
	subl	%edi, %r8d
	addl	%r15d, %r9d
	subl	%r9d, %r15d
	addl	%r14d, %r10d
	subl	%r10d, %r14d
	addl	%r13d, %r11d
	subl	%r11d, %r13d
	addl	%r12d, -84(%rbp)
	subl	-84(%rbp), %r12d
	addl	%ebx, -88(%rbp)
	subl	-88(%rbp), %ebx
	addl	%edx, %eax
	subl	%eax, %edx
	addl	%esi, %ecx
	subl	%ecx, %esi
	addl	%r8d, %edi
	subl	%edi, %r8d
	addl	%r15d, %r9d
	subl	%r9d, %r15d
	addl	%r14d, %r10d
	subl	%r10d, %r14d
	addl	%r13d, %r11d
	subl	%r11d, %r13d
	addl	%r12d, -84(%rbp)
	subl	-84(%rbp), %r12d
	addl	%ebx, -88(%rbp)
	subl	-88(%rbp), %ebx
	addl	%edx, %eax
	movl	%eax, -92(%rbp)
	subl	%eax, %edx
	movl	%edx, -116(%rbp)
	addl	%esi, %ecx
	movl	%ecx, -96(%rbp)
	subl	%ecx, %esi
	movl	%esi, -120(%rbp)
	addl	%r8d, %edi
	movl	%edi, -100(%rbp)
	subl	%edi, %r8d
	movl	%r8d, -124(%rbp)
	addl	%r15d, %r9d
	movl	%r9d, -104(%rbp)
	subl	%r9d, %r15d
	addl	%r14d, %r10d
	movl	%r10d, -108(%rbp)
	subl	%r10d, %r14d
	addl	%r13d, %r11d
	movl	%r11d, -112(%rbp)
	subl	%r11d, %r13d
	addl	%r12d, -84(%rbp)
	movl	-84(%rbp), %eax
	movl	%eax, -84(%rbp)
	subl	%eax, %r12d
	addl	%ebx, -88(%rbp)
	movl	-88(%rbp), %eax
	movl	%eax, -88(%rbp)
	subl	%eax, %ebx
.L88:
	movq	-136(%rbp), %rax
	leaq	-1(%rax), %rdx
	movq	%rdx, -136(%rbp)
	testq	%rax, %rax
	jne	.L89
	movl	-92(%rbp), %eax
	addl	-116(%rbp), %eax
	movl	%eax, %edi
	call	use_int@PLT
	movl	-96(%rbp), %eax
	addl	-120(%rbp), %eax
	movl	%eax, %edi
	call	use_int@PLT
	movl	-100(%rbp), %eax
	addl	-124(%rbp), %eax
	movl	%eax, %edi
	call	use_int@PLT
	movl	-104(%rbp), %eax
	addl	%r15d, %eax
	movl	%eax, %edi
	call	use_int@PLT
	movl	-108(%rbp), %eax
	addl	%r14d, %eax
	movl	%eax, %edi
	call	use_int@PLT
	movl	-112(%rbp), %eax
	addl	%r13d, %eax
	movl	%eax, %edi
	call	use_int@PLT
	movl	-84(%rbp), %eax
	addl	%r12d, %eax
	movl	%eax, %edi
	call	use_int@PLT
	movl	-88(%rbp), %eax
	addl	%ebx, %eax
	movl	%eax, %edi
	call	use_int@PLT
	addq	$104, %rsp
	popq	%rbx
	popq	%r12
	popq	%r13
	popq	%r14
	popq	%r15
	popq	%rbp
	.cfi_def_cfa 7, 8
	ret
	.cfi_endproc
.LFE32:
	.size	integer_add_7, .-integer_add_7
	.globl	integer_add_8
	.type	integer_add_8, @function
integer_add_8:
.LFB33:
	.cfi_startproc
	endbr64
	pushq	%rbp
	.cfi_def_cfa_offset 16
	.cfi_offset 6, -16
	movq	%rsp, %rbp
	.cfi_def_cfa_register 6
	pushq	%r15
	pushq	%r14
	pushq	%r13
	pushq	%r12
	pushq	%rbx
	subq	$104, %rsp
	.cfi_offset 15, -24
	.cfi_offset 14, -32
	.cfi_offset 13, -40
	.cfi_offset 12, -48
	.cfi_offset 3, -56
	movq	%rdi, -72(%rbp)
	movq	%rsi, -80(%rbp)
	movq	-72(%rbp), %rax
	movq	%rax, -144(%rbp)
	movq	-80(%rbp), %rax
	movq	%rax, -56(%rbp)
	movq	-56(%rbp), %rax
	movl	12(%rax), %eax
	addl	$57, %eax
	movl	%eax, -100(%rbp)
	movq	-56(%rbp), %rax
	movl	12(%rax), %eax
	addl	$31, %eax
	movl	%eax, -120(%rbp)
	movq	-56(%rbp), %rax
	movl	16(%rax), %eax
	addl	$57, %eax
	movl	%eax, -104(%rbp)
	movq	-56(%rbp), %rax
	movl	16(%rax), %eax
	addl	$31, %eax
	movl	%eax, -124(%rbp)
	movq	-56(%rbp), %rax
	movl	20(%rax), %eax
	addl	$57, %eax
	movl	%eax, -108(%rbp)
	movq	-56(%rbp), %rax
	movl	20(%rax), %eax
	addl	$31, %eax
	movl	%eax, -128(%rbp)
	movq	-56(%rbp), %rax
	movl	24(%rax), %eax
	addl	$57, %eax
	movl	%eax, -112(%rbp)
	movq	-56(%rbp), %rax
	movl	24(%rax), %eax
	addl	$31, %eax
	movl	%eax, -132(%rbp)
	movq	-56(%rbp), %rax
	movl	28(%rax), %eax
	addl	$57, %eax
	movl	%eax, -116(%rbp)
	movq	-56(%rbp), %rax
	movl	28(%rax), %eax
	leal	31(%rax), %r15d
	movq	-56(%rbp), %rax
	movl	32(%rax), %eax
	addl	$57, %eax
	movl	%eax, -84(%rbp)
	movq	-56(%rbp), %rax
	movl	32(%rax), %eax
	leal	31(%rax), %r14d
	movq	-56(%rbp), %rax
	movl	36(%rax), %eax
	addl	$57, %eax
	movl	%eax, -88(%rbp)
	movq	-56(%rbp), %rax
	movl	36(%rax), %eax
	leal	31(%rax), %r13d
	movq	-56(%rbp), %rax
	movl	40(%rax), %eax
	addl	$57, %eax
	movl	%eax, -92(%rbp)
	movq	-56(%rbp), %rax
	movl	40(%rax), %eax
	leal	31(%rax), %r12d
	movq	-56(%rbp), %rax
	movl	44(%rax), %eax
	addl	$57, %eax
	movl	%eax, -96(%rbp)
	movq	-56(%rbp), %rax
	movl	44(%rax), %eax
	leal	31(%rax), %ebx
	jmp	.L91
.L92:
	movl	-120(%rbp), %edx
	addl	%edx, -100(%rbp)
	movl	-100(%rbp), %eax
	subl	%eax, %edx
	movl	-124(%rbp), %esi
	addl	%esi, -104(%rbp)
	movl	-104(%rbp), %ecx
	subl	%ecx, %esi
	movl	-128(%rbp), %r8d
	addl	%r8d, -108(%rbp)
	movl	-108(%rbp), %edi
	subl	%edi, %r8d
	movl	-132(%rbp), %r10d
	addl	%r10d, -112(%rbp)
	movl	-112(%rbp), %r9d
	subl	%r9d, %r10d
	addl	%r15d, -116(%rbp)
	movl	-116(%rbp), %r11d
	subl	%r11d, %r15d
	addl	%r14d, -84(%rbp)
	subl	-84(%rbp), %r14d
	addl	%r13d, -88(%rbp)
	subl	-88(%rbp), %r13d
	addl	%r12d, -92(%rbp)
	subl	-92(%rbp), %r12d
	addl	%ebx, -96(%rbp)
	subl	-96(%rbp), %ebx
	addl	%edx, %eax
	subl	%eax, %edx
	addl	%esi, %ecx
	subl	%ecx, %esi
	addl	%r8d, %edi
	subl	%edi, %r8d
	addl	%r10d, %r9d
	subl	%r9d, %r10d
	addl	%r15d, %r11d
	subl	%r11d, %r15d
	addl	%r14d, -84(%rbp)
	subl	-84(%rbp), %r14d
	addl	%r13d, -88(%rbp)
	subl	-88(%rbp), %r13d
	addl	%r12d, -92(%rbp)
	subl	-92(%rbp), %r12d
	addl	%ebx, -96(%rbp)
	subl	-96(%rbp), %ebx
	addl	%edx, %eax
	subl	%eax, %edx
	addl	%esi, %ecx
	subl	%ecx, %esi
	addl	%r8d, %edi
	subl	%edi, %r8d
	addl	%r10d, %r9d
	subl	%r9d, %r10d
	addl	%r15d, %r11d
	subl	%r11d, %r15d
	addl	%r14d, -84(%rbp)
	subl	-84(%rbp), %r14d
	addl	%r13d, -88(%rbp)
	subl	-88(%rbp), %r13d
	addl	%r12d, -92(%rbp)
	subl	-92(%rbp), %r12d
	addl	%ebx, -96(%rbp)
	subl	-96(%rbp), %ebx
	addl	%edx, %eax
	subl	%eax, %edx
	addl	%esi, %ecx
	subl	%ecx, %esi
	addl	%r8d, %edi
	subl	%edi, %r8d
	addl	%r10d, %r9d
	subl	%r9d, %r10d
	addl	%r15d, %r11d
	subl	%r11d, %r15d
	addl	%r14d, -84(%rbp)
	subl	-84(%rbp), %r14d
	addl	%r13d, -88(%rbp)
	subl	-88(%rbp), %r13d
	addl	%r12d, -92(%rbp)
	subl	-92(%rbp), %r12d
	addl	%ebx, -96(%rbp)
	subl	-96(%rbp), %ebx
	addl	%edx, %eax
	subl	%eax, %edx
	addl	%esi, %ecx
	subl	%ecx, %esi
	addl	%r8d, %edi
	subl	%edi, %r8d
	addl	%r10d, %r9d
	subl	%r9d, %r10d
	addl	%r15d, %r11d
	subl	%r11d, %r15d
	addl	%r14d, -84(%rbp)
	subl	-84(%rbp), %r14d
	addl	%r13d, -88(%rbp)
	subl	-88(%rbp), %r13d
	addl	%r12d, -92(%rbp)
	subl	-92(%rbp), %r12d
	addl	%ebx, -96(%rbp)
	subl	-96(%rbp), %ebx
	addl	%edx, %eax
	subl	%eax, %edx
	addl	%esi, %ecx
	subl	%ecx, %esi
	addl	%r8d, %edi
	subl	%edi, %r8d
	addl	%r10d, %r9d
	subl	%r9d, %r10d
	addl	%r15d, %r11d
	subl	%r11d, %r15d
	addl	%r14d, -84(%rbp)
	subl	-84(%rbp), %r14d
	addl	%r13d, -88(%rbp)
	subl	-88(%rbp), %r13d
	addl	%r12d, -92(%rbp)
	subl	-92(%rbp), %r12d
	addl	%ebx, -96(%rbp)
	subl	-96(%rbp), %ebx
	addl	%edx, %eax
	subl	%eax, %edx
	addl	%esi, %ecx
	subl	%ecx, %esi
	addl	%r8d, %edi
	subl	%edi, %r8d
	addl	%r10d, %r9d
	subl	%r9d, %r10d
	addl	%r15d, %r11d
	subl	%r11d, %r15d
	addl	%r14d, -84(%rbp)
	subl	-84(%rbp), %r14d
	addl	%r13d, -88(%rbp)
	subl	-88(%rbp), %r13d
	addl	%r12d, -92(%rbp)
	subl	-92(%rbp), %r12d
	addl	%ebx, -96(%rbp)
	subl	-96(%rbp), %ebx
	addl	%edx, %eax
	subl	%eax, %edx
	addl	%esi, %ecx
	subl	%ecx, %esi
	addl	%r8d, %edi
	subl	%edi, %r8d
	addl	%r10d, %r9d
	subl	%r9d, %r10d
	addl	%r15d, %r11d
	subl	%r11d, %r15d
	addl	%r14d, -84(%rbp)
	subl	-84(%rbp), %r14d
	addl	%r13d, -88(%rbp)
	subl	-88(%rbp), %r13d
	addl	%r12d, -92(%rbp)
	subl	-92(%rbp), %r12d
	addl	%ebx, -96(%rbp)
	subl	-96(%rbp), %ebx
	addl	%edx, %eax
	subl	%eax, %edx
	addl	%esi, %ecx
	subl	%ecx, %esi
	addl	%r8d, %edi
	subl	%edi, %r8d
	addl	%r10d, %r9d
	subl	%r9d, %r10d
	addl	%r15d, %r11d
	subl	%r11d, %r15d
	addl	%r14d, -84(%rbp)
	subl	-84(%rbp), %r14d
	addl	%r13d, -88(%rbp)
	subl	-88(%rbp), %r13d
	addl	%r12d, -92(%rbp)
	subl	-92(%rbp), %r12d
	addl	%ebx, -96(%rbp)
	subl	-96(%rbp), %ebx
	addl	%edx, %eax
	movl	%eax, -100(%rbp)
	subl	%eax, %edx
	movl	%edx, -120(%rbp)
	addl	%esi, %ecx
	movl	%ecx, -104(%rbp)
	subl	%ecx, %esi
	movl	%esi, -124(%rbp)
	addl	%r8d, %edi
	movl	%edi, -108(%rbp)
	subl	%edi, %r8d
	movl	%r8d, -128(%rbp)
	addl	%r10d, %r9d
	movl	%r9d, -112(%rbp)
	subl	%r9d, %r10d
	movl	%r10d, -132(%rbp)
	addl	%r15d, %r11d
	movl	%r11d, -116(%rbp)
	subl	%r11d, %r15d
	addl	%r14d, -84(%rbp)
	movl	-84(%rbp), %eax
	movl	%eax, -84(%rbp)
	subl	%eax, %r14d
	addl	%r13d, -88(%rbp)
	movl	-88(%rbp), %eax
	movl	%eax, -88(%rbp)
	subl	%eax, %r13d
	addl	%r12d, -92(%rbp)
	movl	-92(%rbp), %eax
	movl	%eax, -92(%rbp)
	subl	%eax, %r12d
	addl	%ebx, -96(%rbp)
	movl	-96(%rbp), %eax
	movl	%eax, -96(%rbp)
	subl	%eax, %ebx
.L91:
	movq	-144(%rbp), %rax
	leaq	-1(%rax), %rdx
	movq	%rdx, -144(%rbp)
	testq	%rax, %rax
	jne	.L92
	movl	-100(%rbp), %eax
	addl	-120(%rbp), %eax
	movl	%eax, %edi
	call	use_int@PLT
	movl	-104(%rbp), %eax
	addl	-124(%rbp), %eax
	movl	%eax, %edi
	call	use_int@PLT
	movl	-108(%rbp), %eax
	addl	-128(%rbp), %eax
	movl	%eax, %edi
	call	use_int@PLT
	movl	-112(%rbp), %eax
	addl	-132(%rbp), %eax
	movl	%eax, %edi
	call	use_int@PLT
	movl	-116(%rbp), %eax
	addl	%r15d, %eax
	movl	%eax, %edi
	call	use_int@PLT
	movl	-84(%rbp), %eax
	addl	%r14d, %eax
	movl	%eax, %edi
	call	use_int@PLT
	movl	-88(%rbp), %eax
	addl	%r13d, %eax
	movl	%eax, %edi
	call	use_int@PLT
	movl	-92(%rbp), %eax
	addl	%r12d, %eax
	movl	%eax, %edi
	call	use_int@PLT
	movl	-96(%rbp), %eax
	addl	%ebx, %eax
	movl	%eax, %edi
	call	use_int@PLT
	addq	$104, %rsp
	popq	%rbx
	popq	%r12
	popq	%r13
	popq	%r14
	popq	%r15
	popq	%rbp
	.cfi_def_cfa 7, 8
	ret
	.cfi_endproc
.LFE33:
	.size	integer_add_8, .-integer_add_8
	.globl	integer_add_9
	.type	integer_add_9, @function
integer_add_9:
.LFB34:
	.cfi_startproc
	endbr64
	pushq	%rbp
	.cfi_def_cfa_offset 16
	.cfi_offset 6, -16
	movq	%rsp, %rbp
	.cfi_def_cfa_register 6
	pushq	%r15
	pushq	%r14
	pushq	%r13
	pushq	%r12
	pushq	%rbx
	subq	$120, %rsp
	.cfi_offset 15, -24
	.cfi_offset 14, -32
	.cfi_offset 13, -40
	.cfi_offset 12, -48
	.cfi_offset 3, -56
	movq	%rdi, -72(%rbp)
	movq	%rsi, -80(%rbp)
	movq	-72(%rbp), %rax
	movq	%rax, -152(%rbp)
	movq	-80(%rbp), %rax
	movq	%rax, -56(%rbp)
	movq	-56(%rbp), %rax
	movl	12(%rax), %eax
	addl	$57, %eax
	movl	%eax, -116(%rbp)
	movq	-56(%rbp), %rax
	movl	12(%rax), %eax
	addl	$31, %eax
	movl	%eax, -108(%rbp)
	movq	-56(%rbp), %rax
	movl	16(%rax), %eax
	addl	$57, %eax
	movl	%eax, -120(%rbp)
	movq	-56(%rbp), %rax
	movl	16(%rax), %eax
	addl	$31, %eax
	movl	%eax, -112(%rbp)
	movq	-56(%rbp), %rax
	movl	20(%rax), %eax
	addl	$57, %eax
	movl	%eax, -124(%rbp)
	movq	-56(%rbp), %rax
	movl	20(%rax), %eax
	addl	$31, %eax
	movl	%eax, -136(%rbp)
	movq	-56(%rbp), %rax
	movl	24(%rax), %eax
	addl	$57, %eax
	movl	%eax, -128(%rbp)
	movq	-56(%rbp), %rax
	movl	24(%rax), %eax
	addl	$31, %eax
	movl	%eax, -140(%rbp)
	movq	-56(%rbp), %rax
	movl	28(%rax), %eax
	addl	$57, %eax
	movl	%eax, -132(%rbp)
	movq	-56(%rbp), %rax
	movl	28(%rax), %eax
	addl	$31, %eax
	movl	%eax, -104(%rbp)
	movq	-56(%rbp), %rax
	movl	32(%rax), %eax
	addl	$57, %eax
	movl	%eax, -84(%rbp)
	movq	-56(%rbp), %rax
	movl	32(%rax), %eax
	leal	31(%rax), %r15d
	movq	-56(%rbp), %rax
	movl	36(%rax), %eax
	addl	$57, %eax
	movl	%eax, -88(%rbp)
	movq	-56(%rbp), %rax
	movl	36(%rax), %eax
	leal	31(%rax), %r14d
	movq	-56(%rbp), %rax
	movl	40(%rax), %eax
	addl	$57, %eax
	movl	%eax, -92(%rbp)
	movq	-56(%rbp), %rax
	movl	40(%rax), %eax
	leal	31(%rax), %r13d
	movq	-56(%rbp), %rax
	movl	44(%rax), %eax
	addl	$57, %eax
	movl	%eax, -96(%rbp)
	movq	-56(%rbp), %rax
	movl	44(%rax), %eax
	leal	31(%rax), %r12d
	movq	-56(%rbp), %rax
	movl	48(%rax), %eax
	addl	$57, %eax
	movl	%eax, -100(%rbp)
	movq	-56(%rbp), %rax
	movl	48(%rax), %eax
	leal	31(%rax), %ebx
	jmp	.L94
.L95:
	movl	-108(%rbp), %edx
	addl	%edx, -116(%rbp)
	movl	-116(%rbp), %eax
	subl	%eax, %edx
	movl	%edx, -108(%rbp)
	movl	-112(%rbp), %esi
	addl	%esi, -120(%rbp)
	movl	-120(%rbp), %ecx
	subl	%ecx, %esi
	movl	-136(%rbp), %r8d
	addl	%r8d, -124(%rbp)
	movl	-124(%rbp), %edi
	subl	%edi, %r8d
	movl	-140(%rbp), %r10d
	addl	%r10d, -128(%rbp)
	movl	-128(%rbp), %r9d
	subl	%r9d, %r10d
	movl	-104(%rbp), %edx
	addl	%edx, -132(%rbp)
	movl	-132(%rbp), %r11d
	subl	%r11d, %edx
	movl	%edx, -104(%rbp)
	addl	%r15d, -84(%rbp)
	movl	-84(%rbp), %edx
	movl	%edx, -84(%rbp)
	subl	-84(%rbp), %r15d
	addl	%r14d, -88(%rbp)
	movl	-88(%rbp), %edx
	movl	%edx, -88(%rbp)
	subl	-88(%rbp), %r14d
	addl	%r13d, -92(%rbp)
	movl	-92(%rbp), %edx
	movl	%edx, -92(%rbp)
	subl	-92(%rbp), %r13d
	addl	%r12d, -96(%rbp)
	movl	-96(%rbp), %edx
	movl	%edx, -96(%rbp)
	subl	-96(%rbp), %r12d
	addl	%ebx, -100(%rbp)
	movl	-100(%rbp), %edx
	movl	%edx, -100(%rbp)
	subl	-100(%rbp), %ebx
	movl	-108(%rbp), %edx
	addl	%edx, %eax
	subl	%eax, %edx
	addl	%esi, %ecx
	subl	%ecx, %esi
	movl	%esi, -112(%rbp)
	addl	%r8d, %edi
	subl	%edi, %r8d
	addl	%r10d, %r9d
	subl	%r9d, %r10d
	movl	-104(%rbp), %esi
	addl	%esi, %r11d
	subl	%r11d, %esi
	movl	%esi, -104(%rbp)
	addl	%r15d, -84(%rbp)
	movl	-84(%rbp), %esi
	movl	%esi, -84(%rbp)
	subl	-84(%rbp), %r15d
	addl	%r14d, -88(%rbp)
	movl	-88(%rbp), %esi
	movl	%esi, -88(%rbp)
	subl	-88(%rbp), %r14d
	addl	%r13d, -92(%rbp)
	movl	-92(%rbp), %esi
	movl	%esi, -92(%rbp)
	subl	-92(%rbp), %r13d
	addl	%r12d, -96(%rbp)
	movl	-96(%rbp), %esi
	movl	%esi, -96(%rbp)
	subl	-96(%rbp), %r12d
	addl	%ebx, -100(%rbp)
	movl	-100(%rbp), %esi
	movl	%esi, -100(%rbp)
	subl	-100(%rbp), %ebx
	addl	%edx, %eax
	subl	%eax, %edx
	movl	%edx, -108(%rbp)
	movl	-112(%rbp), %esi
	addl	%esi, %ecx
	subl	%ecx, %esi
	addl	%r8d, %edi
	subl	%edi, %r8d
	addl	%r10d, %r9d
	subl	%r9d, %r10d
	movl	-104(%rbp), %edx
	addl	%edx, %r11d
	subl	%r11d, %edx
	movl	%edx, -104(%rbp)
	addl	%r15d, -84(%rbp)
	movl	-84(%rbp), %edx
	movl	%edx, -84(%rbp)
	subl	-84(%rbp), %r15d
	addl	%r14d, -88(%rbp)
	movl	-88(%rbp), %edx
	movl	%edx, -88(%rbp)
	subl	-88(%rbp), %r14d
	addl	%r13d, -92(%rbp)
	movl	-92(%rbp), %edx
	movl	%edx, -92(%rbp)
	subl	-92(%rbp), %r13d
	addl	%r12d, -96(%rbp)
	movl	-96(%rbp), %edx
	movl	%edx, -96(%rbp)
	subl	-96(%rbp), %r12d
	addl	%ebx, -100(%rbp)
	movl	-100(%rbp), %edx
	movl	%edx, -100(%rbp)
	subl	-100(%rbp), %ebx
	movl	-108(%rbp), %edx
	addl	%edx, %eax
	subl	%eax, %edx
	addl	%esi, %ecx
	subl	%ecx, %esi
	movl	%esi, -112(%rbp)
	addl	%r8d, %edi
	subl	%edi, %r8d
	addl	%r10d, %r9d
	subl	%r9d, %r10d
	movl	-104(%rbp), %esi
	addl	%esi, %r11d
	subl	%r11d, %esi
	movl	%esi, -104(%rbp)
	addl	%r15d, -84(%rbp)
	movl	-84(%rbp), %esi
	movl	%esi, -84(%rbp)
	subl	-84(%rbp), %r15d
	addl	%r14d, -88(%rbp)
	movl	-88(%rbp), %esi
	movl	%esi, -88(%rbp)
	subl	-88(%rbp), %r14d
	addl	%r13d, -92(%rbp)
	movl	-92(%rbp), %esi
	movl	%esi, -92(%rbp)
	subl	-92(%rbp), %r13d
	addl	%r12d, -96(%rbp)
	movl	-96(%rbp), %esi
	movl	%esi, -96(%rbp)
	subl	-96(%rbp), %r12d
	addl	%ebx, -100(%rbp)
	movl	-100(%rbp), %esi
	movl	%esi, -100(%rbp)
	subl	-100(%rbp), %ebx
	addl	%edx, %eax
	subl	%eax, %edx
	movl	%edx, -108(%rbp)
	movl	-112(%rbp), %esi
	addl	%esi, %ecx
	subl	%ecx, %esi
	addl	%r8d, %edi
	subl	%edi, %r8d
	addl	%r10d, %r9d
	subl	%r9d, %r10d
	movl	-104(%rbp), %edx
	addl	%edx, %r11d
	subl	%r11d, %edx
	movl	%edx, -104(%rbp)
	addl	%r15d, -84(%rbp)
	movl	-84(%rbp), %edx
	movl	%edx, -84(%rbp)
	subl	-84(%rbp), %r15d
	addl	%r14d, -88(%rbp)
	movl	-88(%rbp), %edx
	movl	%edx, -88(%rbp)
	subl	-88(%rbp), %r14d
	addl	%r13d, -92(%rbp)
	movl	-92(%rbp), %edx
	movl	%edx, -92(%rbp)
	subl	-92(%rbp), %r13d
	addl	%r12d, -96(%rbp)
	movl	-96(%rbp), %edx
	movl	%edx, -96(%rbp)
	subl	-96(%rbp), %r12d
	addl	%ebx, -100(%rbp)
	movl	-100(%rbp), %edx
	movl	%edx, -100(%rbp)
	subl	-100(%rbp), %ebx
	movl	-108(%rbp), %edx
	addl	%edx, %eax
	subl	%eax, %edx
	addl	%esi, %ecx
	subl	%ecx, %esi
	movl	%esi, -112(%rbp)
	addl	%r8d, %edi
	subl	%edi, %r8d
	addl	%r10d, %r9d
	subl	%r9d, %r10d
	movl	-104(%rbp), %esi
	addl	%esi, %r11d
	subl	%r11d, %esi
	movl	%esi, -104(%rbp)
	addl	%r15d, -84(%rbp)
	movl	-84(%rbp), %esi
	movl	%esi, -84(%rbp)
	subl	-84(%rbp), %r15d
	addl	%r14d, -88(%rbp)
	movl	-88(%rbp), %esi
	movl	%esi, -88(%rbp)
	subl	-88(%rbp), %r14d
	addl	%r13d, -92(%rbp)
	movl	-92(%rbp), %esi
	movl	%esi, -92(%rbp)
	subl	-92(%rbp), %r13d
	addl	%r12d, -96(%rbp)
	movl	-96(%rbp), %esi
	movl	%esi, -96(%rbp)
	subl	-96(%rbp), %r12d
	addl	%ebx, -100(%rbp)
	movl	-100(%rbp), %esi
	movl	%esi, -100(%rbp)
	subl	-100(%rbp), %ebx
	addl	%edx, %eax
	subl	%eax, %edx
	movl	%edx, -108(%rbp)
	movl	-112(%rbp), %esi
	addl	%esi, %ecx
	subl	%ecx, %esi
	addl	%r8d, %edi
	subl	%edi, %r8d
	addl	%r10d, %r9d
	subl	%r9d, %r10d
	movl	-104(%rbp), %edx
	addl	%edx, %r11d
	subl	%r11d, %edx
	movl	%edx, -104(%rbp)
	addl	%r15d, -84(%rbp)
	movl	-84(%rbp), %edx
	movl	%edx, -84(%rbp)
	subl	-84(%rbp), %r15d
	addl	%r14d, -88(%rbp)
	movl	-88(%rbp), %edx
	movl	%edx, -88(%rbp)
	subl	-88(%rbp), %r14d
	addl	%r13d, -92(%rbp)
	movl	-92(%rbp), %edx
	movl	%edx, -92(%rbp)
	subl	-92(%rbp), %r13d
	addl	%r12d, -96(%rbp)
	movl	-96(%rbp), %edx
	movl	%edx, -96(%rbp)
	subl	-96(%rbp), %r12d
	addl	%ebx, -100(%rbp)
	movl	-100(%rbp), %edx
	movl	%edx, -100(%rbp)
	subl	-100(%rbp), %ebx
	movl	-108(%rbp), %edx
	addl	%edx, %eax
	subl	%eax, %edx
	addl	%esi, %ecx
	subl	%ecx, %esi
	movl	%esi, -112(%rbp)
	addl	%r8d, %edi
	subl	%edi, %r8d
	addl	%r10d, %r9d
	subl	%r9d, %r10d
	movl	-104(%rbp), %esi
	addl	%esi, %r11d
	subl	%r11d, %esi
	movl	%esi, -104(%rbp)
	addl	%r15d, -84(%rbp)
	movl	-84(%rbp), %esi
	movl	%esi, -84(%rbp)
	subl	-84(%rbp), %r15d
	addl	%r14d, -88(%rbp)
	movl	-88(%rbp), %esi
	movl	%esi, -88(%rbp)
	subl	-88(%rbp), %r14d
	addl	%r13d, -92(%rbp)
	movl	-92(%rbp), %esi
	movl	%esi, -92(%rbp)
	subl	-92(%rbp), %r13d
	addl	%r12d, -96(%rbp)
	movl	-96(%rbp), %esi
	movl	%esi, -96(%rbp)
	subl	-96(%rbp), %r12d
	addl	%ebx, -100(%rbp)
	movl	-100(%rbp), %esi
	movl	%esi, -100(%rbp)
	subl	-100(%rbp), %ebx
	addl	%edx, %eax
	subl	%eax, %edx
	movl	%edx, -108(%rbp)
	movl	-112(%rbp), %esi
	addl	%esi, %ecx
	subl	%ecx, %esi
	addl	%r8d, %edi
	subl	%edi, %r8d
	addl	%r10d, %r9d
	subl	%r9d, %r10d
	movl	-104(%rbp), %edx
	addl	%edx, %r11d
	subl	%r11d, %edx
	movl	%edx, -104(%rbp)
	addl	%r15d, -84(%rbp)
	movl	-84(%rbp), %edx
	movl	%edx, -84(%rbp)
	subl	-84(%rbp), %r15d
	addl	%r14d, -88(%rbp)
	movl	-88(%rbp), %edx
	movl	%edx, -88(%rbp)
	subl	-88(%rbp), %r14d
	addl	%r13d, -92(%rbp)
	movl	-92(%rbp), %edx
	movl	%edx, -92(%rbp)
	subl	-92(%rbp), %r13d
	addl	%r12d, -96(%rbp)
	movl	-96(%rbp), %edx
	movl	%edx, -96(%rbp)
	subl	-96(%rbp), %r12d
	addl	%ebx, -100(%rbp)
	movl	-100(%rbp), %edx
	movl	%edx, -100(%rbp)
	subl	-100(%rbp), %ebx
	movl	-108(%rbp), %edx
	addl	%edx, %eax
	movl	%eax, -116(%rbp)
	subl	%eax, %edx
	movl	%edx, -108(%rbp)
	addl	%esi, %ecx
	movl	%ecx, -120(%rbp)
	subl	%ecx, %esi
	movl	%esi, -112(%rbp)
	addl	%r8d, %edi
	movl	%edi, -124(%rbp)
	subl	%edi, %r8d
	movl	%r8d, -136(%rbp)
	addl	%r10d, %r9d
	movl	%r9d, -128(%rbp)
	subl	%r9d, %r10d
	movl	%r10d, -140(%rbp)
	movl	-104(%rbp), %eax
	addl	%eax, %r11d
	movl	%r11d, -132(%rbp)
	subl	%r11d, %eax
	movl	%eax, -104(%rbp)
	addl	%r15d, -84(%rbp)
	movl	-84(%rbp), %edx
	movl	%edx, -84(%rbp)
	subl	%edx, %r15d
	addl	%r14d, -88(%rbp)
	movl	-88(%rbp), %edx
	movl	%edx, -88(%rbp)
	subl	%edx, %r14d
	addl	%r13d, -92(%rbp)
	movl	-92(%rbp), %edx
	movl	%edx, -92(%rbp)
	subl	%edx, %r13d
	addl	%r12d, -96(%rbp)
	movl	-96(%rbp), %edx
	movl	%edx, -96(%rbp)
	subl	%edx, %r12d
	addl	%ebx, -100(%rbp)
	movl	-100(%rbp), %edx
	movl	%edx, -100(%rbp)
	subl	%edx, %ebx
.L94:
	movq	-152(%rbp), %rax
	leaq	-1(%rax), %rcx
	movq	%rcx, -152(%rbp)
	testq	%rax, %rax
	jne	.L95
	movl	-116(%rbp), %eax
	addl	-108(%rbp), %eax
	movl	%eax, %edi
	call	use_int@PLT
	movl	-120(%rbp), %eax
	addl	-112(%rbp), %eax
	movl	%eax, %edi
	call	use_int@PLT
	movl	-124(%rbp), %eax
	addl	-136(%rbp), %eax
	movl	%eax, %edi
	call	use_int@PLT
	movl	-128(%rbp), %eax
	addl	-140(%rbp), %eax
	movl	%eax, %edi
	call	use_int@PLT
	movl	-132(%rbp), %eax
	addl	-104(%rbp), %eax
	movl	%eax, %edi
	call	use_int@PLT
	movl	-84(%rbp), %eax
	addl	%r15d, %eax
	movl	%eax, %edi
	call	use_int@PLT
	movl	-88(%rbp), %eax
	addl	%r14d, %eax
	movl	%eax, %edi
	call	use_int@PLT
	movl	-92(%rbp), %eax
	addl	%r13d, %eax
	movl	%eax, %edi
	call	use_int@PLT
	movl	-96(%rbp), %eax
	addl	%r12d, %eax
	movl	%eax, %edi
	call	use_int@PLT
	movl	-100(%rbp), %eax
	addl	%ebx, %eax
	movl	%eax, %edi
	call	use_int@PLT
	addq	$120, %rsp
	popq	%rbx
	popq	%r12
	popq	%r13
	popq	%r14
	popq	%r15
	popq	%rbp
	.cfi_def_cfa 7, 8
	ret
	.cfi_endproc
.LFE34:
	.size	integer_add_9, .-integer_add_9
	.globl	integer_add_10
	.type	integer_add_10, @function
integer_add_10:
.LFB35:
	.cfi_startproc
	endbr64
	pushq	%rbp
	.cfi_def_cfa_offset 16
	.cfi_offset 6, -16
	movq	%rsp, %rbp
	.cfi_def_cfa_register 6
	pushq	%r15
	pushq	%r14
	pushq	%r13
	pushq	%r12
	pushq	%rbx
	subq	$120, %rsp
	.cfi_offset 15, -24
	.cfi_offset 14, -32
	.cfi_offset 13, -40
	.cfi_offset 12, -48
	.cfi_offset 3, -56
	movq	%rdi, -72(%rbp)
	movq	%rsi, -80(%rbp)
	movq	-72(%rbp), %rax
	movq	%rax, -160(%rbp)
	movq	-80(%rbp), %rax
	movq	%rax, -56(%rbp)
	movq	-56(%rbp), %rax
	movl	12(%rax), %eax
	addl	$57, %eax
	movl	%eax, -128(%rbp)
	movq	-56(%rbp), %rax
	movl	12(%rax), %eax
	addl	$31, %eax
	movl	%eax, -120(%rbp)
	movq	-56(%rbp), %rax
	movl	16(%rax), %eax
	addl	$57, %eax
	movl	%eax, -132(%rbp)
	movq	-56(%rbp), %rax
	movl	16(%rax), %eax
	addl	$31, %eax
	movl	%eax, -124(%rbp)
	movq	-56(%rbp), %rax
	movl	20(%rax), %eax
	addl	$57, %eax
	movl	%eax, -136(%rbp)
	movq	-56(%rbp), %rax
	movl	20(%rax), %eax
	addl	$31, %eax
	movl	%eax, -108(%rbp)
	movq	-56(%rbp), %rax
	movl	24(%rax), %eax
	addl	$57, %eax
	movl	%eax, -140(%rbp)
	movq	-56(%rbp), %rax
	movl	24(%rax), %eax
	addl	$31, %eax
	movl	%eax, -148(%rbp)
	movq	-56(%rbp), %rax
	movl	28(%rax), %eax
	addl	$57, %eax
	movl	%eax, -144(%rbp)
	movq	-56(%rbp), %rax
	movl	28(%rax), %eax
	addl	$31, %eax
	movl	%eax, -112(%rbp)
	movq	-56(%rbp), %rax
	movl	32(%rax), %eax
	addl	$57, %eax
	movl	%eax, -104(%rbp)
	movq	-56(%rbp), %rax
	movl	32(%rax), %eax
	addl	$31, %eax
	movl	%eax, -116(%rbp)
	movq	-56(%rbp), %rax
	movl	36(%rax), %eax
	addl	$57, %eax
	movl	%eax, -84(%rbp)
	movq	-56(%rbp), %rax
	movl	36(%rax), %eax
	leal	31(%rax), %r15d
	movq	-56(%rbp), %rax
	movl	40(%rax), %eax
	addl	$57, %eax
	movl	%eax, -88(%rbp)
	movq	-56(%rbp), %rax
	movl	40(%rax), %eax
	leal	31(%rax), %r14d
	movq	-56(%rbp), %rax
	movl	44(%rax), %eax
	addl	$57, %eax
	movl	%eax, -92(%rbp)
	movq	-56(%rbp), %rax
	movl	44(%rax), %eax
	leal	31(%rax), %r13d
	movq	-56(%rbp), %rax
	movl	48(%rax), %eax
	addl	$57, %eax
	movl	%eax, -96(%rbp)
	movq	-56(%rbp), %rax
	movl	48(%rax), %eax
	leal	31(%rax), %r12d
	movq	-56(%rbp), %rax
	movl	52(%rax), %eax
	addl	$57, %eax
	movl	%eax, -100(%rbp)
	movq	-56(%rbp), %rax
	movl	52(%rax), %eax
	leal	31(%rax), %ebx
	jmp	.L97
.L98:
	movl	-120(%rbp), %edx
	addl	%edx, -128(%rbp)
	movl	-128(%rbp), %eax
	subl	%eax, %edx
	movl	%edx, -120(%rbp)
	movl	-124(%rbp), %esi
	addl	%esi, -132(%rbp)
	movl	-132(%rbp), %ecx
	subl	%ecx, %esi
	movl	-108(%rbp), %r8d
	addl	%r8d, -136(%rbp)
	movl	-136(%rbp), %edi
	subl	%edi, %r8d
	movl	%r8d, -108(%rbp)
	movl	-148(%rbp), %r10d
	addl	%r10d, -140(%rbp)
	movl	-140(%rbp), %r9d
	subl	%r9d, %r10d
	movl	-112(%rbp), %edx
	addl	%edx, -144(%rbp)
	movl	-144(%rbp), %r11d
	subl	%r11d, %edx
	movl	%edx, -112(%rbp)
	movl	-116(%rbp), %r8d
	addl	%r8d, -104(%rbp)
	movl	-104(%rbp), %edx
	movl	%edx, -104(%rbp)
	subl	%edx, %r8d
	movl	%r8d, -116(%rbp)
	addl	%r15d, -84(%rbp)
	movl	-84(%rbp), %r8d
	movl	%r8d, -84(%rbp)
	subl	-84(%rbp), %r15d
	addl	%r14d, -88(%rbp)
	movl	-88(%rbp), %edx
	movl	%edx, -88(%rbp)
	subl	-88(%rbp), %r14d
	addl	%r13d, -92(%rbp)
	movl	-92(%rbp), %r8d
	movl	%r8d, -92(%rbp)
	subl	-92(%rbp), %r13d
	addl	%r12d, -96(%rbp)
	movl	-96(%rbp), %edx
	movl	%edx, -96(%rbp)
	subl	-96(%rbp), %r12d
	addl	%ebx, -100(%rbp)
	movl	-100(%rbp), %edx
	movl	%edx, -100(%rbp)
	subl	-100(%rbp), %ebx
	movl	-120(%rbp), %edx
	addl	%edx, %eax
	subl	%eax, %edx
	addl	%esi, %ecx
	subl	%ecx, %esi
	movl	%esi, -124(%rbp)
	movl	-108(%rbp), %r8d
	addl	%r8d, %edi
	subl	%edi, %r8d
	movl	%r8d, -108(%rbp)
	addl	%r10d, %r9d
	subl	%r9d, %r10d
	movl	-112(%rbp), %esi
	addl	%esi, %r11d
	subl	%r11d, %esi
	movl	%esi, -112(%rbp)
	movl	-116(%rbp), %r8d
	addl	%r8d, -104(%rbp)
	movl	-104(%rbp), %esi
	movl	%esi, -104(%rbp)
	subl	%esi, %r8d
	movl	%r8d, -116(%rbp)
	addl	%r15d, -84(%rbp)
	movl	-84(%rbp), %r8d
	movl	%r8d, -84(%rbp)
	subl	-84(%rbp), %r15d
	addl	%r14d, -88(%rbp)
	movl	-88(%rbp), %esi
	movl	%esi, -88(%rbp)
	subl	-88(%rbp), %r14d
	addl	%r13d, -92(%rbp)
	movl	-92(%rbp), %r8d
	movl	%r8d, -92(%rbp)
	subl	-92(%rbp), %r13d
	addl	%r12d, -96(%rbp)
	movl	-96(%rbp), %esi
	movl	%esi, -96(%rbp)
	subl	-96(%rbp), %r12d
	addl	%ebx, -100(%rbp)
	movl	-100(%rbp), %esi
	movl	%esi, -100(%rbp)
	subl	-100(%rbp), %ebx
	addl	%edx, %eax
	subl	%eax, %edx
	movl	%edx, -120(%rbp)
	movl	-124(%rbp), %esi
	addl	%esi, %ecx
	subl	%ecx, %esi
	movl	-108(%rbp), %r8d
	addl	%r8d, %edi
	subl	%edi, %r8d
	movl	%r8d, -108(%rbp)
	addl	%r10d, %r9d
	subl	%r9d, %r10d
	movl	-112(%rbp), %edx
	addl	%edx, %r11d
	subl	%r11d, %edx
	movl	%edx, -112(%rbp)
	movl	-116(%rbp), %r8d
	addl	%r8d, -104(%rbp)
	movl	-104(%rbp), %edx
	movl	%edx, -104(%rbp)
	subl	%edx, %r8d
	movl	%r8d, -116(%rbp)
	addl	%r15d, -84(%rbp)
	movl	-84(%rbp), %r8d
	movl	%r8d, -84(%rbp)
	subl	-84(%rbp), %r15d
	addl	%r14d, -88(%rbp)
	movl	-88(%rbp), %edx
	movl	%edx, -88(%rbp)
	subl	-88(%rbp), %r14d
	addl	%r13d, -92(%rbp)
	movl	-92(%rbp), %r8d
	movl	%r8d, -92(%rbp)
	subl	-92(%rbp), %r13d
	addl	%r12d, -96(%rbp)
	movl	-96(%rbp), %edx
	movl	%edx, -96(%rbp)
	subl	-96(%rbp), %r12d
	addl	%ebx, -100(%rbp)
	movl	-100(%rbp), %edx
	movl	%edx, -100(%rbp)
	subl	-100(%rbp), %ebx
	movl	-120(%rbp), %edx
	addl	%edx, %eax
	subl	%eax, %edx
	addl	%esi, %ecx
	subl	%ecx, %esi
	movl	%esi, -124(%rbp)
	movl	-108(%rbp), %r8d
	addl	%r8d, %edi
	subl	%edi, %r8d
	movl	%r8d, -108(%rbp)
	addl	%r10d, %r9d
	subl	%r9d, %r10d
	movl	-112(%rbp), %esi
	addl	%esi, %r11d
	subl	%r11d, %esi
	movl	%esi, -112(%rbp)
	movl	-116(%rbp), %r8d
	addl	%r8d, -104(%rbp)
	movl	-104(%rbp), %esi
	movl	%esi, -104(%rbp)
	subl	%esi, %r8d
	movl	%r8d, -116(%rbp)
	addl	%r15d, -84(%rbp)
	movl	-84(%rbp), %r8d
	movl	%r8d, -84(%rbp)
	subl	-84(%rbp), %r15d
	addl	%r14d, -88(%rbp)
	movl	-88(%rbp), %esi
	movl	%esi, -88(%rbp)
	subl	-88(%rbp), %r14d
	addl	%r13d, -92(%rbp)
	movl	-92(%rbp), %r8d
	movl	%r8d, -92(%rbp)
	subl	-92(%rbp), %r13d
	addl	%r12d, -96(%rbp)
	movl	-96(%rbp), %esi
	movl	%esi, -96(%rbp)
	subl	-96(%rbp), %r12d
	addl	%ebx, -100(%rbp)
	movl	-100(%rbp), %esi
	movl	%esi, -100(%rbp)
	subl	-100(%rbp), %ebx
	addl	%edx, %eax
	subl	%eax, %edx
	movl	%edx, -120(%rbp)
	movl	-124(%rbp), %esi
	addl	%esi, %ecx
	subl	%ecx, %esi
	movl	-108(%rbp), %r8d
	addl	%r8d, %edi
	subl	%edi, %r8d
	movl	%r8d, -108(%rbp)
	addl	%r10d, %r9d
	subl	%r9d, %r10d
	movl	-112(%rbp), %edx
	addl	%edx, %r11d
	subl	%r11d, %edx
	movl	%edx, -112(%rbp)
	movl	-116(%rbp), %r8d
	addl	%r8d, -104(%rbp)
	movl	-104(%rbp), %edx
	movl	%edx, -104(%rbp)
	subl	%edx, %r8d
	movl	%r8d, -116(%rbp)
	addl	%r15d, -84(%rbp)
	movl	-84(%rbp), %r8d
	movl	%r8d, -84(%rbp)
	subl	-84(%rbp), %r15d
	addl	%r14d, -88(%rbp)
	movl	-88(%rbp), %edx
	movl	%edx, -88(%rbp)
	subl	-88(%rbp), %r14d
	addl	%r13d, -92(%rbp)
	movl	-92(%rbp), %r8d
	movl	%r8d, -92(%rbp)
	subl	-92(%rbp), %r13d
	addl	%r12d, -96(%rbp)
	movl	-96(%rbp), %edx
	movl	%edx, -96(%rbp)
	subl	-96(%rbp), %r12d
	addl	%ebx, -100(%rbp)
	movl	-100(%rbp), %edx
	movl	%edx, -100(%rbp)
	subl	-100(%rbp), %ebx
	movl	-120(%rbp), %edx
	addl	%edx, %eax
	subl	%eax, %edx
	addl	%esi, %ecx
	subl	%ecx, %esi
	movl	%esi, -124(%rbp)
	movl	-108(%rbp), %r8d
	addl	%r8d, %edi
	subl	%edi, %r8d
	movl	%r8d, -108(%rbp)
	addl	%r10d, %r9d
	subl	%r9d, %r10d
	movl	-112(%rbp), %esi
	addl	%esi, %r11d
	subl	%r11d, %esi
	movl	%esi, -112(%rbp)
	movl	-116(%rbp), %r8d
	addl	%r8d, -104(%rbp)
	movl	-104(%rbp), %esi
	movl	%esi, -104(%rbp)
	subl	%esi, %r8d
	movl	%r8d, -116(%rbp)
	addl	%r15d, -84(%rbp)
	movl	-84(%rbp), %r8d
	movl	%r8d, -84(%rbp)
	subl	-84(%rbp), %r15d
	addl	%r14d, -88(%rbp)
	movl	-88(%rbp), %esi
	movl	%esi, -88(%rbp)
	subl	-88(%rbp), %r14d
	addl	%r13d, -92(%rbp)
	movl	-92(%rbp), %r8d
	movl	%r8d, -92(%rbp)
	subl	-92(%rbp), %r13d
	addl	%r12d, -96(%rbp)
	movl	-96(%rbp), %esi
	movl	%esi, -96(%rbp)
	subl	-96(%rbp), %r12d
	addl	%ebx, -100(%rbp)
	movl	-100(%rbp), %esi
	movl	%esi, -100(%rbp)
	subl	-100(%rbp), %ebx
	addl	%edx, %eax
	subl	%eax, %edx
	movl	%edx, -120(%rbp)
	movl	-124(%rbp), %esi
	addl	%esi, %ecx
	subl	%ecx, %esi
	movl	-108(%rbp), %r8d
	addl	%r8d, %edi
	subl	%edi, %r8d
	movl	%r8d, -108(%rbp)
	addl	%r10d, %r9d
	subl	%r9d, %r10d
	movl	-112(%rbp), %edx
	addl	%edx, %r11d
	subl	%r11d, %edx
	movl	%edx, -112(%rbp)
	movl	-116(%rbp), %r8d
	addl	%r8d, -104(%rbp)
	movl	-104(%rbp), %edx
	movl	%edx, -104(%rbp)
	subl	%edx, %r8d
	movl	%r8d, -116(%rbp)
	addl	%r15d, -84(%rbp)
	movl	-84(%rbp), %r8d
	movl	%r8d, -84(%rbp)
	subl	-84(%rbp), %r15d
	addl	%r14d, -88(%rbp)
	movl	-88(%rbp), %edx
	movl	%edx, -88(%rbp)
	subl	-88(%rbp), %r14d
	addl	%r13d, -92(%rbp)
	movl	-92(%rbp), %r8d
	movl	%r8d, -92(%rbp)
	subl	-92(%rbp), %r13d
	addl	%r12d, -96(%rbp)
	movl	-96(%rbp), %edx
	movl	%edx, -96(%rbp)
	subl	-96(%rbp), %r12d
	addl	%ebx, -100(%rbp)
	movl	-100(%rbp), %edx
	movl	%edx, -100(%rbp)
	subl	-100(%rbp), %ebx
	movl	-120(%rbp), %edx
	addl	%edx, %eax
	subl	%eax, %edx
	addl	%esi, %ecx
	subl	%ecx, %esi
	movl	%esi, -124(%rbp)
	movl	-108(%rbp), %r8d
	addl	%r8d, %edi
	subl	%edi, %r8d
	movl	%r8d, -108(%rbp)
	addl	%r10d, %r9d
	subl	%r9d, %r10d
	movl	-112(%rbp), %esi
	addl	%esi, %r11d
	subl	%r11d, %esi
	movl	%esi, -112(%rbp)
	movl	-116(%rbp), %r8d
	addl	%r8d, -104(%rbp)
	movl	-104(%rbp), %esi
	movl	%esi, -104(%rbp)
	subl	%esi, %r8d
	movl	%r8d, -116(%rbp)
	addl	%r15d, -84(%rbp)
	movl	-84(%rbp), %r8d
	movl	%r8d, -84(%rbp)
	subl	-84(%rbp), %r15d
	addl	%r14d, -88(%rbp)
	movl	-88(%rbp), %esi
	movl	%esi, -88(%rbp)
	subl	-88(%rbp), %r14d
	addl	%r13d, -92(%rbp)
	movl	-92(%rbp), %r8d
	movl	%r8d, -92(%rbp)
	subl	-92(%rbp), %r13d
	addl	%r12d, -96(%rbp)
	movl	-96(%rbp), %esi
	movl	%esi, -96(%rbp)
	subl	-96(%rbp), %r12d
	addl	%ebx, -100(%rbp)
	movl	-100(%rbp), %esi
	movl	%esi, -100(%rbp)
	subl	-100(%rbp), %ebx
	addl	%edx, %eax
	subl	%eax, %edx
	movl	%edx, -120(%rbp)
	movl	-124(%rbp), %esi
	addl	%esi, %ecx
	subl	%ecx, %esi
	movl	-108(%rbp), %r8d
	addl	%r8d, %edi
	subl	%edi, %r8d
	movl	%r8d, -108(%rbp)
	addl	%r10d, %r9d
	subl	%r9d, %r10d
	movl	-112(%rbp), %edx
	addl	%edx, %r11d
	subl	%r11d, %edx
	movl	%edx, -112(%rbp)
	movl	-116(%rbp), %r8d
	addl	%r8d, -104(%rbp)
	movl	-104(%rbp), %edx
	movl	%edx, -104(%rbp)
	subl	%edx, %r8d
	movl	%r8d, -116(%rbp)
	addl	%r15d, -84(%rbp)
	movl	-84(%rbp), %r8d
	movl	%r8d, -84(%rbp)
	subl	-84(%rbp), %r15d
	addl	%r14d, -88(%rbp)
	movl	-88(%rbp), %r8d
	movl	%r8d, -88(%rbp)
	subl	-88(%rbp), %r14d
	addl	%r13d, -92(%rbp)
	movl	-92(%rbp), %edx
	movl	%edx, -92(%rbp)
	subl	-92(%rbp), %r13d
	addl	%r12d, -96(%rbp)
	movl	-96(%rbp), %r8d
	movl	%r8d, -96(%rbp)
	subl	-96(%rbp), %r12d
	addl	%ebx, -100(%rbp)
	movl	-100(%rbp), %edx
	movl	%edx, -100(%rbp)
	subl	-100(%rbp), %ebx
	movl	-120(%rbp), %edx
	addl	%edx, %eax
	movl	%eax, -128(%rbp)
	subl	%eax, %edx
	movl	%edx, -120(%rbp)
	addl	%esi, %ecx
	movl	%ecx, -132(%rbp)
	subl	%ecx, %esi
	movl	%esi, -124(%rbp)
	movl	-108(%rbp), %r8d
	addl	%r8d, %edi
	movl	%edi, -136(%rbp)
	subl	%edi, %r8d
	movl	%r8d, -108(%rbp)
	addl	%r10d, %r9d
	movl	%r9d, -140(%rbp)
	subl	%r9d, %r10d
	movl	%r10d, -148(%rbp)
	movl	-112(%rbp), %eax
	addl	%eax, %r11d
	movl	%r11d, -144(%rbp)
	subl	%r11d, %eax
	movl	%eax, -112(%rbp)
	movl	-116(%rbp), %eax
	addl	%eax, -104(%rbp)
	movl	-104(%rbp), %edx
	movl	%edx, -104(%rbp)
	subl	%edx, %eax
	movl	%eax, -116(%rbp)
	addl	%r15d, -84(%rbp)
	movl	-84(%rbp), %r8d
	movl	%r8d, -84(%rbp)
	subl	%r8d, %r15d
	addl	%r14d, -88(%rbp)
	movl	-88(%rbp), %r8d
	movl	%r8d, -88(%rbp)
	subl	%r8d, %r14d
	addl	%r13d, -92(%rbp)
	movl	-92(%rbp), %edx
	movl	%edx, -92(%rbp)
	subl	%edx, %r13d
	addl	%r12d, -96(%rbp)
	movl	-96(%rbp), %r8d
	movl	%r8d, -96(%rbp)
	subl	%r8d, %r12d
	addl	%ebx, -100(%rbp)
	movl	-100(%rbp), %edx
	movl	%edx, -100(%rbp)
	subl	%edx, %ebx
.L97:
	movq	-160(%rbp), %rax
	leaq	-1(%rax), %rcx
	movq	%rcx, -160(%rbp)
	testq	%rax, %rax
	jne	.L98
	movl	-128(%rbp), %eax
	addl	-120(%rbp), %eax
	movl	%eax, %edi
	call	use_int@PLT
	movl	-132(%rbp), %eax
	addl	-124(%rbp), %eax
	movl	%eax, %edi
	call	use_int@PLT
	movl	-136(%rbp), %eax
	addl	-108(%rbp), %eax
	movl	%eax, %edi
	call	use_int@PLT
	movl	-140(%rbp), %eax
	addl	-148(%rbp), %eax
	movl	%eax, %edi
	call	use_int@PLT
	movl	-144(%rbp), %eax
	addl	-112(%rbp), %eax
	movl	%eax, %edi
	call	use_int@PLT
	movl	-104(%rbp), %eax
	addl	-116(%rbp), %eax
	movl	%eax, %edi
	call	use_int@PLT
	movl	-84(%rbp), %eax
	addl	%r15d, %eax
	movl	%eax, %edi
	call	use_int@PLT
	movl	-88(%rbp), %eax
	addl	%r14d, %eax
	movl	%eax, %edi
	call	use_int@PLT
	movl	-92(%rbp), %eax
	addl	%r13d, %eax
	movl	%eax, %edi
	call	use_int@PLT
	movl	-96(%rbp), %eax
	addl	%r12d, %eax
	movl	%eax, %edi
	call	use_int@PLT
	movl	-100(%rbp), %eax
	addl	%ebx, %eax
	movl	%eax, %edi
	call	use_int@PLT
	addq	$120, %rsp
	popq	%rbx
	popq	%r12
	popq	%r13
	popq	%r14
	popq	%r15
	popq	%rbp
	.cfi_def_cfa 7, 8
	ret
	.cfi_endproc
.LFE35:
	.size	integer_add_10, .-integer_add_10
	.globl	integer_add_11
	.type	integer_add_11, @function
integer_add_11:
.LFB36:
	.cfi_startproc
	endbr64
	pushq	%rbp
	.cfi_def_cfa_offset 16
	.cfi_offset 6, -16
	movq	%rsp, %rbp
	.cfi_def_cfa_register 6
	pushq	%r15
	pushq	%r14
	pushq	%r13
	pushq	%r12
	pushq	%rbx
	subq	$136, %rsp
	.cfi_offset 15, -24
	.cfi_offset 14, -32
	.cfi_offset 13, -40
	.cfi_offset 12, -48
	.cfi_offset 3, -56
	movq	%rdi, -72(%rbp)
	movq	%rsi, -80(%rbp)
	movq	-72(%rbp), %rax
	movq	%rax, -168(%rbp)
	movq	-80(%rbp), %rax
	movq	%rax, -56(%rbp)
	movq	-56(%rbp), %rax
	movl	12(%rax), %eax
	addl	$57, %eax
	movl	%eax, -136(%rbp)
	movq	-56(%rbp), %rax
	movl	12(%rax), %eax
	addl	$31, %eax
	movl	%eax, -128(%rbp)
	movq	-56(%rbp), %rax
	movl	16(%rax), %eax
	addl	$57, %eax
	movl	%eax, -140(%rbp)
	movq	-56(%rbp), %rax
	movl	16(%rax), %eax
	addl	$31, %eax
	movl	%eax, -132(%rbp)
	movq	-56(%rbp), %rax
	movl	20(%rax), %eax
	addl	$57, %eax
	movl	%eax, -144(%rbp)
	movq	-56(%rbp), %rax
	movl	20(%rax), %eax
	addl	$31, %eax
	movl	%eax, -112(%rbp)
	movq	-56(%rbp), %rax
	movl	24(%rax), %eax
	addl	$57, %eax
	movl	%eax, -148(%rbp)
	movq	-56(%rbp), %rax
	movl	24(%rax), %eax
	addl	$31, %eax
	movl	%eax, -156(%rbp)
	movq	-56(%rbp), %rax
	movl	28(%rax), %eax
	addl	$57, %eax
	movl	%eax, -152(%rbp)
	movq	-56(%rbp), %rax
	movl	28(%rax), %eax
	addl	$31, %eax
	movl	%eax, -116(%rbp)
	movq	-56(%rbp), %rax
	movl	32(%rax), %eax
	addl	$57, %eax
	movl	%eax, -104(%rbp)
	movq	-56(%rbp), %rax
	movl	32(%rax), %eax
	addl	$31, %eax
	movl	%eax, -120(%rbp)
	movq	-56(%rbp), %rax
	movl	36(%rax), %eax
	addl	$57, %eax
	movl	%eax, -108(%rbp)
	movq	-56(%rbp), %rax
	movl	36(%rax), %eax
	addl	$31, %eax
	movl	%eax, -124(%rbp)
	movq	-56(%rbp), %rax
	movl	40(%rax), %eax
	addl	$57, %eax
	movl	%eax, -84(%rbp)
	movq	-56(%rbp), %rax
	movl	40(%rax), %eax
	leal	31(%rax), %r15d
	movq	-56(%rbp), %rax
	movl	44(%rax), %eax
	addl	$57, %eax
	movl	%eax, -88(%rbp)
	movq	-56(%rbp), %rax
	movl	44(%rax), %eax
	leal	31(%rax), %r14d
	movq	-56(%rbp), %rax
	movl	48(%rax), %eax
	addl	$57, %eax
	movl	%eax, -92(%rbp)
	movq	-56(%rbp), %rax
	movl	48(%rax), %eax
	leal	31(%rax), %r13d
	movq	-56(%rbp), %rax
	movl	52(%rax), %eax
	addl	$57, %eax
	movl	%eax, -96(%rbp)
	movq	-56(%rbp), %rax
	movl	52(%rax), %eax
	leal	31(%rax), %r12d
	movq	-56(%rbp), %rax
	movl	56(%rax), %eax
	addl	$57, %eax
	movl	%eax, -100(%rbp)
	movq	-56(%rbp), %rax
	movl	56(%rax), %eax
	leal	31(%rax), %ebx
	jmp	.L100
.L101:
	movl	-128(%rbp), %edx
	addl	%edx, -136(%rbp)
	movl	-136(%rbp), %eax
	subl	%eax, %edx
	movl	%edx, -128(%rbp)
	movl	-132(%rbp), %esi
	addl	%esi, -140(%rbp)
	movl	-140(%rbp), %ecx
	subl	%ecx, %esi
	movl	-112(%rbp), %r8d
	addl	%r8d, -144(%rbp)
	movl	-144(%rbp), %edi
	subl	%edi, %r8d
	movl	%r8d, -112(%rbp)
	movl	-156(%rbp), %r10d
	addl	%r10d, -148(%rbp)
	movl	-148(%rbp), %r9d
	subl	%r9d, %r10d
	movl	-116(%rbp), %edx
	addl	%edx, -152(%rbp)
	movl	-152(%rbp), %r11d
	subl	%r11d, %edx
	movl	%edx, -116(%rbp)
	movl	-120(%rbp), %r8d
	addl	%r8d, -104(%rbp)
	movl	-104(%rbp), %edx
	movl	%edx, -104(%rbp)
	subl	%edx, %r8d
	movl	%r8d, -120(%rbp)
	movl	-124(%rbp), %edx
	addl	%edx, -108(%rbp)
	movl	-108(%rbp), %r8d
	movl	%r8d, -108(%rbp)
	subl	%r8d, %edx
	movl	%edx, -124(%rbp)
	addl	%r15d, -84(%rbp)
	movl	-84(%rbp), %edx
	movl	%edx, -84(%rbp)
	subl	-84(%rbp), %r15d
	addl	%r14d, -88(%rbp)
	movl	-88(%rbp), %r8d
	movl	%r8d, -88(%rbp)
	subl	-88(%rbp), %r14d
	addl	%r13d, -92(%rbp)
	movl	-92(%rbp), %edx
	movl	%edx, -92(%rbp)
	subl	-92(%rbp), %r13d
	addl	%r12d, -96(%rbp)
	movl	-96(%rbp), %edx
	movl	%edx, -96(%rbp)
	subl	-96(%rbp), %r12d
	addl	%ebx, -100(%rbp)
	movl	-100(%rbp), %r8d
	movl	%r8d, -100(%rbp)
	subl	-100(%rbp), %ebx
	movl	-128(%rbp), %edx
	addl	%edx, %eax
	subl	%eax, %edx
	addl	%esi, %ecx
	subl	%ecx, %esi
	movl	%esi, -132(%rbp)
	movl	-112(%rbp), %r8d
	addl	%r8d, %edi
	subl	%edi, %r8d
	movl	%r8d, -112(%rbp)
	addl	%r10d, %r9d
	subl	%r9d, %r10d
	movl	-116(%rbp), %esi
	addl	%esi, %r11d
	subl	%r11d, %esi
	movl	%esi, -116(%rbp)
	movl	-120(%rbp), %r8d
	addl	%r8d, -104(%rbp)
	movl	-104(%rbp), %esi
	movl	%esi, -104(%rbp)
	subl	%esi, %r8d
	movl	%r8d, -120(%rbp)
	movl	-124(%rbp), %esi
	addl	%esi, -108(%rbp)
	movl	-108(%rbp), %r8d
	movl	%r8d, -108(%rbp)
	subl	%r8d, %esi
	movl	%esi, -124(%rbp)
	addl	%r15d, -84(%rbp)
	movl	-84(%rbp), %esi
	movl	%esi, -84(%rbp)
	subl	-84(%rbp), %r15d
	addl	%r14d, -88(%rbp)
	movl	-88(%rbp), %r8d
	movl	%r8d, -88(%rbp)
	subl	-88(%rbp), %r14d
	addl	%r13d, -92(%rbp)
	movl	-92(%rbp), %esi
	movl	%esi, -92(%rbp)
	subl	-92(%rbp), %r13d
	addl	%r12d, -96(%rbp)
	movl	-96(%rbp), %esi
	movl	%esi, -96(%rbp)
	subl	-96(%rbp), %r12d
	addl	%ebx, -100(%rbp)
	movl	-100(%rbp), %r8d
	movl	%r8d, -100(%rbp)
	subl	-100(%rbp), %ebx
	addl	%edx, %eax
	subl	%eax, %edx
	movl	%edx, -128(%rbp)
	movl	-132(%rbp), %esi
	addl	%esi, %ecx
	subl	%ecx, %esi
	movl	-112(%rbp), %r8d
	addl	%r8d, %edi
	subl	%edi, %r8d
	movl	%r8d, -112(%rbp)
	addl	%r10d, %r9d
	subl	%r9d, %r10d
	movl	-116(%rbp), %edx
	addl	%edx, %r11d
	subl	%r11d, %edx
	movl	%edx, -116(%rbp)
	movl	-120(%rbp), %r8d
	addl	%r8d, -104(%rbp)
	movl	-104(%rbp), %edx
	movl	%edx, -104(%rbp)
	subl	%edx, %r8d
	movl	%r8d, -120(%rbp)
	movl	-124(%rbp), %edx
	addl	%edx, -108(%rbp)
	movl	-108(%rbp), %r8d
	movl	%r8d, -108(%rbp)
	subl	%r8d, %edx
	movl	%edx, -124(%rbp)
	addl	%r15d, -84(%rbp)
	movl	-84(%rbp), %edx
	movl	%edx, -84(%rbp)
	subl	-84(%rbp), %r15d
	addl	%r14d, -88(%rbp)
	movl	-88(%rbp), %r8d
	movl	%r8d, -88(%rbp)
	subl	-88(%rbp), %r14d
	addl	%r13d, -92(%rbp)
	movl	-92(%rbp), %edx
	movl	%edx, -92(%rbp)
	subl	-92(%rbp), %r13d
	addl	%r12d, -96(%rbp)
	movl	-96(%rbp), %edx
	movl	%edx, -96(%rbp)
	subl	-96(%rbp), %r12d
	addl	%ebx, -100(%rbp)
	movl	-100(%rbp), %r8d
	movl	%r8d, -100(%rbp)
	subl	-100(%rbp), %ebx
	movl	-128(%rbp), %edx
	addl	%edx, %eax
	subl	%eax, %edx
	addl	%esi, %ecx
	subl	%ecx, %esi
	movl	%esi, -132(%rbp)
	movl	-112(%rbp), %r8d
	addl	%r8d, %edi
	subl	%edi, %r8d
	movl	%r8d, -112(%rbp)
	addl	%r10d, %r9d
	subl	%r9d, %r10d
	movl	-116(%rbp), %esi
	addl	%esi, %r11d
	subl	%r11d, %esi
	movl	%esi, -116(%rbp)
	movl	-120(%rbp), %r8d
	addl	%r8d, -104(%rbp)
	movl	-104(%rbp), %esi
	movl	%esi, -104(%rbp)
	subl	%esi, %r8d
	movl	%r8d, -120(%rbp)
	movl	-124(%rbp), %esi
	addl	%esi, -108(%rbp)
	movl	-108(%rbp), %r8d
	movl	%r8d, -108(%rbp)
	subl	%r8d, %esi
	movl	%esi, -124(%rbp)
	addl	%r15d, -84(%rbp)
	movl	-84(%rbp), %esi
	movl	%esi, -84(%rbp)
	subl	-84(%rbp), %r15d
	addl	%r14d, -88(%rbp)
	movl	-88(%rbp), %r8d
	movl	%r8d, -88(%rbp)
	subl	-88(%rbp), %r14d
	addl	%r13d, -92(%rbp)
	movl	-92(%rbp), %esi
	movl	%esi, -92(%rbp)
	subl	-92(%rbp), %r13d
	addl	%r12d, -96(%rbp)
	movl	-96(%rbp), %esi
	movl	%esi, -96(%rbp)
	subl	-96(%rbp), %r12d
	addl	%ebx, -100(%rbp)
	movl	-100(%rbp), %r8d
	movl	%r8d, -100(%rbp)
	subl	-100(%rbp), %ebx
	addl	%edx, %eax
	subl	%eax, %edx
	movl	%edx, -128(%rbp)
	movl	-132(%rbp), %esi
	addl	%esi, %ecx
	subl	%ecx, %esi
	movl	-112(%rbp), %r8d
	addl	%r8d, %edi
	subl	%edi, %r8d
	movl	%r8d, -112(%rbp)
	addl	%r10d, %r9d
	subl	%r9d, %r10d
	movl	-116(%rbp), %edx
	addl	%edx, %r11d
	subl	%r11d, %edx
	movl	%edx, -116(%rbp)
	movl	-120(%rbp), %r8d
	addl	%r8d, -104(%rbp)
	movl	-104(%rbp), %edx
	movl	%edx, -104(%rbp)
	subl	%edx, %r8d
	movl	%r8d, -120(%rbp)
	movl	-124(%rbp), %edx
	addl	%edx, -108(%rbp)
	movl	-108(%rbp), %r8d
	movl	%r8d, -108(%rbp)
	subl	%r8d, %edx
	movl	%edx, -124(%rbp)
	addl	%r15d, -84(%rbp)
	movl	-84(%rbp), %edx
	movl	%edx, -84(%rbp)
	subl	-84(%rbp), %r15d
	addl	%r14d, -88(%rbp)
	movl	-88(%rbp), %r8d
	movl	%r8d, -88(%rbp)
	subl	-88(%rbp), %r14d
	addl	%r13d, -92(%rbp)
	movl	-92(%rbp), %edx
	movl	%edx, -92(%rbp)
	subl	-92(%rbp), %r13d
	addl	%r12d, -96(%rbp)
	movl	-96(%rbp), %edx
	movl	%edx, -96(%rbp)
	subl	-96(%rbp), %r12d
	addl	%ebx, -100(%rbp)
	movl	-100(%rbp), %r8d
	movl	%r8d, -100(%rbp)
	subl	-100(%rbp), %ebx
	movl	-128(%rbp), %edx
	addl	%edx, %eax
	subl	%eax, %edx
	addl	%esi, %ecx
	subl	%ecx, %esi
	movl	%esi, -132(%rbp)
	movl	-112(%rbp), %r8d
	addl	%r8d, %edi
	subl	%edi, %r8d
	movl	%r8d, -112(%rbp)
	addl	%r10d, %r9d
	subl	%r9d, %r10d
	movl	-116(%rbp), %esi
	addl	%esi, %r11d
	subl	%r11d, %esi
	movl	%esi, -116(%rbp)
	movl	-120(%rbp), %r8d
	addl	%r8d, -104(%rbp)
	movl	-104(%rbp), %esi
	movl	%esi, -104(%rbp)
	subl	%esi, %r8d
	movl	%r8d, -120(%rbp)
	movl	-124(%rbp), %esi
	addl	%esi, -108(%rbp)
	movl	-108(%rbp), %r8d
	movl	%r8d, -108(%rbp)
	subl	%r8d, %esi
	movl	%esi, -124(%rbp)
	addl	%r15d, -84(%rbp)
	movl	-84(%rbp), %esi
	movl	%esi, -84(%rbp)
	subl	-84(%rbp), %r15d
	addl	%r14d, -88(%rbp)
	movl	-88(%rbp), %r8d
	movl	%r8d, -88(%rbp)
	subl	-88(%rbp), %r14d
	addl	%r13d, -92(%rbp)
	movl	-92(%rbp), %esi
	movl	%esi, -92(%rbp)
	subl	-92(%rbp), %r13d
	addl	%r12d, -96(%rbp)
	movl	-96(%rbp), %esi
	movl	%esi, -96(%rbp)
	subl	-96(%rbp), %r12d
	addl	%ebx, -100(%rbp)
	movl	-100(%rbp), %r8d
	movl	%r8d, -100(%rbp)
	subl	-100(%rbp), %ebx
	addl	%edx, %eax
	subl	%eax, %edx
	movl	%edx, -128(%rbp)
	movl	-132(%rbp), %esi
	addl	%esi, %ecx
	subl	%ecx, %esi
	movl	-112(%rbp), %r8d
	addl	%r8d, %edi
	subl	%edi, %r8d
	movl	%r8d, -112(%rbp)
	addl	%r10d, %r9d
	subl	%r9d, %r10d
	movl	-116(%rbp), %edx
	addl	%edx, %r11d
	subl	%r11d, %edx
	movl	%edx, -116(%rbp)
	movl	-120(%rbp), %r8d
	addl	%r8d, -104(%rbp)
	movl	-104(%rbp), %edx
	movl	%edx, -104(%rbp)
	subl	%edx, %r8d
	movl	%r8d, -120(%rbp)
	movl	-124(%rbp), %edx
	addl	%edx, -108(%rbp)
	movl	-108(%rbp), %r8d
	movl	%r8d, -108(%rbp)
	subl	%r8d, %edx
	movl	%edx, -124(%rbp)
	addl	%r15d, -84(%rbp)
	movl	-84(%rbp), %edx
	movl	%edx, -84(%rbp)
	subl	-84(%rbp), %r15d
	addl	%r14d, -88(%rbp)
	movl	-88(%rbp), %r8d
	movl	%r8d, -88(%rbp)
	subl	-88(%rbp), %r14d
	addl	%r13d, -92(%rbp)
	movl	-92(%rbp), %edx
	movl	%edx, -92(%rbp)
	subl	-92(%rbp), %r13d
	addl	%r12d, -96(%rbp)
	movl	-96(%rbp), %edx
	movl	%edx, -96(%rbp)
	subl	-96(%rbp), %r12d
	addl	%ebx, -100(%rbp)
	movl	-100(%rbp), %r8d
	movl	%r8d, -100(%rbp)
	subl	-100(%rbp), %ebx
	movl	-128(%rbp), %edx
	addl	%edx, %eax
	subl	%eax, %edx
	addl	%esi, %ecx
	subl	%ecx, %esi
	movl	%esi, -132(%rbp)
	movl	-112(%rbp), %r8d
	addl	%r8d, %edi
	subl	%edi, %r8d
	movl	%r8d, -112(%rbp)
	addl	%r10d, %r9d
	subl	%r9d, %r10d
	movl	-116(%rbp), %esi
	addl	%esi, %r11d
	subl	%r11d, %esi
	movl	%esi, -116(%rbp)
	movl	-120(%rbp), %r8d
	addl	%r8d, -104(%rbp)
	movl	-104(%rbp), %esi
	movl	%esi, -104(%rbp)
	subl	%esi, %r8d
	movl	%r8d, -120(%rbp)
	movl	-124(%rbp), %esi
	addl	%esi, -108(%rbp)
	movl	-108(%rbp), %r8d
	movl	%r8d, -108(%rbp)
	subl	%r8d, %esi
	movl	%esi, -124(%rbp)
	addl	%r15d, -84(%rbp)
	movl	-84(%rbp), %esi
	movl	%esi, -84(%rbp)
	subl	-84(%rbp), %r15d
	addl	%r14d, -88(%rbp)
	movl	-88(%rbp), %r8d
	movl	%r8d, -88(%rbp)
	subl	-88(%rbp), %r14d
	addl	%r13d, -92(%rbp)
	movl	-92(%rbp), %esi
	movl	%esi, -92(%rbp)
	subl	-92(%rbp), %r13d
	addl	%r12d, -96(%rbp)
	movl	-96(%rbp), %esi
	movl	%esi, -96(%rbp)
	subl	-96(%rbp), %r12d
	addl	%ebx, -100(%rbp)
	movl	-100(%rbp), %r8d
	movl	%r8d, -100(%rbp)
	subl	-100(%rbp), %ebx
	addl	%edx, %eax
	subl	%eax, %edx
	movl	%edx, -128(%rbp)
	movl	-132(%rbp), %esi
	addl	%esi, %ecx
	subl	%ecx, %esi
	movl	-112(%rbp), %r8d
	addl	%r8d, %edi
	subl	%edi, %r8d
	movl	%r8d, -112(%rbp)
	addl	%r10d, %r9d
	subl	%r9d, %r10d
	movl	-116(%rbp), %edx
	addl	%edx, %r11d
	subl	%r11d, %edx
	movl	%edx, -116(%rbp)
	movl	-120(%rbp), %r8d
	addl	%r8d, -104(%rbp)
	movl	-104(%rbp), %edx
	movl	%edx, -104(%rbp)
	subl	%edx, %r8d
	movl	%r8d, -120(%rbp)
	movl	-124(%rbp), %edx
	addl	%edx, -108(%rbp)
	movl	-108(%rbp), %r8d
	movl	%r8d, -108(%rbp)
	subl	%r8d, %edx
	movl	%edx, -124(%rbp)
	addl	%r15d, -84(%rbp)
	movl	-84(%rbp), %r8d
	movl	%r8d, -84(%rbp)
	subl	-84(%rbp), %r15d
	addl	%r14d, -88(%rbp)
	movl	-88(%rbp), %r8d
	movl	%r8d, -88(%rbp)
	subl	-88(%rbp), %r14d
	addl	%r13d, -92(%rbp)
	movl	-92(%rbp), %edx
	movl	%edx, -92(%rbp)
	subl	-92(%rbp), %r13d
	addl	%r12d, -96(%rbp)
	movl	-96(%rbp), %edx
	movl	%edx, -96(%rbp)
	subl	-96(%rbp), %r12d
	addl	%ebx, -100(%rbp)
	movl	-100(%rbp), %r8d
	movl	%r8d, -100(%rbp)
	subl	-100(%rbp), %ebx
	movl	-128(%rbp), %edx
	addl	%edx, %eax
	movl	%eax, -136(%rbp)
	subl	%eax, %edx
	movl	%edx, -128(%rbp)
	addl	%esi, %ecx
	movl	%ecx, -140(%rbp)
	subl	%ecx, %esi
	movl	%esi, -132(%rbp)
	movl	-112(%rbp), %r8d
	addl	%r8d, %edi
	movl	%edi, -144(%rbp)
	subl	%edi, %r8d
	movl	%r8d, -112(%rbp)
	addl	%r10d, %r9d
	movl	%r9d, -148(%rbp)
	subl	%r9d, %r10d
	movl	%r10d, -156(%rbp)
	movl	-116(%rbp), %eax
	addl	%eax, %r11d
	movl	%r11d, -152(%rbp)
	subl	%r11d, %eax
	movl	%eax, -116(%rbp)
	movl	-120(%rbp), %eax
	addl	%eax, -104(%rbp)
	movl	-104(%rbp), %edx
	movl	%edx, -104(%rbp)
	subl	%edx, %eax
	movl	%eax, -120(%rbp)
	movl	-124(%rbp), %edx
	addl	%edx, -108(%rbp)
	movl	-108(%rbp), %r8d
	movl	%r8d, -108(%rbp)
	subl	%r8d, %edx
	movl	%edx, -124(%rbp)
	addl	%r15d, -84(%rbp)
	movl	-84(%rbp), %r8d
	movl	%r8d, -84(%rbp)
	subl	%r8d, %r15d
	addl	%r14d, -88(%rbp)
	movl	-88(%rbp), %r8d
	movl	%r8d, -88(%rbp)
	subl	%r8d, %r14d
	addl	%r13d, -92(%rbp)
	movl	-92(%rbp), %edx
	movl	%edx, -92(%rbp)
	subl	%edx, %r13d
	addl	%r12d, -96(%rbp)
	movl	-96(%rbp), %edx
	movl	%edx, -96(%rbp)
	subl	%edx, %r12d
	addl	%ebx, -100(%rbp)
	movl	-100(%rbp), %r8d
	movl	%r8d, -100(%rbp)
	subl	%r8d, %ebx
.L100:
	movq	-168(%rbp), %rax
	leaq	-1(%rax), %rcx
	movq	%rcx, -168(%rbp)
	testq	%rax, %rax
	jne	.L101
	movl	-136(%rbp), %eax
	addl	-128(%rbp), %eax
	movl	%eax, %edi
	call	use_int@PLT
	movl	-140(%rbp), %eax
	addl	-132(%rbp), %eax
	movl	%eax, %edi
	call	use_int@PLT
	movl	-144(%rbp), %eax
	addl	-112(%rbp), %eax
	movl	%eax, %edi
	call	use_int@PLT
	movl	-148(%rbp), %eax
	addl	-156(%rbp), %eax
	movl	%eax, %edi
	call	use_int@PLT
	movl	-152(%rbp), %eax
	addl	-116(%rbp), %eax
	movl	%eax, %edi
	call	use_int@PLT
	movl	-104(%rbp), %eax
	addl	-120(%rbp), %eax
	movl	%eax, %edi
	call	use_int@PLT
	movl	-108(%rbp), %eax
	addl	-124(%rbp), %eax
	movl	%eax, %edi
	call	use_int@PLT
	movl	-84(%rbp), %eax
	addl	%r15d, %eax
	movl	%eax, %edi
	call	use_int@PLT
	movl	-88(%rbp), %eax
	addl	%r14d, %eax
	movl	%eax, %edi
	call	use_int@PLT
	movl	-92(%rbp), %eax
	addl	%r13d, %eax
	movl	%eax, %edi
	call	use_int@PLT
	movl	-96(%rbp), %eax
	addl	%r12d, %eax
	movl	%eax, %edi
	call	use_int@PLT
	movl	-100(%rbp), %eax
	addl	%ebx, %eax
	movl	%eax, %edi
	call	use_int@PLT
	addq	$136, %rsp
	popq	%rbx
	popq	%r12
	popq	%r13
	popq	%r14
	popq	%r15
	popq	%rbp
	.cfi_def_cfa 7, 8
	ret
	.cfi_endproc
.LFE36:
	.size	integer_add_11, .-integer_add_11
	.globl	integer_add_12
	.type	integer_add_12, @function
integer_add_12:
.LFB37:
	.cfi_startproc
	endbr64
	pushq	%rbp
	.cfi_def_cfa_offset 16
	.cfi_offset 6, -16
	movq	%rsp, %rbp
	.cfi_def_cfa_register 6
	pushq	%r15
	pushq	%r14
	pushq	%r13
	pushq	%r12
	pushq	%rbx
	subq	$136, %rsp
	.cfi_offset 15, -24
	.cfi_offset 14, -32
	.cfi_offset 13, -40
	.cfi_offset 12, -48
	.cfi_offset 3, -56
	movq	%rdi, -72(%rbp)
	movq	%rsi, -80(%rbp)
	movq	-72(%rbp), %rax
	movq	%rax, -176(%rbp)
	movq	-80(%rbp), %rax
	movq	%rax, -56(%rbp)
	movq	-56(%rbp), %rax
	movl	12(%rax), %eax
	addl	$57, %eax
	movl	%eax, -144(%rbp)
	movq	-56(%rbp), %rax
	movl	12(%rax), %eax
	addl	$31, %eax
	movl	%eax, -136(%rbp)
	movq	-56(%rbp), %rax
	movl	16(%rax), %eax
	addl	$57, %eax
	movl	%eax, -148(%rbp)
	movq	-56(%rbp), %rax
	movl	16(%rax), %eax
	addl	$31, %eax
	movl	%eax, -140(%rbp)
	movq	-56(%rbp), %rax
	movl	20(%rax), %eax
	addl	$57, %eax
	movl	%eax, -152(%rbp)
	movq	-56(%rbp), %rax
	movl	20(%rax), %eax
	addl	$31, %eax
	movl	%eax, -116(%rbp)
	movq	-56(%rbp), %rax
	movl	24(%rax), %eax
	addl	$57, %eax
	movl	%eax, -156(%rbp)
	movq	-56(%rbp), %rax
	movl	24(%rax), %eax
	addl	$31, %eax
	movl	%eax, -164(%rbp)
	movq	-56(%rbp), %rax
	movl	28(%rax), %eax
	addl	$57, %eax
	movl	%eax, -160(%rbp)
	movq	-56(%rbp), %rax
	movl	28(%rax), %eax
	addl	$31, %eax
	movl	%eax, -120(%rbp)
	movq	-56(%rbp), %rax
	movl	32(%rax), %eax
	addl	$57, %eax
	movl	%eax, -104(%rbp)
	movq	-56(%rbp), %rax
	movl	32(%rax), %eax
	addl	$31, %eax
	movl	%eax, -124(%rbp)
	movq	-56(%rbp), %rax
	movl	36(%rax), %eax
	addl	$57, %eax
	movl	%eax, -108(%rbp)
	movq	-56(%rbp), %rax
	movl	36(%rax), %eax
	addl	$31, %eax
	movl	%eax, -128(%rbp)
	movq	-56(%rbp), %rax
	movl	40(%rax), %eax
	addl	$57, %eax
	movl	%eax, -112(%rbp)
	movq	-56(%rbp), %rax
	movl	40(%rax), %eax
	addl	$31, %eax
	movl	%eax, -132(%rbp)
	movq	-56(%rbp), %rax
	movl	44(%rax), %eax
	addl	$57, %eax
	movl	%eax, -84(%rbp)
	movq	-56(%rbp), %rax
	movl	44(%rax), %eax
	leal	31(%rax), %r15d
	movq	-56(%rbp), %rax
	movl	48(%rax), %eax
	addl	$57, %eax
	movl	%eax, -88(%rbp)
	movq	-56(%rbp), %rax
	movl	48(%rax), %eax
	leal	31(%rax), %r14d
	movq	-56(%rbp), %rax
	movl	52(%rax), %eax
	addl	$57, %eax
	movl	%eax, -92(%rbp)
	movq	-56(%rbp), %rax
	movl	52(%rax), %eax
	leal	31(%rax), %r13d
	movq	-56(%rbp), %rax
	movl	56(%rax), %eax
	addl	$57, %eax
	movl	%eax, -96(%rbp)
	movq	-56(%rbp), %rax
	movl	56(%rax), %eax
	leal	31(%rax), %r12d
	movq	-56(%rbp), %rax
	movl	60(%rax), %eax
	addl	$57, %eax
	movl	%eax, -100(%rbp)
	movq	-56(%rbp), %rax
	movl	60(%rax), %eax
	leal	31(%rax), %ebx
	jmp	.L103
.L104:
	movl	-136(%rbp), %edx
	addl	%edx, -144(%rbp)
	movl	-144(%rbp), %eax
	subl	%eax, %edx
	movl	%edx, -136(%rbp)
	movl	-140(%rbp), %esi
	addl	%esi, -148(%rbp)
	movl	-148(%rbp), %ecx
	subl	%ecx, %esi
	movl	-116(%rbp), %r8d
	addl	%r8d, -152(%rbp)
	movl	-152(%rbp), %edi
	subl	%edi, %r8d
	movl	%r8d, -116(%rbp)
	movl	-164(%rbp), %r10d
	addl	%r10d, -156(%rbp)
	movl	-156(%rbp), %r9d
	subl	%r9d, %r10d
	movl	-120(%rbp), %edx
	addl	%edx, -160(%rbp)
	movl	-160(%rbp), %r11d
	subl	%r11d, %edx
	movl	%edx, -120(%rbp)
	movl	-124(%rbp), %r8d
	addl	%r8d, -104(%rbp)
	movl	-104(%rbp), %edx
	movl	%edx, -104(%rbp)
	subl	%edx, %r8d
	movl	%r8d, -124(%rbp)
	movl	-128(%rbp), %edx
	addl	%edx, -108(%rbp)
	movl	-108(%rbp), %r8d
	movl	%r8d, -108(%rbp)
	subl	%r8d, %edx
	movl	%edx, -128(%rbp)
	movl	-132(%rbp), %r8d
	addl	%r8d, -112(%rbp)
	movl	-112(%rbp), %edx
	movl	%edx, -112(%rbp)
	subl	%edx, %r8d
	movl	%r8d, -132(%rbp)
	addl	%r15d, -84(%rbp)
	movl	-84(%rbp), %edx
	movl	%edx, -84(%rbp)
	subl	-84(%rbp), %r15d
	addl	%r14d, -88(%rbp)
	movl	-88(%rbp), %r8d
	movl	%r8d, -88(%rbp)
	subl	-88(%rbp), %r14d
	addl	%r13d, -92(%rbp)
	movl	-92(%rbp), %edx
	movl	%edx, -92(%rbp)
	subl	-92(%rbp), %r13d
	addl	%r12d, -96(%rbp)
	movl	-96(%rbp), %edx
	movl	%edx, -96(%rbp)
	subl	-96(%rbp), %r12d
	addl	%ebx, -100(%rbp)
	movl	-100(%rbp), %r8d
	movl	%r8d, -100(%rbp)
	subl	-100(%rbp), %ebx
	movl	-136(%rbp), %edx
	addl	%edx, %eax
	subl	%eax, %edx
	addl	%esi, %ecx
	subl	%ecx, %esi
	movl	%esi, -140(%rbp)
	movl	-116(%rbp), %r8d
	addl	%r8d, %edi
	subl	%edi, %r8d
	movl	%r8d, -116(%rbp)
	addl	%r10d, %r9d
	subl	%r9d, %r10d
	movl	-120(%rbp), %esi
	addl	%esi, %r11d
	subl	%r11d, %esi
	movl	%esi, -120(%rbp)
	movl	-124(%rbp), %r8d
	addl	%r8d, -104(%rbp)
	movl	-104(%rbp), %esi
	movl	%esi, -104(%rbp)
	subl	%esi, %r8d
	movl	%r8d, -124(%rbp)
	movl	-128(%rbp), %esi
	addl	%esi, -108(%rbp)
	movl	-108(%rbp), %r8d
	movl	%r8d, -108(%rbp)
	subl	%r8d, %esi
	movl	%esi, -128(%rbp)
	movl	-132(%rbp), %r8d
	addl	%r8d, -112(%rbp)
	movl	-112(%rbp), %esi
	movl	%esi, -112(%rbp)
	subl	%esi, %r8d
	movl	%r8d, -132(%rbp)
	addl	%r15d, -84(%rbp)
	movl	-84(%rbp), %esi
	movl	%esi, -84(%rbp)
	subl	-84(%rbp), %r15d
	addl	%r14d, -88(%rbp)
	movl	-88(%rbp), %r8d
	movl	%r8d, -88(%rbp)
	subl	-88(%rbp), %r14d
	addl	%r13d, -92(%rbp)
	movl	-92(%rbp), %esi
	movl	%esi, -92(%rbp)
	subl	-92(%rbp), %r13d
	addl	%r12d, -96(%rbp)
	movl	-96(%rbp), %esi
	movl	%esi, -96(%rbp)
	subl	-96(%rbp), %r12d
	addl	%ebx, -100(%rbp)
	movl	-100(%rbp), %r8d
	movl	%r8d, -100(%rbp)
	subl	-100(%rbp), %ebx
	addl	%edx, %eax
	subl	%eax, %edx
	movl	%edx, -136(%rbp)
	movl	-140(%rbp), %esi
	addl	%esi, %ecx
	subl	%ecx, %esi
	movl	-116(%rbp), %r8d
	addl	%r8d, %edi
	subl	%edi, %r8d
	movl	%r8d, -116(%rbp)
	addl	%r10d, %r9d
	subl	%r9d, %r10d
	movl	-120(%rbp), %edx
	addl	%edx, %r11d
	subl	%r11d, %edx
	movl	%edx, -120(%rbp)
	movl	-124(%rbp), %r8d
	addl	%r8d, -104(%rbp)
	movl	-104(%rbp), %edx
	movl	%edx, -104(%rbp)
	subl	%edx, %r8d
	movl	%r8d, -124(%rbp)
	movl	-128(%rbp), %edx
	addl	%edx, -108(%rbp)
	movl	-108(%rbp), %r8d
	movl	%r8d, -108(%rbp)
	subl	%r8d, %edx
	movl	%edx, -128(%rbp)
	movl	-132(%rbp), %r8d
	addl	%r8d, -112(%rbp)
	movl	-112(%rbp), %edx
	movl	%edx, -112(%rbp)
	subl	%edx, %r8d
	movl	%r8d, -132(%rbp)
	addl	%r15d, -84(%rbp)
	movl	-84(%rbp), %edx
	movl	%edx, -84(%rbp)
	subl	-84(%rbp), %r15d
	addl	%r14d, -88(%rbp)
	movl	-88(%rbp), %r8d
	movl	%r8d, -88(%rbp)
	subl	-88(%rbp), %r14d
	addl	%r13d, -92(%rbp)
	movl	-92(%rbp), %edx
	movl	%edx, -92(%rbp)
	subl	-92(%rbp), %r13d
	addl	%r12d, -96(%rbp)
	movl	-96(%rbp), %edx
	movl	%edx, -96(%rbp)
	subl	-96(%rbp), %r12d
	addl	%ebx, -100(%rbp)
	movl	-100(%rbp), %r8d
	movl	%r8d, -100(%rbp)
	subl	-100(%rbp), %ebx
	movl	-136(%rbp), %edx
	addl	%edx, %eax
	subl	%eax, %edx
	addl	%esi, %ecx
	subl	%ecx, %esi
	movl	%esi, -140(%rbp)
	movl	-116(%rbp), %r8d
	addl	%r8d, %edi
	subl	%edi, %r8d
	movl	%r8d, -116(%rbp)
	addl	%r10d, %r9d
	subl	%r9d, %r10d
	movl	-120(%rbp), %esi
	addl	%esi, %r11d
	subl	%r11d, %esi
	movl	%esi, -120(%rbp)
	movl	-124(%rbp), %r8d
	addl	%r8d, -104(%rbp)
	movl	-104(%rbp), %esi
	movl	%esi, -104(%rbp)
	subl	%esi, %r8d
	movl	%r8d, -124(%rbp)
	movl	-128(%rbp), %esi
	addl	%esi, -108(%rbp)
	movl	-108(%rbp), %r8d
	movl	%r8d, -108(%rbp)
	subl	%r8d, %esi
	movl	%esi, -128(%rbp)
	movl	-132(%rbp), %r8d
	addl	%r8d, -112(%rbp)
	movl	-112(%rbp), %esi
	movl	%esi, -112(%rbp)
	subl	%esi, %r8d
	movl	%r8d, -132(%rbp)
	addl	%r15d, -84(%rbp)
	movl	-84(%rbp), %esi
	movl	%esi, -84(%rbp)
	subl	-84(%rbp), %r15d
	addl	%r14d, -88(%rbp)
	movl	-88(%rbp), %r8d
	movl	%r8d, -88(%rbp)
	subl	-88(%rbp), %r14d
	addl	%r13d, -92(%rbp)
	movl	-92(%rbp), %esi
	movl	%esi, -92(%rbp)
	subl	-92(%rbp), %r13d
	addl	%r12d, -96(%rbp)
	movl	-96(%rbp), %esi
	movl	%esi, -96(%rbp)
	subl	-96(%rbp), %r12d
	addl	%ebx, -100(%rbp)
	movl	-100(%rbp), %r8d
	movl	%r8d, -100(%rbp)
	subl	-100(%rbp), %ebx
	addl	%edx, %eax
	subl	%eax, %edx
	movl	%edx, -136(%rbp)
	movl	-140(%rbp), %esi
	addl	%esi, %ecx
	subl	%ecx, %esi
	movl	-116(%rbp), %r8d
	addl	%r8d, %edi
	subl	%edi, %r8d
	movl	%r8d, -116(%rbp)
	addl	%r10d, %r9d
	subl	%r9d, %r10d
	movl	-120(%rbp), %edx
	addl	%edx, %r11d
	subl	%r11d, %edx
	movl	%edx, -120(%rbp)
	movl	-124(%rbp), %r8d
	addl	%r8d, -104(%rbp)
	movl	-104(%rbp), %edx
	movl	%edx, -104(%rbp)
	subl	%edx, %r8d
	movl	%r8d, -124(%rbp)
	movl	-128(%rbp), %edx
	addl	%edx, -108(%rbp)
	movl	-108(%rbp), %r8d
	movl	%r8d, -108(%rbp)
	subl	%r8d, %edx
	movl	%edx, -128(%rbp)
	movl	-132(%rbp), %r8d
	addl	%r8d, -112(%rbp)
	movl	-112(%rbp), %edx
	movl	%edx, -112(%rbp)
	subl	%edx, %r8d
	movl	%r8d, -132(%rbp)
	addl	%r15d, -84(%rbp)
	movl	-84(%rbp), %edx
	movl	%edx, -84(%rbp)
	subl	-84(%rbp), %r15d
	addl	%r14d, -88(%rbp)
	movl	-88(%rbp), %r8d
	movl	%r8d, -88(%rbp)
	subl	-88(%rbp), %r14d
	addl	%r13d, -92(%rbp)
	movl	-92(%rbp), %edx
	movl	%edx, -92(%rbp)
	subl	-92(%rbp), %r13d
	addl	%r12d, -96(%rbp)
	movl	-96(%rbp), %edx
	movl	%edx, -96(%rbp)
	subl	-96(%rbp), %r12d
	addl	%ebx, -100(%rbp)
	movl	-100(%rbp), %r8d
	movl	%r8d, -100(%rbp)
	subl	-100(%rbp), %ebx
	movl	-136(%rbp), %edx
	addl	%edx, %eax
	subl	%eax, %edx
	addl	%esi, %ecx
	subl	%ecx, %esi
	movl	%esi, -140(%rbp)
	movl	-116(%rbp), %r8d
	addl	%r8d, %edi
	subl	%edi, %r8d
	movl	%r8d, -116(%rbp)
	addl	%r10d, %r9d
	subl	%r9d, %r10d
	movl	-120(%rbp), %esi
	addl	%esi, %r11d
	subl	%r11d, %esi
	movl	%esi, -120(%rbp)
	movl	-124(%rbp), %r8d
	addl	%r8d, -104(%rbp)
	movl	-104(%rbp), %esi
	movl	%esi, -104(%rbp)
	subl	%esi, %r8d
	movl	%r8d, -124(%rbp)
	movl	-128(%rbp), %esi
	addl	%esi, -108(%rbp)
	movl	-108(%rbp), %r8d
	movl	%r8d, -108(%rbp)
	subl	%r8d, %esi
	movl	%esi, -128(%rbp)
	movl	-132(%rbp), %r8d
	addl	%r8d, -112(%rbp)
	movl	-112(%rbp), %esi
	movl	%esi, -112(%rbp)
	subl	%esi, %r8d
	movl	%r8d, -132(%rbp)
	addl	%r15d, -84(%rbp)
	movl	-84(%rbp), %esi
	movl	%esi, -84(%rbp)
	subl	-84(%rbp), %r15d
	addl	%r14d, -88(%rbp)
	movl	-88(%rbp), %r8d
	movl	%r8d, -88(%rbp)
	subl	-88(%rbp), %r14d
	addl	%r13d, -92(%rbp)
	movl	-92(%rbp), %esi
	movl	%esi, -92(%rbp)
	subl	-92(%rbp), %r13d
	addl	%r12d, -96(%rbp)
	movl	-96(%rbp), %esi
	movl	%esi, -96(%rbp)
	subl	-96(%rbp), %r12d
	addl	%ebx, -100(%rbp)
	movl	-100(%rbp), %r8d
	movl	%r8d, -100(%rbp)
	subl	-100(%rbp), %ebx
	addl	%edx, %eax
	subl	%eax, %edx
	movl	%edx, -136(%rbp)
	movl	-140(%rbp), %esi
	addl	%esi, %ecx
	subl	%ecx, %esi
	movl	-116(%rbp), %r8d
	addl	%r8d, %edi
	subl	%edi, %r8d
	movl	%r8d, -116(%rbp)
	addl	%r10d, %r9d
	subl	%r9d, %r10d
	movl	-120(%rbp), %edx
	addl	%edx, %r11d
	subl	%r11d, %edx
	movl	%edx, -120(%rbp)
	movl	-124(%rbp), %r8d
	addl	%r8d, -104(%rbp)
	movl	-104(%rbp), %edx
	movl	%edx, -104(%rbp)
	subl	%edx, %r8d
	movl	%r8d, -124(%rbp)
	movl	-128(%rbp), %edx
	addl	%edx, -108(%rbp)
	movl	-108(%rbp), %r8d
	movl	%r8d, -108(%rbp)
	subl	%r8d, %edx
	movl	%edx, -128(%rbp)
	movl	-132(%rbp), %r8d
	addl	%r8d, -112(%rbp)
	movl	-112(%rbp), %edx
	movl	%edx, -112(%rbp)
	subl	%edx, %r8d
	movl	%r8d, -132(%rbp)
	addl	%r15d, -84(%rbp)
	movl	-84(%rbp), %edx
	movl	%edx, -84(%rbp)
	subl	-84(%rbp), %r15d
	addl	%r14d, -88(%rbp)
	movl	-88(%rbp), %r8d
	movl	%r8d, -88(%rbp)
	subl	-88(%rbp), %r14d
	addl	%r13d, -92(%rbp)
	movl	-92(%rbp), %edx
	movl	%edx, -92(%rbp)
	subl	-92(%rbp), %r13d
	addl	%r12d, -96(%rbp)
	movl	-96(%rbp), %edx
	movl	%edx, -96(%rbp)
	subl	-96(%rbp), %r12d
	addl	%ebx, -100(%rbp)
	movl	-100(%rbp), %r8d
	movl	%r8d, -100(%rbp)
	subl	-100(%rbp), %ebx
	movl	-136(%rbp), %edx
	addl	%edx, %eax
	subl	%eax, %edx
	addl	%esi, %ecx
	subl	%ecx, %esi
	movl	%esi, -140(%rbp)
	movl	-116(%rbp), %r8d
	addl	%r8d, %edi
	subl	%edi, %r8d
	movl	%r8d, -116(%rbp)
	addl	%r10d, %r9d
	subl	%r9d, %r10d
	movl	-120(%rbp), %esi
	addl	%esi, %r11d
	subl	%r11d, %esi
	movl	%esi, -120(%rbp)
	movl	-124(%rbp), %r8d
	addl	%r8d, -104(%rbp)
	movl	-104(%rbp), %esi
	movl	%esi, -104(%rbp)
	subl	%esi, %r8d
	movl	%r8d, -124(%rbp)
	movl	-128(%rbp), %esi
	addl	%esi, -108(%rbp)
	movl	-108(%rbp), %r8d
	movl	%r8d, -108(%rbp)
	subl	%r8d, %esi
	movl	%esi, -128(%rbp)
	movl	-132(%rbp), %r8d
	addl	%r8d, -112(%rbp)
	movl	-112(%rbp), %esi
	movl	%esi, -112(%rbp)
	subl	%esi, %r8d
	movl	%r8d, -132(%rbp)
	addl	%r15d, -84(%rbp)
	movl	-84(%rbp), %esi
	movl	%esi, -84(%rbp)
	subl	-84(%rbp), %r15d
	addl	%r14d, -88(%rbp)
	movl	-88(%rbp), %r8d
	movl	%r8d, -88(%rbp)
	subl	-88(%rbp), %r14d
	addl	%r13d, -92(%rbp)
	movl	-92(%rbp), %esi
	movl	%esi, -92(%rbp)
	subl	-92(%rbp), %r13d
	addl	%r12d, -96(%rbp)
	movl	-96(%rbp), %esi
	movl	%esi, -96(%rbp)
	subl	-96(%rbp), %r12d
	addl	%ebx, -100(%rbp)
	movl	-100(%rbp), %r8d
	movl	%r8d, -100(%rbp)
	subl	-100(%rbp), %ebx
	addl	%edx, %eax
	subl	%eax, %edx
	movl	%edx, -136(%rbp)
	movl	-140(%rbp), %esi
	addl	%esi, %ecx
	subl	%ecx, %esi
	movl	-116(%rbp), %r8d
	addl	%r8d, %edi
	subl	%edi, %r8d
	movl	%r8d, -116(%rbp)
	addl	%r10d, %r9d
	subl	%r9d, %r10d
	movl	-120(%rbp), %edx
	addl	%edx, %r11d
	subl	%r11d, %edx
	movl	%edx, -120(%rbp)
	movl	-124(%rbp), %r8d
	addl	%r8d, -104(%rbp)
	movl	-104(%rbp), %edx
	movl	%edx, -104(%rbp)
	subl	%edx, %r8d
	movl	%r8d, -124(%rbp)
	movl	-128(%rbp), %edx
	addl	%edx, -108(%rbp)
	movl	-108(%rbp), %r8d
	movl	%r8d, -108(%rbp)
	subl	%r8d, %edx
	movl	%edx, -128(%rbp)
	movl	-132(%rbp), %edx
	addl	%edx, -112(%rbp)
	movl	-112(%rbp), %r8d
	movl	%r8d, -112(%rbp)
	subl	%r8d, %edx
	movl	%edx, -132(%rbp)
	addl	%r15d, -84(%rbp)
	movl	-84(%rbp), %r8d
	movl	%r8d, -84(%rbp)
	subl	-84(%rbp), %r15d
	addl	%r14d, -88(%rbp)
	movl	-88(%rbp), %edx
	movl	%edx, -88(%rbp)
	subl	-88(%rbp), %r14d
	addl	%r13d, -92(%rbp)
	movl	-92(%rbp), %r8d
	movl	%r8d, -92(%rbp)
	subl	-92(%rbp), %r13d
	addl	%r12d, -96(%rbp)
	movl	-96(%rbp), %edx
	movl	%edx, -96(%rbp)
	subl	-96(%rbp), %r12d
	addl	%ebx, -100(%rbp)
	movl	-100(%rbp), %r8d
	movl	%r8d, -100(%rbp)
	subl	-100(%rbp), %ebx
	movl	-136(%rbp), %edx
	addl	%edx, %eax
	movl	%eax, -144(%rbp)
	subl	%eax, %edx
	movl	%edx, -136(%rbp)
	addl	%esi, %ecx
	movl	%ecx, -148(%rbp)
	subl	%ecx, %esi
	movl	%esi, -140(%rbp)
	movl	-116(%rbp), %r8d
	addl	%r8d, %edi
	movl	%edi, -152(%rbp)
	subl	%edi, %r8d
	movl	%r8d, -116(%rbp)
	addl	%r10d, %r9d
	movl	%r9d, -156(%rbp)
	subl	%r9d, %r10d
	movl	%r10d, -164(%rbp)
	movl	-120(%rbp), %eax
	addl	%eax, %r11d
	movl	%r11d, -160(%rbp)
	subl	%r11d, %eax
	movl	%eax, -120(%rbp)
	movl	-124(%rbp), %eax
	addl	%eax, -104(%rbp)
	movl	-104(%rbp), %edx
	movl	%edx, -104(%rbp)
	subl	%edx, %eax
	movl	%eax, -124(%rbp)
	movl	-128(%rbp), %edx
	addl	%edx, -108(%rbp)
	movl	-108(%rbp), %r8d
	movl	%r8d, -108(%rbp)
	subl	%r8d, %edx
	movl	%edx, -128(%rbp)
	movl	-132(%rbp), %edx
	addl	%edx, -112(%rbp)
	movl	-112(%rbp), %r8d
	movl	%r8d, -112(%rbp)
	subl	%r8d, %edx
	movl	%edx, -132(%rbp)
	addl	%r15d, -84(%rbp)
	movl	-84(%rbp), %r8d
	movl	%r8d, -84(%rbp)
	subl	%r8d, %r15d
	addl	%r14d, -88(%rbp)
	movl	-88(%rbp), %edx
	movl	%edx, -88(%rbp)
	subl	%edx, %r14d
	addl	%r13d, -92(%rbp)
	movl	-92(%rbp), %r8d
	movl	%r8d, -92(%rbp)
	subl	%r8d, %r13d
	addl	%r12d, -96(%rbp)
	movl	-96(%rbp), %edx
	movl	%edx, -96(%rbp)
	subl	%edx, %r12d
	addl	%ebx, -100(%rbp)
	movl	-100(%rbp), %r8d
	movl	%r8d, -100(%rbp)
	subl	%r8d, %ebx
.L103:
	movq	-176(%rbp), %rax
	leaq	-1(%rax), %rcx
	movq	%rcx, -176(%rbp)
	testq	%rax, %rax
	jne	.L104
	movl	-144(%rbp), %eax
	addl	-136(%rbp), %eax
	movl	%eax, %edi
	call	use_int@PLT
	movl	-148(%rbp), %eax
	addl	-140(%rbp), %eax
	movl	%eax, %edi
	call	use_int@PLT
	movl	-152(%rbp), %eax
	addl	-116(%rbp), %eax
	movl	%eax, %edi
	call	use_int@PLT
	movl	-156(%rbp), %eax
	addl	-164(%rbp), %eax
	movl	%eax, %edi
	call	use_int@PLT
	movl	-160(%rbp), %eax
	addl	-120(%rbp), %eax
	movl	%eax, %edi
	call	use_int@PLT
	movl	-104(%rbp), %eax
	addl	-124(%rbp), %eax
	movl	%eax, %edi
	call	use_int@PLT
	movl	-108(%rbp), %eax
	addl	-128(%rbp), %eax
	movl	%eax, %edi
	call	use_int@PLT
	movl	-112(%rbp), %eax
	addl	-132(%rbp), %eax
	movl	%eax, %edi
	call	use_int@PLT
	movl	-84(%rbp), %eax
	addl	%r15d, %eax
	movl	%eax, %edi
	call	use_int@PLT
	movl	-88(%rbp), %eax
	addl	%r14d, %eax
	movl	%eax, %edi
	call	use_int@PLT
	movl	-92(%rbp), %eax
	addl	%r13d, %eax
	movl	%eax, %edi
	call	use_int@PLT
	movl	-96(%rbp), %eax
	addl	%r12d, %eax
	movl	%eax, %edi
	call	use_int@PLT
	movl	-100(%rbp), %eax
	addl	%ebx, %eax
	movl	%eax, %edi
	call	use_int@PLT
	addq	$136, %rsp
	popq	%rbx
	popq	%r12
	popq	%r13
	popq	%r14
	popq	%r15
	popq	%rbp
	.cfi_def_cfa 7, 8
	ret
	.cfi_endproc
.LFE37:
	.size	integer_add_12, .-integer_add_12
	.globl	integer_add_13
	.type	integer_add_13, @function
integer_add_13:
.LFB38:
	.cfi_startproc
	endbr64
